
build/tests.elf:     file format elf32-xtensa-le


Disassembly of section .iram.text:

40080400 <__fdiv32>:
40080400:	fa3170        	div0.s	f3, f1
40080403:	fa41b0        	nexp01.s	f4, f1
40080406:	fa5130        	const.s	f5, 1
40080409:	6a5430        	maddn.s	f5, f4, f3
4008040c:	fa6300        	mov.s	f6, f3
4008040f:	fa7100        	mov.s	f7, f1
40080412:	fa80b0        	nexp01.s	f8, f0
40080415:	6a6530        	maddn.s	f6, f5, f3
40080418:	fa5130        	const.s	f5, 1
4008041b:	fa2030        	const.s	f2, 0
4008041e:	fa9860        	neg.s	f9, f8
40080421:	6a5460        	maddn.s	f5, f4, f6
40080424:	6a2930        	maddn.s	f2, f9, f3
40080427:	fa70d0        	mkdadj.s	f7, f0
4008042a:	6a6560        	maddn.s	f6, f5, f6
4008042d:	6a9420        	maddn.s	f9, f4, f2
40080430:	fa5130        	const.s	f5, 1
40080433:	6a5460        	maddn.s	f5, f4, f6
40080436:	6a2960        	maddn.s	f2, f9, f6
40080439:	fa9860        	neg.s	f9, f8
4008043c:	6a6560        	maddn.s	f6, f5, f6
4008043f:	6a9420        	maddn.s	f9, f4, f2
40080442:	fa27f0        	addexpm.s	f2, f7
40080445:	fa67e0        	addexp.s	f6, f7
40080448:	7a2960        	divn.s	f2, f9, f6
4008044b:	f00d      	ret.n
4008044d:	000000        	ill

40080450 <__fsqrt32>:
40080450:	fa2090        	sqrt0.s	f2, f0
40080453:	fa5030        	const.s	f5, 0
40080456:	6a5220        	maddn.s	f5, f2, f2
40080459:	fa30b0        	nexp01.s	f3, f0
4008045c:	fa4330        	const.s	f4, 3
4008045f:	fa34e0        	addexp.s	f3, f4
40080462:	6a4530        	maddn.s	f4, f5, f3
40080465:	fa50b0        	nexp01.s	f5, f0
40080468:	fa6560        	neg.s	f6, f5
4008046b:	6a2420        	maddn.s	f2, f4, f2
4008046e:	fa1030        	const.s	f1, 0
40080471:	fa4030        	const.s	f4, 0
40080474:	fa7030        	const.s	f7, 0
40080477:	6a1620        	maddn.s	f1, f6, f2
4008047a:	6a4230        	maddn.s	f4, f2, f3
4008047d:	fa6330        	const.s	f6, 3
40080480:	6a7620        	maddn.s	f7, f6, f2
40080483:	6a5110        	maddn.s	f5, f1, f1
40080486:	6a6420        	maddn.s	f6, f4, f2
40080489:	fa3760        	neg.s	f3, f7
4008048c:	6a1530        	maddn.s	f1, f5, f3
4008048f:	6a7670        	maddn.s	f7, f6, f7
40080492:	fa20c0        	mksadj.s	f2, f0
40080495:	fa50b0        	nexp01.s	f5, f0
40080498:	6a5110        	maddn.s	f5, f1, f1
4008049b:	fa3760        	neg.s	f3, f7
4008049e:	fa12f0        	addexpm.s	f1, f2
400804a1:	fa32e0        	addexp.s	f3, f2
400804a4:	7a1530        	divn.s	f1, f5, f3
400804a7:	f00d      	ret.n
400804a9:	000000        	ill

400804ac <_sitable>:
400804ac:	083b14        	lsi	f1, a11, 32
400804af:	3bb040        	ueq.s	b11, f0, f4
400804b2:	4008      	l32i.n	a0, a0, 16
400804b4:	3bc8      	l32i.n	a12, a11, 12
400804b6:	4008      	l32i.n	a0, a0, 16
400804b8:	083be0        	lsx	f3, a11, a14
400804bb:	3bf840        	ueq.s	b15, f8, f4
400804be:	4008      	l32i.n	a0, a0, 16
400804c0:	083c10        	lsx	f3, a12, a1
400804c3:	3c2840        	lsi	f4, a8, 240
400804c6:	4008      	l32i.n	a0, a0, 16
400804c8:	083c40        	lsx	f3, a12, a4
400804cb:	3c5840        	lsi	f4, a8, 240
400804ce:	4008      	l32i.n	a0, a0, 16
400804d0:	3c6c      	movi.n	a12, -29
400804d2:	4008      	l32i.n	a0, a0, 16
400804d4:	3c7c      	movi.n	a12, -13
400804d6:	4008      	l32i.n	a0, a0, 16
400804d8:	3c8c      	beqz.n	a12, 400804df <_eitable+0x3>
400804da:	4008      	l32i.n	a0, a0, 16

400804dc <_eitable>:
400804dc:	fb0d90        	f64addc	a9, a13, 0, 0
400804df:	3f          	.byte 0x3f
400804e0:	fb0d94        	lsi	f9, a13, 0x3ec
400804e3:	3f          	.byte 0x3f

400804e4 <_eptable>:
400804e4:	000406        	j	400804f8 <_call_start_cpu0>
400804e7:	559000        	extui	a9, a0, 16, 6
400804ea:	3ffb      	addi.n	a3, a15, 15
400804ec:	fb0d74        	lsi	f7, a13, 0x3ec
400804ef:	3f          	.byte 0x3f
400804f0:	04dc      	bnez.n	a4, 40080504 <_call_start_cpu0+0xc>
400804f2:	4008      	l32i.n	a0, a0, 16
400804f4:	04ac      	beqz.n	a4, 40080518 <_call_start_cpu0+0x20>
400804f6:	4008      	l32i.n	a0, a0, 16

400804f8 <_call_start_cpu0>:
400804f8:	fffc11        	l32r	a1, 400804e8 <_eptable+0x4>
400804fb:	000c      	movi.n	a0, 0
400804fd:	f0c112        	addi	a1, a1, -16
40080500:	10c142        	addi	a4, a1, 16
40080503:	49d140        	s32e	a4, a1, -12
40080506:	000455        	call4	4008054c <_stop_watchdog>
40080509:	000615        	call4	4008056c <_set_160mhz>
4008050c:	fff721        	l32r	a2, 400804e8 <_eptable+0x4>
4008050f:	fff731        	l32r	a3, 400804ec <_eptable+0x8>
40080512:	c02230        	sub	a2, a2, a3
40080515:	b28c      	beqz.n	a2, 40080524 <_call_start_cpu0+0x2c>
40080517:	412220        	srli	a2, a2, 2
4008051a:	00a042        	movi	a4, 0
4008051d:	038276        	loop	a2, 40080524 <_call_start_cpu0+0x2c>
40080520:	0349      	s32i.n	a4, a3, 0
40080522:	334b      	addi.n	a3, a3, 4
40080524:	fff331        	l32r	a3, 400804f0 <_eptable+0xc>
40080527:	fff321        	l32r	a2, 400804f4 <_eptable+0x10>
4008052a:	c02320        	sub	a2, a3, a2
4008052d:	e28c      	beqz.n	a2, 4008053f <_init_end>
4008052f:	412220        	srli	a2, a2, 2
40080532:	098276        	loop	a2, 4008053f <_init_end>
40080535:	fcc332        	addi	a3, a3, -4
40080538:	0378      	l32i.n	a7, a3, 0
4008053a:	0007d0        	callx4	a7
4008053d:	f03d      	nop.n

4008053f <_init_end>:
4008053f:	ffff06        	j	4008053f <_init_end>
40080542:	8c0000        	lsi	f0, a0, 0x230
40080545:	3ff480        	f64cmph	a15, a4, a8, 3
40080548:	f048      	l32i.n	a4, a0, 60
4008054a:	        	call12	400b6948 <_etext+0x32cb4>

4008054c <_stop_watchdog>:
4008054c:	002136        	entry	a1, 16
4008054f:	020c      	movi.n	a2, 0
40080551:	fffc31        	l32r	a3, 40080544 <_init_end+0x5>
40080554:	0329      	s32i.n	a2, a3, 0
40080556:	fffc31        	l32r	a3, 40080548 <_init_end+0x9>
40080559:	0329      	s32i.n	a2, a3, 0
4008055b:	f01d      	retw.n
4008055d:	000000        	ill
40080560:	f48070        	extui	a8, a7, 0, 16
40080563:	3f          	.byte 0x3f
40080564:	002210        	lsi	f1, a2, 0
40080567:	3c08      	l32i.n	a0, a12, 12
40080569:	3ff000        	f64cmph	a15, a0, a0, 3

4008056c <_set_160mhz>:
4008056c:	002136        	entry	a1, 16
4008056f:	fffc21        	l32r	a2, 40080560 <_stop_watchdog+0x14>
40080572:	fffc31        	l32r	a3, 40080564 <_stop_watchdog+0x18>
40080575:	0239      	s32i.n	a3, a2, 0
40080577:	fffc21        	l32r	a2, 40080568 <_stop_watchdog+0x1c>
4008057a:	130c      	movi.n	a3, 1
4008057c:	0239      	s32i.n	a3, a2, 0
4008057e:	f01d      	retw.n
40080580:	fb0d74        	lsi	f7, a13, 0x3ec
40080583:	3f          	.byte 0x3f
40080584:	fb0000        	f64addc	a0, a0, 0, 0
40080587:	3f          	.byte 0x3f

40080588 <_ShowStackAdr>:
40080588:	004136        	entry	a1, 32
4008058b:	fffd21        	l32r	a2, 40080580 <_set_160mhz+0x14>
4008058e:	013d      	mov.n	a3, a1
40080590:	006132        	s32i	a3, a1, 0
40080593:	201110        	or	a1, a1, a1
40080596:	02df55        	call4	4008338c <_Out_70D42FFB_p_Ln>
40080599:	fffa61        	l32r	a6, 40080584 <_set_160mhz+0x18>
4008059c:	071c      	movi.n	a7, 16
4008059e:	201110        	or	a1, a1, a1
400805a1:	029095        	call4	40082eac <_Out_70D42FFB_p_String>
400805a4:	002162        	l32i	a6, a1, 0
400805a7:	00a072        	movi	a7, 0
400805aa:	201110        	or	a1, a1, a1
400805ad:	029cd5        	call4	40082f7c <_Out_70D42FFB_p_Hex>
400805b0:	201110        	or	a1, a1, a1
400805b3:	02dd95        	call4	4008338c <_Out_70D42FFB_p_Ln>
400805b6:	f01d      	retw.n
400805b8:	0d78      	l32i.n	a7, a13, 0
400805ba:	3ffb      	addi.n	a3, a15, 15
400805bc:	060c      	movi.n	a6, 0
400805be:	4008      	l32i.n	a0, a0, 16

400805c0 <_Proc1>:
400805c0:	004136        	entry	a1, 32
400805c3:	0129      	s32i.n	a2, a1, 0
400805c5:	fffc21        	l32r	a2, 400805b8 <_ShowStackAdr+0x30>
400805c8:	0138      	l32i.n	a3, a1, 0
400805ca:	fffc41        	l32r	a4, 400805bc <_ShowStackAdr+0x34>
400805cd:	0458      	l32i.n	a5, a4, 0
400805cf:	056d      	mov.n	a6, a5
400805d1:	02a357        	bge	a3, a5, 400805d7 <L3>
400805d4:	000ac6        	j	40080603 <L1>

400805d7 <L3>:
400805d7:	1458      	l32i.n	a5, a4, 4
400805d9:	022357        	blt	a3, a5, 400805df <L4>
400805dc:	0008c6        	j	40080603 <L1>

400805df <L4>:
400805df:	448b      	addi.n	a4, a4, 8
400805e1:	c03360        	sub	a3, a3, a6
400805e4:	1133e0        	slli	a3, a3, 2
400805e7:	443a      	add.n	a4, a4, a3
400805e9:	0448      	l32i.n	a4, a4, 0
400805eb:	0004a0        	jx	a4

400805ee <L6>:
400805ee:	130c      	movi.n	a3, 1
400805f0:	1139      	s32i.n	a3, a1, 4
400805f2:	001f86        	j	40080674 <L5>

400805f5 <L10>:
400805f5:	230c      	movi.n	a3, 2
400805f7:	1139      	s32i.n	a3, a1, 4
400805f9:	001dc6        	j	40080674 <L5>

400805fc <L11>:
400805fc:	330c      	movi.n	a3, 3
400805fe:	1139      	s32i.n	a3, a1, 4
40080600:	001c06        	j	40080674 <L5>

40080603 <L1>:
40080603:	f37c      	movi.n	a3, -1
40080605:	1139      	s32i.n	a3, a1, 4
40080607:	001a46        	j	40080674 <L5>
	...

4008060c <L2>:
4008060c:	000002        	l8ui	a0, a0, 0
4008060f:	001a00        	movsp	a0, a10
40080612:	f50000        	extui	a0, a0, 16, 16
40080615:	400805        	call0	400c0698 <_etext+0x3ca04>
40080618:	0805f5        	call12	40088678 <_etext+0x49e4>
4008061b:	05f540        	extui	a15, a4, 21, 1
4008061e:	4008      	l32i.n	a0, a0, 16
40080620:	05fc      	bnez.n	a5, 40080654 <L2+0x48>
40080622:	4008      	l32i.n	a0, a0, 16
40080624:	05fc      	bnez.n	a5, 40080658 <L2+0x4c>
40080626:	4008      	l32i.n	a0, a0, 16
40080628:	080603        	lsi	f0, a6, 32
4008062b:	05ee40        	extui	a14, a4, 30, 1
4008062e:	4008      	l32i.n	a0, a0, 16
40080630:	ee          	.byte 0xee
40080631:	400805        	call0	400c06b4 <_etext+0x3ca20>
40080634:	ee          	.byte 0xee
40080635:	400805        	call0	400c06b8 <_etext+0x3ca24>
40080638:	080603        	lsi	f0, a6, 32
4008063b:	060340        	lsi	f4, a3, 24
4008063e:	4008      	l32i.n	a0, a0, 16
40080640:	080603        	lsi	f0, a6, 32
40080643:	05ee40        	extui	a14, a4, 30, 1
40080646:	4008      	l32i.n	a0, a0, 16
40080648:	0805f5        	call12	400886a8 <_etext+0x4a14>
4008064b:	05f540        	extui	a15, a4, 21, 1
4008064e:	4008      	l32i.n	a0, a0, 16
40080650:	0805f5        	call12	400886b0 <_etext+0x4a1c>
40080653:	05f540        	extui	a15, a4, 21, 1
40080656:	4008      	l32i.n	a0, a0, 16
40080658:	0805f5        	call12	400886b8 <_etext+0x4a24>
4008065b:	05f540        	extui	a15, a4, 21, 1
4008065e:	4008      	l32i.n	a0, a0, 16
40080660:	080603        	lsi	f0, a6, 32
40080663:	060340        	lsi	f4, a3, 24
40080666:	4008      	l32i.n	a0, a0, 16
40080668:	080603        	lsi	f0, a6, 32
4008066b:	060340        	lsi	f4, a3, 24
4008066e:	4008      	l32i.n	a0, a0, 16
40080670:	0805f5        	call12	400886d0 <_etext+0x4a3c>
40080673:	        	slli	a3, a8, 12

40080674 <L5>:
40080674:	1138      	l32i.n	a3, a1, 4
40080676:	f01d      	retw.n
40080678:	0806c4        	lsi	f12, a6, 32
4008067b:	        	srli	a3, a4, 6

4008067c <_Proc2>:
4008067c:	004136        	entry	a1, 32
4008067f:	ffce21        	l32r	a2, 400805b8 <_ShowStackAdr+0x30>
40080682:	130c      	movi.n	a3, 1
40080684:	0139      	s32i.n	a3, a1, 0
40080686:	0138      	l32i.n	a3, a1, 0
40080688:	fffc41        	l32r	a4, 40080678 <L5+0x4>
4008068b:	0458      	l32i.n	a5, a4, 0
4008068d:	056d      	mov.n	a6, a5
4008068f:	02a357        	bge	a3, a5, 40080695 <L14>
40080692:	001086        	j	400806d8 <L12>

40080695 <L14>:
40080695:	1458      	l32i.n	a5, a4, 4
40080697:	022357        	blt	a3, a5, 4008069d <L15>
4008069a:	000e86        	j	400806d8 <L12>

4008069d <L15>:
4008069d:	448b      	addi.n	a4, a4, 8
4008069f:	c03360        	sub	a3, a3, a6
400806a2:	1133e0        	slli	a3, a3, 2
400806a5:	443a      	add.n	a4, a4, a3
400806a7:	0448      	l32i.n	a4, a4, 0
400806a9:	0004a0        	jx	a4

400806ac <L17>:
400806ac:	030c      	movi.n	a3, 0
400806ae:	1139      	s32i.n	a3, a1, 4
400806b0:	000906        	j	400806d8 <L12>

400806b3 <L18>:
400806b3:	130c      	movi.n	a3, 1
400806b5:	1139      	s32i.n	a3, a1, 4
400806b7:	000746        	j	400806d8 <L12>

400806ba <L19>:
400806ba:	230c      	movi.n	a3, 2
400806bc:	1139      	s32i.n	a3, a1, 4
400806be:	000586        	j	400806d8 <L12>
400806c1:	000000        	ill

400806c4 <L13>:
400806c4:	000000        	ill
400806c7:	000300        	lsi	f0, a3, 0
400806ca:	ac0000        	lsi	f0, a0, 0x2b0
400806cd:	400806        	j	400906f1 <_etext+0xca5d>
400806d0:	0806b3        	lsi	f11, a6, 32
400806d3:	06ba40        	lsi	f4, a10, 24
400806d6:	4008      	l32i.n	a0, a0, 16

400806d8 <L12>:
400806d8:	1138      	l32i.n	a3, a1, 4
400806da:	f01d      	retw.n
400806dc:	0807c0        	lsx	f0, a7, a12
400806df:	        	srli	a3, a4, 6

400806e0 <_Proc3>:
400806e0:	004136        	entry	a1, 32
400806e3:	0129      	s32i.n	a2, a1, 0
400806e5:	ffb421        	l32r	a2, 400805b8 <_ShowStackAdr+0x30>
400806e8:	0138      	l32i.n	a3, a1, 0
400806ea:	fffc41        	l32r	a4, 400806dc <L12+0x4>
400806ed:	0458      	l32i.n	a5, a4, 0
400806ef:	056d      	mov.n	a6, a5
400806f1:	02a357        	bge	a3, a5, 400806f7 <L22>
400806f4:	004c06        	j	40080828 <L20>

400806f7 <L22>:
400806f7:	1458      	l32i.n	a5, a4, 4
400806f9:	022357        	blt	a3, a5, 400806ff <L23>
400806fc:	004a06        	j	40080828 <L20>

400806ff <L23>:
400806ff:	448b      	addi.n	a4, a4, 8
40080701:	c03360        	sub	a3, a3, a6
40080704:	1133e0        	slli	a3, a3, 2
40080707:	443a      	add.n	a4, a4, a3
40080709:	0448      	l32i.n	a4, a4, 0
4008070b:	0004a0        	jx	a4

4008070e <L25>:
4008070e:	130c      	movi.n	a3, 1
40080710:	1139      	s32i.n	a3, a1, 4
40080712:	004486        	j	40080828 <L20>
40080715:	000000        	ill
40080718:	080750        	lsx	f0, a7, a5
4008071b:	        	slli	a3, a8, 28

4008071c <L27>:
4008071c:	0138      	l32i.n	a3, a1, 0
4008071e:	fffe41        	l32r	a4, 40080718 <L25+0xa>
40080721:	0458      	l32i.n	a5, a4, 0
40080723:	056d      	mov.n	a6, a5
40080725:	02a357        	bge	a3, a5, 4008072b <L32>
40080728:	002206        	j	400807b4 <L30>

4008072b <L32>:
4008072b:	1458      	l32i.n	a5, a4, 4
4008072d:	022357        	blt	a3, a5, 40080733 <L33>
40080730:	002006        	j	400807b4 <L30>

40080733 <L33>:
40080733:	448b      	addi.n	a4, a4, 8
40080735:	c03360        	sub	a3, a3, a6
40080738:	1133e0        	slli	a3, a3, 2
4008073b:	443a      	add.n	a4, a4, a3
4008073d:	0448      	l32i.n	a4, a4, 0
4008073f:	0004a0        	jx	a4

40080742 <L35>:
40080742:	230c      	movi.n	a3, 2
40080744:	1139      	s32i.n	a3, a1, 4
40080746:	001a86        	j	400807b4 <L30>

40080749 <L37>:
40080749:	330c      	movi.n	a3, 3
4008074b:	1139      	s32i.n	a3, a1, 4
4008074d:	0018c6        	j	400807b4 <L30>

40080750 <L31>:
40080750:	000003        	lsi	f0, a0, 0
40080753:	001a00        	movsp	a0, a10
40080756:	420000        	xorb	b0, b0, b0
40080759:	400807        	bnone	a8, a0, 4008079d <L31+0x4d>
4008075c:	0807b4        	lsi	f11, a7, 32
4008075f:	07b440        	lsi	f4, a4, 28
40080762:	4008      	l32i.n	a0, a0, 16
40080764:	0807b4        	lsi	f11, a7, 32
40080767:	07b440        	lsi	f4, a4, 28
4008076a:	4008      	l32i.n	a0, a0, 16
4008076c:	0807b4        	lsi	f11, a7, 32
4008076f:	07b440        	lsi	f4, a4, 28
40080772:	4008      	l32i.n	a0, a0, 16
40080774:	0807b4        	lsi	f11, a7, 32
40080777:	07b440        	lsi	f4, a4, 28
4008077a:	4008      	l32i.n	a0, a0, 16
4008077c:	0807b4        	lsi	f11, a7, 32
4008077f:	07b440        	lsi	f4, a4, 28
40080782:	4008      	l32i.n	a0, a0, 16
40080784:	0807b4        	lsi	f11, a7, 32
40080787:	074240        	lsi	f4, a2, 28
4008078a:	4008      	l32i.n	a0, a0, 16
4008078c:	080742        	l8ui	a4, a7, 8
4008078f:	074240        	lsi	f4, a2, 28
40080792:	4008      	l32i.n	a0, a0, 16
40080794:	080742        	l8ui	a4, a7, 8
40080797:	074240        	lsi	f4, a2, 28
4008079a:	4008      	l32i.n	a0, a0, 16
4008079c:	0807b4        	lsi	f11, a7, 32
4008079f:	07b440        	lsi	f4, a4, 28
400807a2:	4008      	l32i.n	a0, a0, 16
400807a4:	0807b4        	lsi	f11, a7, 32
400807a7:	07b440        	lsi	f4, a4, 28
400807aa:	4008      	l32i.n	a0, a0, 16
400807ac:	0807b4        	lsi	f11, a7, 32
400807af:	074940        	lsi	f4, a9, 28
400807b2:	4008      	l32i.n	a0, a0, 16

400807b4 <L30>:
400807b4:	001c06        	j	40080828 <L20>

400807b7 <L38>:
400807b7:	430c      	movi.n	a3, 4
400807b9:	1139      	s32i.n	a3, a1, 4
400807bb:	001a46        	j	40080828 <L20>
	...

400807c0 <L21>:
400807c0:	000002        	l8ui	a0, a0, 0
400807c3:	001a00        	movsp	a0, a10
400807c6:	1c0000        	lsi	f0, a0, 112
400807c9:	400807        	bnone	a8, a0, 4008080d <L21+0x4d>
400807cc:	071c      	movi.n	a7, 16
400807ce:	4008      	l32i.n	a0, a0, 16
400807d0:	071c      	movi.n	a7, 16
400807d2:	4008      	l32i.n	a0, a0, 16
400807d4:	0807b7        	bnone	a7, a11, 400807e0 <L21+0x20>
400807d7:	07b740        	lsi	f4, a7, 28
400807da:	4008      	l32i.n	a0, a0, 16
400807dc:	0828      	l32i.n	a2, a8, 0
400807de:	4008      	l32i.n	a0, a0, 16
400807e0:	0e          	.byte 0xe
400807e1:	400807        	bnone	a8, a0, 40080825 <L21+0x65>
400807e4:	0e          	.byte 0xe
400807e5:	400807        	bnone	a8, a0, 40080829 <L20+0x1>
400807e8:	0e          	.byte 0xe
400807e9:	400807        	bnone	a8, a0, 4008082d <L20+0x5>
400807ec:	0828      	l32i.n	a2, a8, 0
400807ee:	4008      	l32i.n	a0, a0, 16
400807f0:	0828      	l32i.n	a2, a8, 0
400807f2:	4008      	l32i.n	a0, a0, 16
400807f4:	0828      	l32i.n	a2, a8, 0
400807f6:	4008      	l32i.n	a0, a0, 16
400807f8:	0e          	.byte 0xe
400807f9:	400807        	bnone	a8, a0, 4008083d <_NoLocals+0xd>
400807fc:	071c      	movi.n	a7, 16
400807fe:	4008      	l32i.n	a0, a0, 16
40080800:	071c      	movi.n	a7, 16
40080802:	4008      	l32i.n	a0, a0, 16
40080804:	071c      	movi.n	a7, 16
40080806:	4008      	l32i.n	a0, a0, 16
40080808:	071c      	movi.n	a7, 16
4008080a:	4008      	l32i.n	a0, a0, 16
4008080c:	071c      	movi.n	a7, 16
4008080e:	4008      	l32i.n	a0, a0, 16
40080810:	071c      	movi.n	a7, 16
40080812:	4008      	l32i.n	a0, a0, 16
40080814:	0828      	l32i.n	a2, a8, 0
40080816:	4008      	l32i.n	a0, a0, 16
40080818:	0828      	l32i.n	a2, a8, 0
4008081a:	4008      	l32i.n	a0, a0, 16
4008081c:	0828      	l32i.n	a2, a8, 0
4008081e:	4008      	l32i.n	a0, a0, 16
40080820:	0828      	l32i.n	a2, a8, 0
40080822:	4008      	l32i.n	a0, a0, 16
40080824:	071c      	movi.n	a7, 16
40080826:	4008      	l32i.n	a0, a0, 16

40080828 <L20>:
40080828:	1138      	l32i.n	a3, a1, 4
4008082a:	f01d      	retw.n
4008082c:	0868      	l32i.n	a6, a8, 0
4008082e:	4008      	l32i.n	a0, a0, 16

40080830 <_NoLocals>:
40080830:	004136        	entry	a1, 32
40080833:	0129      	s32i.n	a2, a1, 0
40080835:	ff6021        	l32r	a2, 400805b8 <_ShowStackAdr+0x30>
40080838:	0138      	l32i.n	a3, a1, 0
4008083a:	fffc41        	l32r	a4, 4008082c <L20+0x4>
4008083d:	0458      	l32i.n	a5, a4, 0
4008083f:	056d      	mov.n	a6, a5
40080841:	02a357        	bge	a3, a5, 40080847 <L41>
40080844:	000b06        	j	40080874 <L39>

40080847 <L41>:
40080847:	1458      	l32i.n	a5, a4, 4
40080849:	022357        	blt	a3, a5, 4008084f <L42>
4008084c:	000906        	j	40080874 <L39>

4008084f <L42>:
4008084f:	448b      	addi.n	a4, a4, 8
40080851:	c03360        	sub	a3, a3, a6
40080854:	1133e0        	slli	a3, a3, 2
40080857:	443a      	add.n	a4, a4, a3
40080859:	0448      	l32i.n	a4, a4, 0
4008085b:	0004a0        	jx	a4

4008085e <L44>:
4008085e:	530c      	movi.n	a3, 5
40080860:	2239      	s32i.n	a3, a2, 8
40080862:	000386        	j	40080874 <L39>
40080865:	000000        	ill

40080868 <L40>:
40080868:	000005        	call0	4008086c <L40+0x4>
4008086b:	000600        	lsi	f0, a6, 0
4008086e:	5e0000        	f64rnd	a0, a0, a0, 1
40080871:	0808      	l32i.n	a0, a8, 0
40080873:	        	subx8	a1, a13, a4

40080874 <L39>:
40080874:	f01d      	retw.n
40080876:	b80000        	lsi	f0, a0, 0x2e0
40080879:	0808      	l32i.n	a0, a8, 0
4008087b:	        	srli	a3, a4, 6

4008087c <_Proc4>:
4008087c:	004136        	entry	a1, 32
4008087f:	0129      	s32i.n	a2, a1, 0
40080881:	ff4d21        	l32r	a2, 400805b8 <_ShowStackAdr+0x30>
40080884:	0138      	l32i.n	a3, a1, 0
40080886:	080332        	l8ui	a3, a3, 8
40080889:	fffb41        	l32r	a4, 40080878 <L39+0x4>
4008088c:	0458      	l32i.n	a5, a4, 0
4008088e:	056d      	mov.n	a6, a5
40080890:	02a357        	bge	a3, a5, 40080896 <L47>
40080893:	000b46        	j	400808c4 <L45>

40080896 <L47>:
40080896:	1458      	l32i.n	a5, a4, 4
40080898:	022357        	blt	a3, a5, 4008089e <L48>
4008089b:	000946        	j	400808c4 <L45>

4008089e <L48>:
4008089e:	448b      	addi.n	a4, a4, 8
400808a0:	c03360        	sub	a3, a3, a6
400808a3:	1133e0        	slli	a3, a3, 2
400808a6:	443a      	add.n	a4, a4, a3
400808a8:	0448      	l32i.n	a4, a4, 0
400808aa:	0004a0        	jx	a4

400808ad <L50>:
400808ad:	0138      	l32i.n	a3, a1, 0
400808af:	080332        	l8ui	a3, a3, 8
400808b2:	1139      	s32i.n	a3, a1, 4
400808b4:	000306        	j	400808c4 <L45>
	...

400808b8 <L46>:
400808b8:	000050        	lsi	f5, a0, 0
400808bb:	005100        	simcall
400808be:	ad0000        	lsi	f0, a0, 0x2b4
400808c1:	0808      	l32i.n	a0, a8, 0
400808c3:	        	slli	a3, a8, 12

400808c4 <L45>:
400808c4:	1138      	l32i.n	a3, a1, 4
400808c6:	f01d      	retw.n
400808c8:	080904        	mula.dd.ll.ldinc	m0, a9, m0, m2
400808cb:	        	srli	a3, a4, 6

400808cc <_Proc5>:
400808cc:	004136        	entry	a1, 32
400808cf:	0129      	s32i.n	a2, a1, 0
400808d1:	ff3921        	l32r	a2, 400805b8 <_ShowStackAdr+0x30>
400808d4:	0138      	l32i.n	a3, a1, 0
400808d6:	080332        	l8ui	a3, a3, 8
400808d9:	fffb41        	l32r	a4, 400808c8 <L45+0x4>
400808dc:	0458      	l32i.n	a5, a4, 0
400808de:	056d      	mov.n	a6, a5
400808e0:	02a357        	bge	a3, a5, 400808e6 <L53>
400808e3:	000a46        	j	40080910 <L51>

400808e6 <L53>:
400808e6:	1458      	l32i.n	a5, a4, 4
400808e8:	022357        	blt	a3, a5, 400808ee <L54>
400808eb:	000846        	j	40080910 <L51>

400808ee <L54>:
400808ee:	448b      	addi.n	a4, a4, 8
400808f0:	c03360        	sub	a3, a3, a6
400808f3:	1133e0        	slli	a3, a3, 2
400808f6:	443a      	add.n	a4, a4, a3
400808f8:	0448      	l32i.n	a4, a4, 0
400808fa:	0004a0        	jx	a4

400808fd <L56>:
400808fd:	130c      	movi.n	a3, 1
400808ff:	1139      	s32i.n	a3, a1, 4
40080901:	0002c6        	j	40080910 <L51>

40080904 <L52>:
40080904:	000050        	lsi	f5, a0, 0
40080907:	005100        	simcall
4008090a:	fd0000        	lsi	f0, a0, 0x3f4
4008090d:	0808      	l32i.n	a0, a8, 0
4008090f:	        	slli	a3, a8, 12

40080910 <L51>:
40080910:	1138      	l32i.n	a3, a1, 4
40080912:	f01d      	retw.n
40080914:	fb0090        	f64addc	a9, a0, 0, 0
40080917:	3f          	.byte 0x3f
40080918:	080980        	lsx	f0, a9, a8
4008091b:	        	srai	a3, a4, 6

4008091c <_Run>:
4008091c:	002136        	entry	a1, 16
4008091f:	ff2621        	l32r	a2, 400805b8 <_ShowStackAdr+0x30>
40080922:	fffc61        	l32r	a6, 40080914 <L51+0x4>
40080925:	171c      	movi.n	a7, 17
40080927:	201110        	or	a1, a1, a1
4008092a:	025815        	call4	40082eac <_Out_70D42FFB_p_String>
4008092d:	201110        	or	a1, a1, a1
40080930:	025395        	call4	40082e6c <_Out_70D42FFB_p_Flush>
40080933:	41a062        	movi	a6, 65
40080936:	201110        	or	a1, a1, a1
40080939:	022f95        	call4	40082c34 <_Test_8B10D205_p_First>
4008093c:	234c      	movi.n	a3, 66
4008093e:	004232        	s8i	a3, a2, 0
40080941:	000232        	l8ui	a3, a2, 0
40080944:	fff541        	l32r	a4, 40080918 <L51+0x8>
40080947:	0458      	l32i.n	a5, a4, 0
40080949:	056d      	mov.n	a6, a5
4008094b:	02a357        	bge	a3, a5, 40080951 <L59>
4008094e:	002786        	j	400809f0 <L57>

40080951 <L59>:
40080951:	1458      	l32i.n	a5, a4, 4
40080953:	022357        	blt	a3, a5, 40080959 <L60>
40080956:	002586        	j	400809f0 <L57>

40080959 <L60>:
40080959:	448b      	addi.n	a4, a4, 8
4008095b:	c03360        	sub	a3, a3, a6
4008095e:	1133e0        	slli	a3, a3, 2
40080961:	443a      	add.n	a4, a4, a3
40080963:	0448      	l32i.n	a4, a4, 0
40080965:	0004a0        	jx	a4

40080968 <L62>:
40080968:	133c      	movi.n	a3, 49
4008096a:	014232        	s8i	a3, a2, 1
4008096d:	001fc6        	j	400809f0 <L57>

40080970 <L64>:
40080970:	233c      	movi.n	a3, 50
40080972:	014232        	s8i	a3, a2, 1
40080975:	001dc6        	j	400809f0 <L57>

40080978 <L65>:
40080978:	333c      	movi.n	a3, 51
4008097a:	014232        	s8i	a3, a2, 1
4008097d:	001bc6        	j	400809f0 <L57>

40080980 <L58>:
40080980:	000041        	l32r	a4, 40040980 <_heap_end+0x60980>
40080983:	005b00        	lsi	f0, a11, 0
40080986:	680000        	lsi	f0, a0, 0x1a0
40080989:	0809      	s32i.n	a0, a8, 0
4008098b:	096840        	l32e	a4, a8, -40
4008098e:	4008      	l32i.n	a0, a0, 16
40080990:	0968      	l32i.n	a6, a9, 0
40080992:	4008      	l32i.n	a0, a0, 16
40080994:	0809f0        	lsx	f0, a9, a15
40080997:	09f040        	l32e	a4, a0, -4
4008099a:	4008      	l32i.n	a0, a0, 16
4008099c:	0809f0        	lsx	f0, a9, a15
4008099f:	09f040        	l32e	a4, a0, -4
400809a2:	4008      	l32i.n	a0, a0, 16
400809a4:	0809f0        	lsx	f0, a9, a15
400809a7:	097040        	l32e	a4, a0, -36
400809aa:	4008      	l32i.n	a0, a0, 16
400809ac:	080970        	lsx	f0, a9, a7
400809af:	097040        	l32e	a4, a0, -36
400809b2:	4008      	l32i.n	a0, a0, 16
400809b4:	0809f0        	lsx	f0, a9, a15
400809b7:	09f040        	l32e	a4, a0, -4
400809ba:	4008      	l32i.n	a0, a0, 16
400809bc:	0809f0        	lsx	f0, a9, a15
400809bf:	09f040        	l32e	a4, a0, -4
400809c2:	4008      	l32i.n	a0, a0, 16
400809c4:	0809f0        	lsx	f0, a9, a15
400809c7:	09f040        	l32e	a4, a0, -4
400809ca:	4008      	l32i.n	a0, a0, 16
400809cc:	0809f0        	lsx	f0, a9, a15
400809cf:	09f040        	l32e	a4, a0, -4
400809d2:	4008      	l32i.n	a0, a0, 16
400809d4:	0809f0        	lsx	f0, a9, a15
400809d7:	09f040        	l32e	a4, a0, -4
400809da:	4008      	l32i.n	a0, a0, 16
400809dc:	0809f0        	lsx	f0, a9, a15
400809df:	097840        	l32e	a4, a8, -36
400809e2:	4008      	l32i.n	a0, a0, 16
400809e4:	0809f0        	lsx	f0, a9, a15
400809e7:	09f040        	l32e	a4, a0, -4
400809ea:	4008      	l32i.n	a0, a0, 16
400809ec:	0968      	l32i.n	a6, a9, 0
400809ee:	4008      	l32i.n	a0, a0, 16

400809f0 <L57>:
400809f0:	010262        	l8ui	a6, a2, 1
400809f3:	173c      	movi.n	a7, 49
400809f5:	0b9677        	bne	a6, a7, 40080a04 <L66>
400809f8:	160c      	movi.n	a6, 1
400809fa:	000206        	j	40080a06 <L67>
400809fd:	000000        	ill
40080a00:	0a4c      	movi.n	a10, 64
40080a02:	4008      	l32i.n	a0, a0, 16

40080a04 <L66>:
40080a04:	060c      	movi.n	a6, 0

40080a06 <L67>:
40080a06:	ffc371        	l32r	a7, 40080914 <L51+0x4>
40080a09:	14c772        	addi	a7, a7, 20
40080a0c:	b80c      	movi.n	a8, 11
40080a0e:	201110        	or	a1, a1, a1
40080a11:	023055        	call4	40082d18 <_Test_8B10D205_p_Assert>
40080a14:	334c      	movi.n	a3, 67
40080a16:	fffa41        	l32r	a4, 40080a00 <L57+0x10>
40080a19:	0458      	l32i.n	a5, a4, 0
40080a1b:	056d      	mov.n	a6, a5
40080a1d:	02a357        	bge	a3, a5, 40080a23 <L70>
40080a20:	004506        	j	40080b38 <L68>

40080a23 <L70>:
40080a23:	1458      	l32i.n	a5, a4, 4
40080a25:	022357        	blt	a3, a5, 40080a2b <L71>
40080a28:	004306        	j	40080b38 <L68>

40080a2b <L71>:
40080a2b:	448b      	addi.n	a4, a4, 8
40080a2d:	c03360        	sub	a3, a3, a6
40080a30:	1133e0        	slli	a3, a3, 2
40080a33:	443a      	add.n	a4, a4, a3
40080a35:	0448      	l32i.n	a4, a4, 0
40080a37:	0004a0        	jx	a4

40080a3a <L73>:
40080a3a:	433c      	movi.n	a3, 52
40080a3c:	004232        	s8i	a3, a2, 0
40080a3f:	003d46        	j	40080b38 <L68>

40080a42 <L74>:
40080a42:	533c      	movi.n	a3, 53
40080a44:	004232        	s8i	a3, a2, 0
40080a47:	003b46        	j	40080b38 <L68>
	...

40080a4c <L69>:
40080a4c:	000022        	l8ui	a2, a0, 0
40080a4f:	005b00        	lsi	f0, a11, 0
40080a52:	3a0000        	lsi	f0, a0, 232
40080a55:	080a      	add.n	a0, a8, a0
40080a57:	0b3840        	lsi	f4, a8, 44
40080a5a:	4008      	l32i.n	a0, a0, 16
40080a5c:	0b38      	l32i.n	a3, a11, 0
40080a5e:	4008      	l32i.n	a0, a0, 16
40080a60:	0b38      	l32i.n	a3, a11, 0
40080a62:	4008      	l32i.n	a0, a0, 16
40080a64:	0b38      	l32i.n	a3, a11, 0
40080a66:	4008      	l32i.n	a0, a0, 16
40080a68:	0b38      	l32i.n	a3, a11, 0
40080a6a:	4008      	l32i.n	a0, a0, 16
40080a6c:	0b38      	l32i.n	a3, a11, 0
40080a6e:	4008      	l32i.n	a0, a0, 16
40080a70:	0b38      	l32i.n	a3, a11, 0
40080a72:	4008      	l32i.n	a0, a0, 16
40080a74:	0b38      	l32i.n	a3, a11, 0
40080a76:	4008      	l32i.n	a0, a0, 16
40080a78:	0b38      	l32i.n	a3, a11, 0
40080a7a:	4008      	l32i.n	a0, a0, 16
40080a7c:	0b38      	l32i.n	a3, a11, 0
40080a7e:	4008      	l32i.n	a0, a0, 16
40080a80:	0b38      	l32i.n	a3, a11, 0
40080a82:	4008      	l32i.n	a0, a0, 16
40080a84:	0b38      	l32i.n	a3, a11, 0
40080a86:	4008      	l32i.n	a0, a0, 16
40080a88:	0b38      	l32i.n	a3, a11, 0
40080a8a:	4008      	l32i.n	a0, a0, 16
40080a8c:	0b38      	l32i.n	a3, a11, 0
40080a8e:	4008      	l32i.n	a0, a0, 16
40080a90:	0b38      	l32i.n	a3, a11, 0
40080a92:	4008      	l32i.n	a0, a0, 16
40080a94:	0b38      	l32i.n	a3, a11, 0
40080a96:	4008      	l32i.n	a0, a0, 16
40080a98:	0b38      	l32i.n	a3, a11, 0
40080a9a:	4008      	l32i.n	a0, a0, 16
40080a9c:	0b38      	l32i.n	a3, a11, 0
40080a9e:	4008      	l32i.n	a0, a0, 16
40080aa0:	0b38      	l32i.n	a3, a11, 0
40080aa2:	4008      	l32i.n	a0, a0, 16
40080aa4:	0b38      	l32i.n	a3, a11, 0
40080aa6:	4008      	l32i.n	a0, a0, 16
40080aa8:	0b38      	l32i.n	a3, a11, 0
40080aaa:	4008      	l32i.n	a0, a0, 16
40080aac:	0b38      	l32i.n	a3, a11, 0
40080aae:	4008      	l32i.n	a0, a0, 16
40080ab0:	0b38      	l32i.n	a3, a11, 0
40080ab2:	4008      	l32i.n	a0, a0, 16
40080ab4:	0b38      	l32i.n	a3, a11, 0
40080ab6:	4008      	l32i.n	a0, a0, 16
40080ab8:	0b38      	l32i.n	a3, a11, 0
40080aba:	4008      	l32i.n	a0, a0, 16
40080abc:	0b38      	l32i.n	a3, a11, 0
40080abe:	4008      	l32i.n	a0, a0, 16
40080ac0:	0b38      	l32i.n	a3, a11, 0
40080ac2:	4008      	l32i.n	a0, a0, 16
40080ac4:	0b38      	l32i.n	a3, a11, 0
40080ac6:	4008      	l32i.n	a0, a0, 16
40080ac8:	0b38      	l32i.n	a3, a11, 0
40080aca:	4008      	l32i.n	a0, a0, 16
40080acc:	0b38      	l32i.n	a3, a11, 0
40080ace:	4008      	l32i.n	a0, a0, 16
40080ad0:	080a42        	l8ui	a4, a10, 8
40080ad3:	0a4240        	add.s	f4, f2, f4
40080ad6:	4008      	l32i.n	a0, a0, 16
40080ad8:	080a42        	l8ui	a4, a10, 8
40080adb:	0b3840        	lsi	f4, a8, 44
40080ade:	4008      	l32i.n	a0, a0, 16
40080ae0:	0b38      	l32i.n	a3, a11, 0
40080ae2:	4008      	l32i.n	a0, a0, 16
40080ae4:	0b38      	l32i.n	a3, a11, 0
40080ae6:	4008      	l32i.n	a0, a0, 16
40080ae8:	0b38      	l32i.n	a3, a11, 0
40080aea:	4008      	l32i.n	a0, a0, 16
40080aec:	0b38      	l32i.n	a3, a11, 0
40080aee:	4008      	l32i.n	a0, a0, 16
40080af0:	0b38      	l32i.n	a3, a11, 0
40080af2:	4008      	l32i.n	a0, a0, 16
40080af4:	0b38      	l32i.n	a3, a11, 0
40080af6:	4008      	l32i.n	a0, a0, 16
40080af8:	0b38      	l32i.n	a3, a11, 0
40080afa:	4008      	l32i.n	a0, a0, 16
40080afc:	0b38      	l32i.n	a3, a11, 0
40080afe:	4008      	l32i.n	a0, a0, 16
40080b00:	0b38      	l32i.n	a3, a11, 0
40080b02:	4008      	l32i.n	a0, a0, 16
40080b04:	0b38      	l32i.n	a3, a11, 0
40080b06:	4008      	l32i.n	a0, a0, 16
40080b08:	0b38      	l32i.n	a3, a11, 0
40080b0a:	4008      	l32i.n	a0, a0, 16
40080b0c:	0b38      	l32i.n	a3, a11, 0
40080b0e:	4008      	l32i.n	a0, a0, 16
40080b10:	0b38      	l32i.n	a3, a11, 0
40080b12:	4008      	l32i.n	a0, a0, 16
40080b14:	0b38      	l32i.n	a3, a11, 0
40080b16:	4008      	l32i.n	a0, a0, 16
40080b18:	0b38      	l32i.n	a3, a11, 0
40080b1a:	4008      	l32i.n	a0, a0, 16
40080b1c:	0b38      	l32i.n	a3, a11, 0
40080b1e:	4008      	l32i.n	a0, a0, 16
40080b20:	0b38      	l32i.n	a3, a11, 0
40080b22:	4008      	l32i.n	a0, a0, 16
40080b24:	0b38      	l32i.n	a3, a11, 0
40080b26:	4008      	l32i.n	a0, a0, 16
40080b28:	0b38      	l32i.n	a3, a11, 0
40080b2a:	4008      	l32i.n	a0, a0, 16
40080b2c:	0b38      	l32i.n	a3, a11, 0
40080b2e:	4008      	l32i.n	a0, a0, 16
40080b30:	0b38      	l32i.n	a3, a11, 0
40080b32:	4008      	l32i.n	a0, a0, 16
40080b34:	080a42        	l8ui	a4, a10, 8
40080b37:	        	andb	b6, b2, b4

40080b38 <L68>:
40080b38:	000262        	l8ui	a6, a2, 0
40080b3b:	573c      	movi.n	a7, 53
40080b3d:	0b9677        	bne	a6, a7, 40080b4c <L76>
40080b40:	160c      	movi.n	a6, 1
40080b42:	000206        	j	40080b4e <L77>
40080b45:	000000        	ill
40080b48:	0b9c      	beqz.n	a11, 40080b5c <L77+0xe>
40080b4a:	4008      	l32i.n	a0, a0, 16

40080b4c <L76>:
40080b4c:	060c      	movi.n	a6, 0

40080b4e <L77>:
40080b4e:	ff7171        	l32r	a7, 40080914 <L51+0x4>
40080b51:	20c772        	addi	a7, a7, 32
40080b54:	b80c      	movi.n	a8, 11
40080b56:	201110        	or	a1, a1, a1
40080b59:	021bd5        	call4	40082d18 <_Test_8B10D205_p_Assert>
40080b5c:	230c      	movi.n	a3, 2
40080b5e:	1239      	s32i.n	a3, a2, 4
40080b60:	1238      	l32i.n	a3, a2, 4
40080b62:	fff941        	l32r	a4, 40080b48 <L68+0x10>
40080b65:	0458      	l32i.n	a5, a4, 0
40080b67:	056d      	mov.n	a6, a5
40080b69:	02a357        	bge	a3, a5, 40080b6f <L80>
40080b6c:	002506        	j	40080c04 <L78>

40080b6f <L80>:
40080b6f:	1458      	l32i.n	a5, a4, 4
40080b71:	022357        	blt	a3, a5, 40080b77 <L81>
40080b74:	002306        	j	40080c04 <L78>

40080b77 <L81>:
40080b77:	448b      	addi.n	a4, a4, 8
40080b79:	c03360        	sub	a3, a3, a6
40080b7c:	1133e0        	slli	a3, a3, 2
40080b7f:	443a      	add.n	a4, a4, a3
40080b81:	0448      	l32i.n	a4, a4, 0
40080b83:	0004a0        	jx	a4

40080b86 <L83>:
40080b86:	130c      	movi.n	a3, 1
40080b88:	2239      	s32i.n	a3, a2, 8
40080b8a:	001d86        	j	40080c04 <L78>

40080b8d <L85>:
40080b8d:	230c      	movi.n	a3, 2
40080b8f:	2239      	s32i.n	a3, a2, 8
40080b91:	001bc6        	j	40080c04 <L78>

40080b94 <L88>:
40080b94:	330c      	movi.n	a3, 3
40080b96:	2239      	s32i.n	a3, a2, 8
40080b98:	001a06        	j	40080c04 <L78>
	...

40080b9c <L79>:
40080b9c:	000002        	l8ui	a0, a0, 0
40080b9f:	001a00        	movsp	a0, a10
40080ba2:	8d0000        	lsi	f0, a0, 0x234
40080ba5:	080b      	addi.n	a0, a8, -1
40080ba7:	0b8d40        	lsi	f4, a13, 44
40080baa:	4008      	l32i.n	a0, a0, 16
40080bac:	0b8d      	mov.n	a8, a11
40080bae:	4008      	l32i.n	a0, a0, 16
40080bb0:	080b94        	lsi	f9, a11, 32
40080bb3:	0b9440        	lsi	f4, a4, 44
40080bb6:	4008      	l32i.n	a0, a0, 16
40080bb8:	080c04        	mula.dd.ll.ldinc	m0, a12, m0, m2
40080bbb:	0b8640        	lsi	f4, a6, 44
40080bbe:	4008      	l32i.n	a0, a0, 16
40080bc0:	080b86        	j	40082bf2 <L27+0x40>
40080bc3:	0b8640        	lsi	f4, a6, 44
40080bc6:	4008      	l32i.n	a0, a0, 16
40080bc8:	080c04        	mula.dd.ll.ldinc	m0, a12, m0, m2
40080bcb:	0c0440        	lsi	f4, a4, 48
40080bce:	4008      	l32i.n	a0, a0, 16
40080bd0:	080c04        	mula.dd.ll.ldinc	m0, a12, m0, m2
40080bd3:	0b8640        	lsi	f4, a6, 44
40080bd6:	4008      	l32i.n	a0, a0, 16
40080bd8:	0b8d      	mov.n	a8, a11
40080bda:	4008      	l32i.n	a0, a0, 16
40080bdc:	0b8d      	mov.n	a8, a11
40080bde:	4008      	l32i.n	a0, a0, 16
40080be0:	0b8d      	mov.n	a8, a11
40080be2:	4008      	l32i.n	a0, a0, 16
40080be4:	0b8d      	mov.n	a8, a11
40080be6:	4008      	l32i.n	a0, a0, 16
40080be8:	0b8d      	mov.n	a8, a11
40080bea:	4008      	l32i.n	a0, a0, 16
40080bec:	0b8d      	mov.n	a8, a11
40080bee:	4008      	l32i.n	a0, a0, 16
40080bf0:	080c04        	mula.dd.ll.ldinc	m0, a12, m0, m2
40080bf3:	0c0440        	lsi	f4, a4, 48
40080bf6:	4008      	l32i.n	a0, a0, 16
40080bf8:	080c04        	mula.dd.ll.ldinc	m0, a12, m0, m2
40080bfb:	0c0440        	lsi	f4, a4, 48
40080bfe:	4008      	l32i.n	a0, a0, 16
40080c00:	0b8d      	mov.n	a8, a11
40080c02:	4008      	l32i.n	a0, a0, 16

40080c04 <L78>:
40080c04:	2268      	l32i.n	a6, a2, 8
40080c06:	270c      	movi.n	a7, 2
40080c08:	049677        	bne	a6, a7, 40080c10 <L89>
40080c0b:	160c      	movi.n	a6, 1
40080c0d:	000046        	j	40080c12 <L90>

40080c10 <L89>:
40080c10:	060c      	movi.n	a6, 0

40080c12 <L90>:
40080c12:	ff4071        	l32r	a7, 40080914 <L51+0x4>
40080c15:	2cc772        	addi	a7, a7, 44
40080c18:	b80c      	movi.n	a8, 11
40080c1a:	201110        	or	a1, a1, a1
40080c1d:	020f95        	call4	40082d18 <_Test_8B10D205_p_Assert>
40080c20:	9a0c      	movi.n	a10, 9
40080c22:	ff99e5        	call8	400805c0 <_Proc1>
40080c25:	0b6d      	mov.n	a6, a11
40080c27:	170c      	movi.n	a7, 1
40080c29:	079677        	bne	a6, a7, 40080c34 <L91>
40080c2c:	160c      	movi.n	a6, 1
40080c2e:	000106        	j	40080c36 <L92>
40080c31:	000000        	ill

40080c34 <L91>:
40080c34:	060c      	movi.n	a6, 0

40080c36 <L92>:
40080c36:	ff3771        	l32r	a7, 40080914 <L51+0x4>
40080c39:	38c772        	addi	a7, a7, 56
40080c3c:	b80c      	movi.n	a8, 11
40080c3e:	201110        	or	a1, a1, a1
40080c41:	020d55        	call4	40082d18 <_Test_8B10D205_p_Assert>
40080c44:	4a0c      	movi.n	a10, 4
40080c46:	ff97a5        	call8	400805c0 <_Proc1>
40080c49:	0b6d      	mov.n	a6, a11
40080c4b:	270c      	movi.n	a7, 2
40080c4d:	079677        	bne	a6, a7, 40080c58 <L93>
40080c50:	160c      	movi.n	a6, 1
40080c52:	000106        	j	40080c5a <L94>
40080c55:	000000        	ill

40080c58 <L93>:
40080c58:	060c      	movi.n	a6, 0

40080c5a <L94>:
40080c5a:	ff2e71        	l32r	a7, 40080914 <L51+0x4>
40080c5d:	44c772        	addi	a7, a7, 68
40080c60:	b80c      	movi.n	a8, 11
40080c62:	201110        	or	a1, a1, a1
40080c65:	020b15        	call4	40082d18 <_Test_8B10D205_p_Assert>
40080c68:	6a0c      	movi.n	a10, 6
40080c6a:	ff9565        	call8	400805c0 <_Proc1>
40080c6d:	0b6d      	mov.n	a6, a11
40080c6f:	370c      	movi.n	a7, 3
40080c71:	079677        	bne	a6, a7, 40080c7c <L95>
40080c74:	160c      	movi.n	a6, 1
40080c76:	000106        	j	40080c7e <L96>
40080c79:	000000        	ill

40080c7c <L95>:
40080c7c:	060c      	movi.n	a6, 0

40080c7e <L96>:
40080c7e:	ff2571        	l32r	a7, 40080914 <L51+0x4>
40080c81:	50c772        	addi	a7, a7, 80
40080c84:	b80c      	movi.n	a8, 11
40080c86:	201110        	or	a1, a1, a1
40080c89:	0208d5        	call4	40082d18 <_Test_8B10D205_p_Assert>
40080c8c:	ea1c      	movi.n	a10, 30
40080c8e:	ff9325        	call8	400805c0 <_Proc1>
40080c91:	0b6d      	mov.n	a6, a11
40080c93:	f77c      	movi.n	a7, -1
40080c95:	079677        	bne	a6, a7, 40080ca0 <L97>
40080c98:	160c      	movi.n	a6, 1
40080c9a:	000106        	j	40080ca2 <L98>
40080c9d:	000000        	ill

40080ca0 <L97>:
40080ca0:	060c      	movi.n	a6, 0

40080ca2 <L98>:
40080ca2:	ff1c71        	l32r	a7, 40080914 <L51+0x4>
40080ca5:	5cc772        	addi	a7, a7, 92
40080ca8:	b80c      	movi.n	a8, 11
40080caa:	201110        	or	a1, a1, a1
40080cad:	020695        	call4	40082d18 <_Test_8B10D205_p_Assert>
40080cb0:	1a0c      	movi.n	a10, 1
40080cb2:	ff90e5        	call8	400805c0 <_Proc1>
40080cb5:	0b6d      	mov.n	a6, a11
40080cb7:	f77c      	movi.n	a7, -1
40080cb9:	079677        	bne	a6, a7, 40080cc4 <L99>
40080cbc:	160c      	movi.n	a6, 1
40080cbe:	000106        	j	40080cc6 <L100>
40080cc1:	000000        	ill

40080cc4 <L99>:
40080cc4:	060c      	movi.n	a6, 0

40080cc6 <L100>:
40080cc6:	ff1371        	l32r	a7, 40080914 <L51+0x4>
40080cc9:	68c772        	addi	a7, a7, 104
40080ccc:	0ba082        	movi	a8, 11
40080ccf:	201110        	or	a1, a1, a1
40080cd2:	020455        	call4	40082d18 <_Test_8B10D205_p_Assert>
40080cd5:	ff9a65        	call8	4008067c <_Proc2>
40080cd8:	0b6d      	mov.n	a6, a11
40080cda:	170c      	movi.n	a7, 1
40080cdc:	049677        	bne	a6, a7, 40080ce4 <L101>
40080cdf:	160c      	movi.n	a6, 1
40080ce1:	000046        	j	40080ce6 <L102>

40080ce4 <L101>:
40080ce4:	060c      	movi.n	a6, 0

40080ce6 <L102>:
40080ce6:	ff0b71        	l32r	a7, 40080914 <L51+0x4>
40080ce9:	74c772        	addi	a7, a7, 116
40080cec:	b80c      	movi.n	a8, 11
40080cee:	201110        	or	a1, a1, a1
40080cf1:	020255        	call4	40082d18 <_Test_8B10D205_p_Assert>
40080cf4:	9a0c      	movi.n	a10, 9
40080cf6:	ff9ea5        	call8	400806e0 <_Proc3>
40080cf9:	0b6d      	mov.n	a6, a11
40080cfb:	170c      	movi.n	a7, 1
40080cfd:	079677        	bne	a6, a7, 40080d08 <L103>
40080d00:	160c      	movi.n	a6, 1
40080d02:	000106        	j	40080d0a <L104>
40080d05:	000000        	ill

40080d08 <L103>:
40080d08:	060c      	movi.n	a6, 0

40080d0a <L104>:
40080d0a:	ff0271        	l32r	a7, 40080914 <L51+0x4>
40080d0d:	80a082        	movi	a8, 128
40080d10:	807780        	add	a7, a7, a8
40080d13:	0ba082        	movi	a8, 11
40080d16:	201110        	or	a1, a1, a1
40080d19:	01ffd5        	call4	40082d18 <_Test_8B10D205_p_Assert>
40080d1c:	2a1c      	movi.n	a10, 18
40080d1e:	ff9c25        	call8	400806e0 <_Proc3>
40080d21:	0b6d      	mov.n	a6, a11
40080d23:	270c      	movi.n	a7, 2
40080d25:	079677        	bne	a6, a7, 40080d30 <L105>
40080d28:	160c      	movi.n	a6, 1
40080d2a:	000106        	j	40080d32 <L106>
40080d2d:	000000        	ill

40080d30 <L105>:
40080d30:	060c      	movi.n	a6, 0

40080d32 <L106>:
40080d32:	fef871        	l32r	a7, 40080914 <L51+0x4>
40080d35:	8ca082        	movi	a8, 140
40080d38:	807780        	add	a7, a7, a8
40080d3b:	0ba082        	movi	a8, 11
40080d3e:	201110        	or	a1, a1, a1
40080d41:	01fd55        	call4	40082d18 <_Test_8B10D205_p_Assert>
40080d44:	9a1c      	movi.n	a10, 25
40080d46:	ff99a5        	call8	400806e0 <_Proc3>
40080d49:	0b6d      	mov.n	a6, a11
40080d4b:	370c      	movi.n	a7, 3
40080d4d:	079677        	bne	a6, a7, 40080d58 <L107>
40080d50:	160c      	movi.n	a6, 1
40080d52:	000106        	j	40080d5a <L108>
40080d55:	000000        	ill

40080d58 <L107>:
40080d58:	060c      	movi.n	a6, 0

40080d5a <L108>:
40080d5a:	feee71        	l32r	a7, 40080914 <L51+0x4>
40080d5d:	98a082        	movi	a8, 152
40080d60:	807780        	add	a7, a7, a8
40080d63:	0ba082        	movi	a8, 11
40080d66:	201110        	or	a1, a1, a1
40080d69:	01fad5        	call4	40082d18 <_Test_8B10D205_p_Assert>
40080d6c:	6a0c      	movi.n	a10, 6
40080d6e:	ff9725        	call8	400806e0 <_Proc3>
40080d71:	0b6d      	mov.n	a6, a11
40080d73:	470c      	movi.n	a7, 4
40080d75:	079677        	bne	a6, a7, 40080d80 <L109>
40080d78:	160c      	movi.n	a6, 1
40080d7a:	000106        	j	40080d82 <L110>
40080d7d:	000000        	ill

40080d80 <L109>:
40080d80:	060c      	movi.n	a6, 0

40080d82 <L110>:
40080d82:	fee471        	l32r	a7, 40080914 <L51+0x4>
40080d85:	a4a082        	movi	a8, 164
40080d88:	807780        	add	a7, a7, a8
40080d8b:	0ba082        	movi	a8, 11
40080d8e:	201110        	or	a1, a1, a1
40080d91:	01f855        	call4	40082d18 <_Test_8B10D205_p_Assert>
40080d94:	560c      	movi.n	a6, 5
40080d96:	ffa995        	call4	40080830 <_NoLocals>
40080d99:	2268      	l32i.n	a6, a2, 8
40080d9b:	570c      	movi.n	a7, 5
40080d9d:	079677        	bne	a6, a7, 40080da8 <L111>
40080da0:	160c      	movi.n	a6, 1
40080da2:	000106        	j	40080daa <L112>
40080da5:	000000        	ill

40080da8 <L111>:
40080da8:	060c      	movi.n	a6, 0

40080daa <L112>:
40080daa:	feda71        	l32r	a7, 40080914 <L51+0x4>
40080dad:	b0a082        	movi	a8, 176
40080db0:	778a      	add.n	a7, a7, a8
40080db2:	b80c      	movi.n	a8, 11
40080db4:	201110        	or	a1, a1, a1
40080db7:	01f615        	call4	40082d18 <_Test_8B10D205_p_Assert>
40080dba:	035c      	movi.n	a3, 80
40080dbc:	144232        	s8i	a3, a2, 20
40080dbf:	a2cb      	addi.n	a10, a2, 12
40080dc1:	ffaba5        	call8	4008087c <_Proc4>
40080dc4:	0b6d      	mov.n	a6, a11
40080dc6:	075c      	movi.n	a7, 80
40080dc8:	049677        	bne	a6, a7, 40080dd0 <L113>
40080dcb:	160c      	movi.n	a6, 1
40080dcd:	000046        	j	40080dd2 <L114>

40080dd0 <L113>:
40080dd0:	060c      	movi.n	a6, 0

40080dd2 <L114>:
40080dd2:	fed071        	l32r	a7, 40080914 <L51+0x4>
40080dd5:	bca082        	movi	a8, 188
40080dd8:	807780        	add	a7, a7, a8
40080ddb:	0ba082        	movi	a8, 11
40080dde:	201110        	or	a1, a1, a1
40080de1:	01f355        	call4	40082d18 <_Test_8B10D205_p_Assert>
40080de4:	a2cb      	addi.n	a10, a2, 12
40080de6:	ffae65        	call8	400808cc <_Proc5>
40080de9:	0b6d      	mov.n	a6, a11
40080deb:	170c      	movi.n	a7, 1
40080ded:	0f9677        	bne	a6, a7, 40080e00 <L115>
40080df0:	160c      	movi.n	a6, 1
40080df2:	000306        	j	40080e02 <L116>
40080df5:	000000        	ill
40080df8:	fb0040        	f64addc	a4, a0, 0, 0
40080dfb:	3f          	.byte 0x3f
40080dfc:	200000        	or	a0, a0, a0
40080dff:	        	lsi	f4, a12, 24

40080e00 <L115>:
40080e00:	060c      	movi.n	a6, 0

40080e02 <L116>:
40080e02:	fec471        	l32r	a7, 40080914 <L51+0x4>
40080e05:	c8a082        	movi	a8, 200
40080e08:	807780        	add	a7, a7, a8
40080e0b:	0ba082        	movi	a8, 11
40080e0e:	201110        	or	a1, a1, a1
40080e11:	01f055        	call4	40082d18 <_Test_8B10D205_p_Assert>
40080e14:	1cc272        	addi	a7, a2, 28
40080e17:	fff881        	l32r	a8, 40080df8 <L114+0x26>
40080e1a:	28c882        	addi	a8, a8, 40
40080e1d:	160c      	movi.n	a6, 1
40080e1f:	201110        	or	a1, a1, a1
40080e22:	02c1d5        	call4	40083a40 <_OberonSyscallHandler>
40080e25:	fde421        	l32r	a2, 400805b8 <_ShowStackAdr+0x30>
40080e28:	7238      	l32i.n	a3, a2, 28
40080e2a:	6239      	s32i.n	a3, a2, 24
40080e2c:	6238      	l32i.n	a3, a2, 24
40080e2e:	140c      	movi.n	a4, 1
40080e30:	0349      	s32i.n	a4, a3, 0
40080e32:	6238      	l32i.n	a3, a2, 24
40080e34:	040c      	movi.n	a4, 0
40080e36:	045d      	mov.n	a5, a4
40080e38:	c38c      	beqz.n	a3, 40080e48 <L118>
40080e3a:	f8c342        	addi	a4, a3, -8
40080e3d:	0448      	l32i.n	a4, a4, 0
40080e3f:	012442        	l32i	a4, a4, 4
40080e42:	ffed51        	l32r	a5, 40080df8 <L114+0x26>
40080e45:	14c552        	addi	a5, a5, 20

40080e48 <L118>:
40080e48:	109347        	bne	a3, a4, 40080e5c <L119>
40080e4b:	6238      	l32i.n	a3, a2, 24
40080e4d:	ffeb41        	l32r	a4, 40080dfc <L114+0x2a>
40080e50:	1349      	s32i.n	a4, a3, 4
40080e52:	030c      	movi.n	a3, 0
40080e54:	1239      	s32i.n	a3, a2, 4
40080e56:	0018c6        	j	40080ebd <L117>
40080e59:	000000        	ill

40080e5c <L119>:
40080e5c:	6238      	l32i.n	a3, a2, 24
40080e5e:	040c      	movi.n	a4, 0
40080e60:	045d      	mov.n	a5, a4
40080e62:	b38c      	beqz.n	a3, 40080e71 <L120>
40080e64:	f8c342        	addi	a4, a3, -8
40080e67:	0448      	l32i.n	a4, a4, 0
40080e69:	1448      	l32i.n	a4, a4, 4
40080e6b:	ffe351        	l32r	a5, 40080df8 <L114+0x26>
40080e6e:	28c552        	addi	a5, a5, 40

40080e71 <L120>:
40080e71:	239347        	bne	a3, a4, 40080e98 <L121>
40080e74:	6238      	l32i.n	a3, a2, 24
40080e76:	6248      	l32i.n	a4, a2, 24
40080e78:	6258      	l32i.n	a5, a2, 24
40080e7a:	0448      	l32i.n	a4, a4, 0
40080e7c:	1558      	l32i.n	a5, a5, 4
40080e7e:	445a      	add.n	a4, a4, a5
40080e80:	6258      	l32i.n	a5, a2, 24
40080e82:	1558      	l32i.n	a5, a5, 4
40080e84:	360c      	movi.n	a6, 3
40080e86:	d25560        	quos	a5, a5, a6
40080e89:	445a      	add.n	a4, a4, a5
40080e8b:	1349      	s32i.n	a4, a3, 4
40080e8d:	6238      	l32i.n	a3, a2, 24
40080e8f:	0338      	l32i.n	a3, a3, 0
40080e91:	1239      	s32i.n	a3, a2, 4
40080e93:	000986        	j	40080ebd <L117>
	...

40080e98 <L121>:
40080e98:	6238      	l32i.n	a3, a2, 24
40080e9a:	040c      	movi.n	a4, 0
40080e9c:	045d      	mov.n	a5, a4
40080e9e:	b38c      	beqz.n	a3, 40080ead <L122>
40080ea0:	f8c342        	addi	a4, a3, -8
40080ea3:	0448      	l32i.n	a4, a4, 0
40080ea5:	1448      	l32i.n	a4, a4, 4
40080ea7:	ffd451        	l32r	a5, 40080df8 <L114+0x26>
40080eaa:	3cc552        	addi	a5, a5, 60

40080ead <L122>:
40080ead:	0c9347        	bne	a3, a4, 40080ebd <L117>
40080eb0:	6238      	l32i.n	a3, a2, 24
40080eb2:	540c      	movi.n	a4, 5
40080eb4:	1349      	s32i.n	a4, a3, 4
40080eb6:	230c      	movi.n	a3, 2
40080eb8:	1239      	s32i.n	a3, a2, 4
40080eba:	ffffc6        	j	40080ebd <L117>

40080ebd <L117>:
40080ebd:	1268      	l32i.n	a6, a2, 4
40080ebf:	170c      	movi.n	a7, 1
40080ec1:	079677        	bne	a6, a7, 40080ecc <L124>
40080ec4:	160c      	movi.n	a6, 1
40080ec6:	000106        	j	40080ece <L125>
40080ec9:	000000        	ill

40080ecc <L124>:
40080ecc:	060c      	movi.n	a6, 0

40080ece <L125>:
40080ece:	fe9171        	l32r	a7, 40080914 <L51+0x4>
40080ed1:	d4a082        	movi	a8, 212
40080ed4:	807780        	add	a7, a7, a8
40080ed7:	0aa082        	movi	a8, 10
40080eda:	201110        	or	a1, a1, a1
40080edd:	01e395        	call4	40082d18 <_Test_8B10D205_p_Assert>
40080ee0:	201110        	or	a1, a1, a1
40080ee3:	01d415        	call4	40082c24 <_Test_8B10D205_p_End>
40080ee6:	fe8b61        	l32r	a6, 40080914 <L51+0x4>
40080ee9:	e0a072        	movi	a7, 224
40080eec:	806670        	add	a6, a6, a7
40080eef:	05a072        	movi	a7, 5
40080ef2:	201110        	or	a1, a1, a1
40080ef5:	01fb55        	call4	40082eac <_Out_70D42FFB_p_String>
40080ef8:	201110        	or	a1, a1, a1
40080efb:	024915        	call4	4008338c <_Out_70D42FFB_p_Ln>
40080efe:	f01d      	retw.n
40080f00:	0d98      	l32i.n	a9, a13, 0
40080f02:	3ffb      	addi.n	a3, a15, 15
40080f04:	1048      	l32i.n	a4, a0, 4
40080f06:	4008      	l32i.n	a0, a0, 16

40080f08 <_next>:
40080f08:	008136        	entry	a1, 64
40080f0b:	0129      	s32i.n	a2, a1, 0
40080f0d:	1139      	s32i.n	a3, a1, 4
40080f0f:	2149      	s32i.n	a4, a1, 8
40080f11:	fffb21        	l32r	a2, 40080f00 <L125+0x32>
40080f14:	030c      	movi.n	a3, 0
40080f16:	8139      	s32i.n	a3, a1, 32
40080f18:	1138      	l32i.n	a3, a1, 4
40080f1a:	4139      	s32i.n	a3, a1, 16
40080f1c:	2138      	l32i.n	a3, a1, 8
40080f1e:	0338      	l32i.n	a3, a3, 0
40080f20:	4148      	l32i.n	a4, a1, 16
40080f22:	022347        	blt	a3, a4, 40080f28 <_next+0x20>
40080f25:	0059c6        	j	40081090 <L1>
40080f28:	2138      	l32i.n	a3, a1, 8
40080f2a:	0338      	l32i.n	a3, a3, 0
40080f2c:	0148      	l32i.n	a4, a1, 0
40080f2e:	343a      	add.n	a3, a4, a3
40080f30:	000332        	l8ui	a3, a3, 0
40080f33:	5139      	s32i.n	a3, a1, 20
40080f35:	5138      	l32i.n	a3, a1, 20
40080f37:	213430        	srai	a3, a3, 4
40080f3a:	3139      	s32i.n	a3, a1, 12
40080f3c:	3138      	l32i.n	a3, a1, 12
40080f3e:	fff141        	l32r	a4, 40080f04 <L125+0x36>
40080f41:	0458      	l32i.n	a5, a4, 0
40080f43:	056d      	mov.n	a6, a5
40080f45:	02a357        	bge	a3, a5, 40080f4b <L4>
40080f48:	005106        	j	40081090 <L1>

40080f4b <L4>:
40080f4b:	1458      	l32i.n	a5, a4, 4
40080f4d:	022357        	blt	a3, a5, 40080f53 <L5>
40080f50:	004f06        	j	40081090 <L1>

40080f53 <L5>:
40080f53:	448b      	addi.n	a4, a4, 8
40080f55:	c03360        	sub	a3, a3, a6
40080f58:	1133e0        	slli	a3, a3, 2
40080f5b:	443a      	add.n	a4, a4, a3
40080f5d:	0448      	l32i.n	a4, a4, 0
40080f5f:	0004a0        	jx	a4

40080f62 <L7>:
40080f62:	5138      	l32i.n	a3, a1, 20
40080f64:	8139      	s32i.n	a3, a1, 32
40080f66:	2138      	l32i.n	a3, a1, 8
40080f68:	0348      	l32i.n	a4, a3, 0
40080f6a:	441b      	addi.n	a4, a4, 1
40080f6c:	0349      	s32i.n	a4, a3, 0
40080f6e:	004786        	j	40081090 <L1>

40080f71 <L8>:
40080f71:	2138      	l32i.n	a3, a1, 8
40080f73:	0338      	l32i.n	a3, a3, 0
40080f75:	331b      	addi.n	a3, a3, 1
40080f77:	4148      	l32i.n	a4, a1, 16
40080f79:	40a347        	bge	a3, a4, 40080fbd <L10>
40080f7c:	2138      	l32i.n	a3, a1, 8
40080f7e:	0348      	l32i.n	a4, a3, 0
40080f80:	441b      	addi.n	a4, a4, 1
40080f82:	0349      	s32i.n	a4, a3, 0
40080f84:	2138      	l32i.n	a3, a1, 8
40080f86:	0338      	l32i.n	a3, a3, 0
40080f88:	0148      	l32i.n	a4, a1, 0
40080f8a:	343a      	add.n	a3, a4, a3
40080f8c:	000332        	l8ui	a3, a3, 0
40080f8f:	6139      	s32i.n	a3, a1, 24
40080f91:	6138      	l32i.n	a3, a1, 24
40080f93:	c0a042        	movi	a4, 192
40080f96:	103340        	and	a3, a3, a4
40080f99:	80a042        	movi	a4, 128
40080f9c:	159347        	bne	a3, a4, 40080fb5 <L11>
40080f9f:	5138      	l32i.n	a3, a1, 20
40080fa1:	f41c      	movi.n	a4, 31
40080fa3:	103340        	and	a3, a3, a4
40080fa6:	1133a0        	slli	a3, a3, 6
40080fa9:	6148      	l32i.n	a4, a1, 24
40080fab:	f53c      	movi.n	a5, 63
40080fad:	104450        	and	a4, a4, a5
40080fb0:	203340        	or	a3, a3, a4
40080fb3:	8139      	s32i.n	a3, a1, 32

40080fb5 <L11>:
40080fb5:	2138      	l32i.n	a3, a1, 8
40080fb7:	0348      	l32i.n	a4, a3, 0
40080fb9:	441b      	addi.n	a4, a4, 1
40080fbb:	0349      	s32i.n	a4, a3, 0

40080fbd <L10>:
40080fbd:	0033c6        	j	40081090 <L1>

40080fc0 <L12>:
40080fc0:	2138      	l32i.n	a3, a1, 8
40080fc2:	0338      	l32i.n	a3, a3, 0
40080fc4:	332b      	addi.n	a3, a3, 2
40080fc6:	4148      	l32i.n	a4, a1, 16
40080fc8:	70a347        	bge	a3, a4, 4008103c <L13>
40080fcb:	2138      	l32i.n	a3, a1, 8
40080fcd:	0348      	l32i.n	a4, a3, 0
40080fcf:	441b      	addi.n	a4, a4, 1
40080fd1:	0349      	s32i.n	a4, a3, 0
40080fd3:	2138      	l32i.n	a3, a1, 8
40080fd5:	0338      	l32i.n	a3, a3, 0
40080fd7:	0148      	l32i.n	a4, a1, 0
40080fd9:	343a      	add.n	a3, a4, a3
40080fdb:	000332        	l8ui	a3, a3, 0
40080fde:	6139      	s32i.n	a3, a1, 24
40080fe0:	2138      	l32i.n	a3, a1, 8
40080fe2:	0348      	l32i.n	a4, a3, 0
40080fe4:	441b      	addi.n	a4, a4, 1
40080fe6:	0349      	s32i.n	a4, a3, 0
40080fe8:	2138      	l32i.n	a3, a1, 8
40080fea:	0338      	l32i.n	a3, a3, 0
40080fec:	0148      	l32i.n	a4, a1, 0
40080fee:	343a      	add.n	a3, a4, a3
40080ff0:	000332        	l8ui	a3, a3, 0
40080ff3:	7139      	s32i.n	a3, a1, 28
40080ff5:	6138      	l32i.n	a3, a1, 24
40080ff7:	c0a042        	movi	a4, 192
40080ffa:	103340        	and	a3, a3, a4
40080ffd:	80a042        	movi	a4, 128
40081000:	309347        	bne	a3, a4, 40081034 <L14>
40081003:	7138      	l32i.n	a3, a1, 28
40081005:	c0a042        	movi	a4, 192
40081008:	103340        	and	a3, a3, a4
4008100b:	80a042        	movi	a4, 128
4008100e:	229347        	bne	a3, a4, 40081034 <L14>

40081011 <L15>:
40081011:	5138      	l32i.n	a3, a1, 20
40081013:	f40c      	movi.n	a4, 15
40081015:	103340        	and	a3, a3, a4
40081018:	113340        	slli	a3, a3, 12
4008101b:	6148      	l32i.n	a4, a1, 24
4008101d:	f53c      	movi.n	a5, 63
4008101f:	104450        	and	a4, a4, a5
40081022:	1144a0        	slli	a4, a4, 6
40081025:	7158      	l32i.n	a5, a1, 28
40081027:	f63c      	movi.n	a6, 63
40081029:	105560        	and	a5, a5, a6
4008102c:	204450        	or	a4, a4, a5
4008102f:	203340        	or	a3, a3, a4
40081032:	8139      	s32i.n	a3, a1, 32

40081034 <L14>:
40081034:	2138      	l32i.n	a3, a1, 8
40081036:	0348      	l32i.n	a4, a3, 0
40081038:	441b      	addi.n	a4, a4, 1
4008103a:	0349      	s32i.n	a4, a3, 0

4008103c <L13>:
4008103c:	001406        	j	40081090 <L1>

4008103f <L16>:
4008103f:	030c      	movi.n	a3, 0
40081041:	8139      	s32i.n	a3, a1, 32
40081043:	001246        	j	40081090 <L1>
	...

40081048 <L3>:
40081048:	000000        	ill
4008104b:	001000        	movsp	a0, a0
4008104e:	620000        	lsi	f0, a0, 0x188
40081051:	0f          	.byte 0xf
40081052:	4008      	l32i.n	a0, a0, 16
40081054:	080f62        	l8ui	a6, a15, 8
40081057:	0f6240        	f64cmph	a6, a2, a4, 0
4008105a:	4008      	l32i.n	a0, a0, 16
4008105c:	080f62        	l8ui	a6, a15, 8
4008105f:	0f6240        	f64cmph	a6, a2, a4, 0
40081062:	4008      	l32i.n	a0, a0, 16
40081064:	080f62        	l8ui	a6, a15, 8
40081067:	0f6240        	f64cmph	a6, a2, a4, 0
4008106a:	4008      	l32i.n	a0, a0, 16
4008106c:	080f62        	l8ui	a6, a15, 8
4008106f:	103f40        	and	a3, a15, a4
40081072:	4008      	l32i.n	a0, a0, 16
40081074:	3f          	.byte 0x3f
40081075:	400810        	lsi	f1, a8, 0x100
40081078:	3f          	.byte 0x3f
40081079:	400810        	lsi	f1, a8, 0x100
4008107c:	3f          	.byte 0x3f
4008107d:	400810        	lsi	f1, a8, 0x100
40081080:	080f71        	l32r	a7, 400430bc <_heap_end+0x630bc>
40081083:	0f7140        	f64cmph	a7, a1, a4, 0
40081086:	4008      	l32i.n	a0, a0, 16
40081088:	080fc0        	lsx	f0, a15, a12
4008108b:	103f40        	and	a3, a15, a4
4008108e:	4008      	l32i.n	a0, a0, 16

40081090 <L1>:
40081090:	8138      	l32i.n	a3, a1, 32
40081092:	f01d      	retw.n
40081094:	0178      	l32i.n	a7, a1, 0
40081096:	3ffb      	addi.n	a3, a15, 15
40081098:	20ac      	beqz.n	a0, 400810be <_Run+0x1a>
4008109a:	160000        	lsi	f0, a0, 88
4008109d:	4e          	.byte 0x4e
4008109e:	4c0000        	lsi	f0, a0, 0x130
400810a1:	000075        	call12	400810a8 <_Run+0x4>

400810a4 <_Run>:
400810a4:	002136        	entry	a1, 16
400810a7:	ff9621        	l32r	a2, 40080f00 <L125+0x32>
400810aa:	fffa61        	l32r	a6, 40081094 <L1+0x4>
400810ad:	071c      	movi.n	a7, 16
400810af:	201110        	or	a1, a1, a1
400810b2:	01df95        	call4	40082eac <_Out_70D42FFB_p_String>
400810b5:	201110        	or	a1, a1, a1
400810b8:	01db15        	call4	40082e6c <_Out_70D42FFB_p_Flush>
400810bb:	41a062        	movi	a6, 65
400810be:	201110        	or	a1, a1, a1
400810c1:	01b715        	call4	40082c34 <_Test_8B10D205_p_First>
400810c4:	134c      	movi.n	a3, 65
400810c6:	004232        	s8i	a3, a2, 0
400810c9:	d0a032        	movi	a3, 208
400810cc:	014232        	s8i	a3, a2, 1
400810cf:	94a032        	movi	a3, 148
400810d2:	024232        	s8i	a3, a2, 2
400810d5:	d0a032        	movi	a3, 208
400810d8:	034232        	s8i	a3, a2, 3
400810db:	b0a032        	movi	a3, 176
400810de:	044232        	s8i	a3, a2, 4
400810e1:	e2a032        	movi	a3, 226
400810e4:	054232        	s8i	a3, a2, 5
400810e7:	82a032        	movi	a3, 130
400810ea:	064232        	s8i	a3, a2, 6
400810ed:	aca032        	movi	a3, 172
400810f0:	074232        	s8i	a3, a2, 7
400810f3:	e4a032        	movi	a3, 228
400810f6:	084232        	s8i	a3, a2, 8
400810f9:	b8a032        	movi	a3, 184
400810fc:	094232        	s8i	a3, a2, 9
400810ff:	96a032        	movi	a3, 150
40081102:	0a4232        	s8i	a3, a2, 10
40081105:	e7a032        	movi	a3, 231
40081108:	0b4232        	s8i	a3, a2, 11
4008110b:	95a032        	movi	a3, 149
4008110e:	0c4232        	s8i	a3, a2, 12
40081111:	8ca032        	movi	a3, 140
40081114:	0d4232        	s8i	a3, a2, 13
40081117:	f0a032        	movi	a3, 240
4008111a:	0e4232        	s8i	a3, a2, 14
4008111d:	030c      	movi.n	a3, 0
4008111f:	0f4232        	s8i	a3, a2, 15
40081122:	030c      	movi.n	a3, 0
40081124:	104232        	s8i	a3, a2, 16
40081127:	030c      	movi.n	a3, 0
40081129:	114232        	s8i	a3, a2, 17
4008112c:	134c      	movi.n	a3, 65
4008112e:	5239      	s32i.n	a3, a2, 20
40081130:	14a432        	movi	a3, 0x414
40081133:	6239      	s32i.n	a3, a2, 24
40081135:	30a432        	movi	a3, 0x430
40081138:	7239      	s32i.n	a3, a2, 28
4008113a:	ffd731        	l32r	a3, 40081098 <L1+0x8>
4008113d:	8239      	s32i.n	a3, a2, 32
4008113f:	ffd731        	l32r	a3, 4008109c <L1+0xc>
40081142:	9239      	s32i.n	a3, a2, 36
40081144:	ffd731        	l32r	a3, 400810a0 <L1+0x10>
40081147:	a239      	s32i.n	a3, a2, 40
40081149:	030c      	movi.n	a3, 0
4008114b:	b239      	s32i.n	a3, a2, 44
4008114d:	030c      	movi.n	a3, 0
4008114f:	c239      	s32i.n	a3, a2, 48
40081151:	030c      	movi.n	a3, 0
40081153:	d239      	s32i.n	a3, a2, 52
40081155:	026d      	mov.n	a6, a2
40081157:	12a072        	movi	a7, 18
4008115a:	30c282        	addi	a8, a2, 48
4008115d:	ffda95        	call4	40080f08 <_next>
40081160:	073d      	mov.n	a3, a7
40081162:	e239      	s32i.n	a3, a2, 56

40081164 <L18>:
40081164:	e238      	l32i.n	a3, a2, 56
40081166:	040c      	movi.n	a4, 0
40081168:	029347        	bne	a3, a4, 4008116e <L18+0xa>
4008116b:	002346        	j	400811fc <L19>
4008116e:	d268      	l32i.n	a6, a2, 52
40081170:	1166e0        	slli	a6, a6, 2
40081173:	626a      	add.n	a6, a2, a6
40081175:	5668      	l32i.n	a6, a6, 20
40081177:	e278      	l32i.n	a7, a2, 56
40081179:	079677        	bne	a6, a7, 40081184 <L20>
4008117c:	160c      	movi.n	a6, 1
4008117e:	000106        	j	40081186 <L21>
40081181:	000000        	ill

40081184 <L20>:
40081184:	060c      	movi.n	a6, 0

40081186 <L21>:
40081186:	ffc371        	l32r	a7, 40081094 <L1+0x4>
40081189:	10c772        	addi	a7, a7, 16
4008118c:	a80c      	movi.n	a8, 10
4008118e:	201110        	or	a1, a1, a1
40081191:	01b855        	call4	40082d18 <_Test_8B10D205_p_Assert>
40081194:	d238      	l32i.n	a3, a2, 52
40081196:	1133e0        	slli	a3, a3, 2
40081199:	323a      	add.n	a3, a2, a3
4008119b:	5338      	l32i.n	a3, a3, 20
4008119d:	e248      	l32i.n	a4, a2, 56
4008119f:	3f1347        	beq	a3, a4, 400811e2 <L22>
400811a2:	ffbc61        	l32r	a6, 40081094 <L1+0x4>
400811a5:	1cc662        	addi	a6, a6, 28
400811a8:	b70c      	movi.n	a7, 11
400811aa:	201110        	or	a1, a1, a1
400811ad:	01cfd5        	call4	40082eac <_Out_70D42FFB_p_String>
400811b0:	c268      	l32i.n	a6, a2, 48
400811b2:	1166e0        	slli	a6, a6, 2
400811b5:	626a      	add.n	a6, a2, a6
400811b7:	5668      	l32i.n	a6, a6, 20
400811b9:	070c      	movi.n	a7, 0
400811bb:	201110        	or	a1, a1, a1
400811be:	01dbd5        	call4	40082f7c <_Out_70D42FFB_p_Hex>
400811c1:	ffb461        	l32r	a6, 40081094 <L1+0x4>
400811c4:	28c662        	addi	a6, a6, 40
400811c7:	07a072        	movi	a7, 7
400811ca:	201110        	or	a1, a1, a1
400811cd:	01cdd5        	call4	40082eac <_Out_70D42FFB_p_String>
400811d0:	0e2262        	l32i	a6, a2, 56
400811d3:	00a072        	movi	a7, 0
400811d6:	201110        	or	a1, a1, a1
400811d9:	01da15        	call4	40082f7c <_Out_70D42FFB_p_Hex>
400811dc:	201110        	or	a1, a1, a1
400811df:	021ad5        	call4	4008338c <_Out_70D42FFB_p_Ln>

400811e2 <L22>:
400811e2:	026d      	mov.n	a6, a2
400811e4:	271c      	movi.n	a7, 18
400811e6:	30c282        	addi	a8, a2, 48
400811e9:	ffd1d5        	call4	40080f08 <_next>
400811ec:	073d      	mov.n	a3, a7
400811ee:	e239      	s32i.n	a3, a2, 56
400811f0:	34c232        	addi	a3, a2, 52
400811f3:	0348      	l32i.n	a4, a3, 0
400811f5:	441b      	addi.n	a4, a4, 1
400811f7:	0349      	s32i.n	a4, a3, 0
400811f9:	ffd9c6        	j	40081164 <L18>

400811fc <L19>:
400811fc:	201110        	or	a1, a1, a1
400811ff:	01a255        	call4	40082c24 <_Test_8B10D205_p_End>
40081202:	ffa461        	l32r	a6, 40081094 <L1+0x4>
40081205:	30c662        	addi	a6, a6, 48
40081208:	570c      	movi.n	a7, 5
4008120a:	201110        	or	a1, a1, a1
4008120d:	01c9d5        	call4	40082eac <_Out_70D42FFB_p_String>
40081210:	201110        	or	a1, a1, a1
40081213:	021795        	call4	4008338c <_Out_70D42FFB_p_Ln>
40081216:	f01d      	retw.n
40081218:	fb0dd4        	lsi	f13, a13, 0x3ec
4008121b:	3f          	.byte 0x3f
4008121c:	fb01c4        	lsi	f12, a1, 0x3ec
4008121f:	3f          	.byte 0x3f

40081220 <_localAssignment>:
40081220:	082136        	entry	a1, 0x410
40081223:	0129      	s32i.n	a2, a1, 0
40081225:	1139      	s32i.n	a3, a1, 4
40081227:	fffc21        	l32r	a2, 40081218 <L19+0x1c>
4008122a:	fffc61        	l32r	a6, 4008121c <L19+0x20>
4008122d:	f71c      	movi.n	a7, 31
4008122f:	201110        	or	a1, a1, a1
40081232:	01c795        	call4	40082eac <_Out_70D42FFB_p_String>
40081235:	201110        	or	a1, a1, a1
40081238:	01c315        	call4	40082e6c <_Out_70D42FFB_p_Flush>
4008123b:	41a062        	movi	a6, 65
4008123e:	201110        	or	a1, a1, a1
40081241:	019f15        	call4	40082c34 <_Test_8B10D205_p_First>
40081244:	530c      	movi.n	a3, 5
40081246:	c139      	s32i.n	a3, a1, 48
40081248:	318b      	addi.n	a3, a1, 8
4008124a:	30c142        	addi	a4, a1, 48
4008124d:	250c      	movi.n	a5, 2
4008124f:	078576        	loop	a5, 4008125a <L1>
40081252:	0468      	l32i.n	a6, a4, 0
40081254:	444b      	addi.n	a4, a4, 4
40081256:	0369      	s32i.n	a6, a3, 0
40081258:	334b      	addi.n	a3, a3, 4

4008125a <L1>:
4008125a:	c168      	l32i.n	a6, a1, 48
4008125c:	570c      	movi.n	a7, 5
4008125e:	129677        	bne	a6, a7, 40081274 <L2>
40081261:	2168      	l32i.n	a6, a1, 8
40081263:	c178      	l32i.n	a7, a1, 48
40081265:	0b9677        	bne	a6, a7, 40081274 <L2>
40081268:	3168      	l32i.n	a6, a1, 12
4008126a:	d178      	l32i.n	a7, a1, 52
4008126c:	049677        	bne	a6, a7, 40081274 <L2>
4008126f:	160c      	movi.n	a6, 1
40081271:	000046        	j	40081276 <L4>

40081274 <L2>:
40081274:	060c      	movi.n	a6, 0

40081276 <L4>:
40081276:	ffe971        	l32r	a7, 4008121c <L19+0x20>
40081279:	20c772        	addi	a7, a7, 32
4008127c:	681c      	movi.n	a8, 22
4008127e:	201110        	or	a1, a1, a1
40081281:	01a955        	call4	40082d18 <_Test_8B10D205_p_Assert>
40081284:	630c      	movi.n	a3, 6
40081286:	2139      	s32i.n	a3, a1, 8
40081288:	c168      	l32i.n	a6, a1, 48
4008128a:	570c      	movi.n	a7, 5
4008128c:	0c9677        	bne	a6, a7, 4008129c <L5>
4008128f:	2168      	l32i.n	a6, a1, 8
40081291:	670c      	movi.n	a7, 6
40081293:	059677        	bne	a6, a7, 4008129c <L5>
40081296:	160c      	movi.n	a6, 1
40081298:	000086        	j	4008129e <L7>
	...

4008129c <L5>:
4008129c:	060c      	movi.n	a6, 0

4008129e <L7>:
4008129e:	ffdf71        	l32r	a7, 4008121c <L19+0x20>
400812a1:	38c772        	addi	a7, a7, 56
400812a4:	c80c      	movi.n	a8, 12
400812a6:	201110        	or	a1, a1, a1
400812a9:	01a6d5        	call4	40082d18 <_Test_8B10D205_p_Assert>
400812ac:	318b      	addi.n	a3, a1, 8
400812ae:	0148      	l32i.n	a4, a1, 0
400812b0:	250c      	movi.n	a5, 2
400812b2:	078576        	loop	a5, 400812bd <L8>
400812b5:	0468      	l32i.n	a6, a4, 0
400812b7:	444b      	addi.n	a4, a4, 4
400812b9:	0369      	s32i.n	a6, a3, 0
400812bb:	334b      	addi.n	a3, a3, 4

400812bd <L8>:
400812bd:	c168      	l32i.n	a6, a1, 48
400812bf:	570c      	movi.n	a7, 5
400812c1:	0b9677        	bne	a6, a7, 400812d0 <L9>
400812c4:	2168      	l32i.n	a6, a1, 8
400812c6:	770c      	movi.n	a7, 7
400812c8:	049677        	bne	a6, a7, 400812d0 <L9>
400812cb:	160c      	movi.n	a6, 1
400812cd:	000046        	j	400812d2 <L11>

400812d0 <L9>:
400812d0:	060c      	movi.n	a6, 0

400812d2 <L11>:
400812d2:	ffd271        	l32r	a7, 4008121c <L19+0x20>
400812d5:	44c772        	addi	a7, a7, 68
400812d8:	a80c      	movi.n	a8, 10
400812da:	201110        	or	a1, a1, a1
400812dd:	01a395        	call4	40082d18 <_Test_8B10D205_p_Assert>
400812e0:	630c      	movi.n	a3, 6
400812e2:	2139      	s32i.n	a3, a1, 8
400812e4:	c168      	l32i.n	a6, a1, 48
400812e6:	570c      	movi.n	a7, 5
400812e8:	149677        	bne	a6, a7, 40081300 <L12>
400812eb:	2168      	l32i.n	a6, a1, 8
400812ed:	670c      	movi.n	a7, 6
400812ef:	0d9677        	bne	a6, a7, 40081300 <L12>
400812f2:	0168      	l32i.n	a6, a1, 0
400812f4:	0668      	l32i.n	a6, a6, 0
400812f6:	770c      	movi.n	a7, 7
400812f8:	049677        	bne	a6, a7, 40081300 <L12>
400812fb:	160c      	movi.n	a6, 1
400812fd:	000046        	j	40081302 <L14>

40081300 <L12>:
40081300:	060c      	movi.n	a6, 0

40081302 <L14>:
40081302:	ffc671        	l32r	a7, 4008121c <L19+0x20>
40081305:	50c772        	addi	a7, a7, 80
40081308:	980c      	movi.n	a8, 9
4008130a:	201110        	or	a1, a1, a1
4008130d:	01a095        	call4	40082d18 <_Test_8B10D205_p_Assert>
40081310:	0138      	l32i.n	a3, a1, 0
40081312:	418b      	addi.n	a4, a1, 8
40081314:	250c      	movi.n	a5, 2
40081316:	078576        	loop	a5, 40081321 <L15>
40081319:	0468      	l32i.n	a6, a4, 0
4008131b:	444b      	addi.n	a4, a4, 4
4008131d:	0369      	s32i.n	a6, a3, 0
4008131f:	334b      	addi.n	a3, a3, 4

40081321 <L15>:
40081321:	830c      	movi.n	a3, 8
40081323:	2139      	s32i.n	a3, a1, 8
40081325:	c168      	l32i.n	a6, a1, 48
40081327:	570c      	movi.n	a7, 5
40081329:	179677        	bne	a6, a7, 40081344 <L16>
4008132c:	2168      	l32i.n	a6, a1, 8
4008132e:	870c      	movi.n	a7, 8
40081330:	109677        	bne	a6, a7, 40081344 <L16>
40081333:	0168      	l32i.n	a6, a1, 0
40081335:	0668      	l32i.n	a6, a6, 0
40081337:	670c      	movi.n	a7, 6
40081339:	079677        	bne	a6, a7, 40081344 <L16>
4008133c:	160c      	movi.n	a6, 1
4008133e:	000106        	j	40081346 <L18>
40081341:	000000        	ill

40081344 <L16>:
40081344:	060c      	movi.n	a6, 0

40081346 <L18>:
40081346:	ffb571        	l32r	a7, 4008121c <L19+0x20>
40081349:	5cc772        	addi	a7, a7, 92
4008134c:	16a082        	movi	a8, 22
4008134f:	201110        	or	a1, a1, a1
40081352:	019c55        	call4	40082d18 <_Test_8B10D205_p_Assert>
40081355:	50c132        	addi	a3, a1, 80
40081358:	30c142        	addi	a4, a1, 48
4008135b:	250c      	movi.n	a5, 2
4008135d:	078576        	loop	a5, 40081368 <L19>
40081360:	0468      	l32i.n	a6, a4, 0
40081362:	444b      	addi.n	a4, a4, 4
40081364:	0369      	s32i.n	a6, a3, 0
40081366:	334b      	addi.n	a3, a3, 4

40081368 <L19>:
40081368:	142162        	l32i	a6, a1, 80
4008136b:	570c      	movi.n	a7, 5
4008136d:	079677        	bne	a6, a7, 40081378 <L20>
40081370:	160c      	movi.n	a6, 1
40081372:	000106        	j	4008137a <L21>
40081375:	000000        	ill

40081378 <L20>:
40081378:	060c      	movi.n	a6, 0

4008137a <L21>:
4008137a:	ffa871        	l32r	a7, 4008121c <L19+0x20>
4008137d:	74c772        	addi	a7, a7, 116
40081380:	f80c      	movi.n	a8, 15
40081382:	201110        	or	a1, a1, a1
40081385:	019915        	call4	40082d18 <_Test_8B10D205_p_Assert>
40081388:	a30c      	movi.n	a3, 10
4008138a:	146132        	s32i	a3, a1, 80
4008138d:	142162        	l32i	a6, a1, 80
40081390:	a70c      	movi.n	a7, 10
40081392:	069677        	bne	a6, a7, 4008139c <L22>
40081395:	160c      	movi.n	a6, 1
40081397:	0000c6        	j	4008139e <L23>
	...

4008139c <L22>:
4008139c:	060c      	movi.n	a6, 0

4008139e <L23>:
4008139e:	ff9f71        	l32r	a7, 4008121c <L19+0x20>
400813a1:	84a082        	movi	a8, 132
400813a4:	778a      	add.n	a7, a7, a8
400813a6:	f80c      	movi.n	a8, 15
400813a8:	201110        	or	a1, a1, a1
400813ab:	0196d5        	call4	40082d18 <_Test_8B10D205_p_Assert>
400813ae:	318b      	addi.n	a3, a1, 8
400813b0:	50c142        	addi	a4, a1, 80
400813b3:	250c      	movi.n	a5, 2
400813b5:	078576        	loop	a5, 400813c0 <L24>
400813b8:	0468      	l32i.n	a6, a4, 0
400813ba:	444b      	addi.n	a4, a4, 4
400813bc:	0369      	s32i.n	a6, a3, 0
400813be:	334b      	addi.n	a3, a3, 4

400813c0 <L24>:
400813c0:	2168      	l32i.n	a6, a1, 8
400813c2:	a70c      	movi.n	a7, 10
400813c4:	049677        	bne	a6, a7, 400813cc <L25>
400813c7:	160c      	movi.n	a6, 1
400813c9:	000046        	j	400813ce <L26>

400813cc <L25>:
400813cc:	060c      	movi.n	a6, 0

400813ce <L26>:
400813ce:	ff9371        	l32r	a7, 4008121c <L19+0x20>
400813d1:	94a082        	movi	a8, 148
400813d4:	778a      	add.n	a7, a7, a8
400813d6:	f80c      	movi.n	a8, 15
400813d8:	201110        	or	a1, a1, a1
400813db:	0193d5        	call4	40082d18 <_Test_8B10D205_p_Assert>
400813de:	b30c      	movi.n	a3, 11
400813e0:	126132        	s32i	a3, a1, 72
400813e3:	40c132        	addi	a3, a1, 64
400813e6:	48c142        	addi	a4, a1, 72
400813e9:	250c      	movi.n	a5, 2
400813eb:	078576        	loop	a5, 400813f6 <L27>
400813ee:	0468      	l32i.n	a6, a4, 0
400813f0:	444b      	addi.n	a4, a4, 4
400813f2:	0369      	s32i.n	a6, a3, 0
400813f4:	334b      	addi.n	a3, a3, 4

400813f6 <L27>:
400813f6:	102162        	l32i	a6, a1, 64
400813f9:	b70c      	movi.n	a7, 11
400813fb:	199677        	bne	a6, a7, 40081418 <L28>
400813fe:	102162        	l32i	a6, a1, 64
40081401:	122172        	l32i	a7, a1, 72
40081404:	109677        	bne	a6, a7, 40081418 <L28>
40081407:	112162        	l32i	a6, a1, 68
4008140a:	132172        	l32i	a7, a1, 76
4008140d:	079677        	bne	a6, a7, 40081418 <L28>
40081410:	160c      	movi.n	a6, 1
40081412:	000106        	j	4008141a <L30>
40081415:	000000        	ill

40081418 <L28>:
40081418:	060c      	movi.n	a6, 0

4008141a <L30>:
4008141a:	ff8071        	l32r	a7, 4008121c <L19+0x20>
4008141d:	a4a082        	movi	a8, 164
40081420:	778a      	add.n	a7, a7, a8
40081422:	f82c      	movi.n	a8, 47
40081424:	201110        	or	a1, a1, a1
40081427:	018f15        	call4	40082d18 <_Test_8B10D205_p_Assert>
4008142a:	c30c      	movi.n	a3, 12
4008142c:	106132        	s32i	a3, a1, 64
4008142f:	122162        	l32i	a6, a1, 72
40081432:	b70c      	movi.n	a7, 11
40081434:	0c9677        	bne	a6, a7, 40081444 <L31>
40081437:	102162        	l32i	a6, a1, 64
4008143a:	c70c      	movi.n	a7, 12
4008143c:	049677        	bne	a6, a7, 40081444 <L31>
4008143f:	160c      	movi.n	a6, 1
40081441:	000046        	j	40081446 <L33>

40081444 <L31>:
40081444:	060c      	movi.n	a6, 0

40081446 <L33>:
40081446:	ff7571        	l32r	a7, 4008121c <L19+0x20>
40081449:	d4a082        	movi	a8, 212
4008144c:	778a      	add.n	a7, a7, a8
4008144e:	581c      	movi.n	a8, 21
40081450:	201110        	or	a1, a1, a1
40081453:	018c55        	call4	40082d18 <_Test_8B10D205_p_Assert>
40081456:	f30c      	movi.n	a3, 15
40081458:	1b6132        	s32i	a3, a1, 108
4008145b:	38c132        	addi	a3, a1, 56
4008145e:	68c142        	addi	a4, a1, 104
40081461:	c50c      	movi.n	a5, 12
40081463:	078576        	loop	a5, 4008146e <L34>
40081466:	0468      	l32i.n	a6, a4, 0
40081468:	444b      	addi.n	a4, a4, 4
4008146a:	0369      	s32i.n	a6, a3, 0
4008146c:	334b      	addi.n	a3, a3, 4

4008146e <L34>:
4008146e:	f168      	l32i.n	a6, a1, 60
40081470:	f70c      	movi.n	a7, 15
40081472:	069677        	bne	a6, a7, 4008147c <L35>
40081475:	160c      	movi.n	a6, 1
40081477:	0000c6        	j	4008147e <L36>
	...

4008147c <L35>:
4008147c:	060c      	movi.n	a6, 0

4008147e <L36>:
4008147e:	ff6771        	l32r	a7, 4008121c <L19+0x20>
40081481:	eca082        	movi	a8, 236
40081484:	778a      	add.n	a7, a7, a8
40081486:	c81c      	movi.n	a8, 28
40081488:	201110        	or	a1, a1, a1
4008148b:	0188d5        	call4	40082d18 <_Test_8B10D205_p_Assert>
4008148e:	031c      	movi.n	a3, 16
40081490:	f139      	s32i.n	a3, a1, 60
40081492:	1b2162        	l32i	a6, a1, 108
40081495:	f70c      	movi.n	a7, 15
40081497:	0d9677        	bne	a6, a7, 400814a8 <L37>
4008149a:	f168      	l32i.n	a6, a1, 60
4008149c:	071c      	movi.n	a7, 16
4008149e:	069677        	bne	a6, a7, 400814a8 <L37>
400814a1:	160c      	movi.n	a6, 1
400814a3:	0000c6        	j	400814aa <L39>
	...

400814a8 <L37>:
400814a8:	060c      	movi.n	a6, 0

400814aa <L39>:
400814aa:	ff5c71        	l32r	a7, 4008121c <L19+0x20>
400814ad:	08a182        	movi	a8, 0x108
400814b0:	778a      	add.n	a7, a7, a8
400814b2:	281c      	movi.n	a8, 18
400814b4:	201110        	or	a1, a1, a1
400814b7:	018615        	call4	40082d18 <_Test_8B10D205_p_Assert>
400814ba:	931c      	movi.n	a3, 25
400814bc:	c36132        	s32i	a3, a1, 0x30c
400814bf:	98a032        	movi	a3, 152
400814c2:	331a      	add.n	a3, a3, a1
400814c4:	48a242        	movi	a4, 0x248
400814c7:	804410        	add	a4, a4, a1
400814ca:	6ca052        	movi	a5, 108
400814cd:	078576        	loop	a5, 400814d8 <L40>
400814d0:	0468      	l32i.n	a6, a4, 0
400814d2:	444b      	addi.n	a4, a4, 4
400814d4:	0369      	s32i.n	a6, a3, 0
400814d6:	334b      	addi.n	a3, a3, 4

400814d8 <L40>:
400814d8:	c32162        	l32i	a6, a1, 0x30c
400814db:	971c      	movi.n	a7, 25
400814dd:	0f9677        	bne	a6, a7, 400814f0 <L41>
400814e0:	572162        	l32i	a6, a1, 0x15c
400814e3:	971c      	movi.n	a7, 25
400814e5:	079677        	bne	a6, a7, 400814f0 <L41>
400814e8:	160c      	movi.n	a6, 1
400814ea:	000106        	j	400814f2 <L43>
400814ed:	000000        	ill

400814f0 <L41>:
400814f0:	060c      	movi.n	a6, 0

400814f2 <L43>:
400814f2:	ff4a71        	l32r	a7, 4008121c <L19+0x20>
400814f5:	1ca182        	movi	a8, 0x11c
400814f8:	778a      	add.n	a7, a7, a8
400814fa:	f81c      	movi.n	a8, 31
400814fc:	201110        	or	a1, a1, a1
400814ff:	018195        	call4	40082d18 <_Test_8B10D205_p_Assert>
40081502:	a31c      	movi.n	a3, 26
40081504:	576132        	s32i	a3, a1, 0x15c
40081507:	c32162        	l32i	a6, a1, 0x30c
4008150a:	971c      	movi.n	a7, 25
4008150c:	0c9677        	bne	a6, a7, 4008151c <L44>
4008150f:	572162        	l32i	a6, a1, 0x15c
40081512:	a71c      	movi.n	a7, 26
40081514:	049677        	bne	a6, a7, 4008151c <L44>
40081517:	160c      	movi.n	a6, 1
40081519:	000046        	j	4008151e <L46>

4008151c <L44>:
4008151c:	060c      	movi.n	a6, 0

4008151e <L46>:
4008151e:	ff3f71        	l32r	a7, 4008121c <L19+0x20>
40081521:	3ca182        	movi	a8, 0x13c
40081524:	807780        	add	a7, a7, a8
40081527:	15a082        	movi	a8, 21
4008152a:	201110        	or	a1, a1, a1
4008152d:	017e95        	call4	40082d18 <_Test_8B10D205_p_Assert>
40081530:	10c132        	addi	a3, a1, 16
40081533:	1148      	l32i.n	a4, a1, 4
40081535:	850c      	movi.n	a5, 8
40081537:	078576        	loop	a5, 40081542 <L47>
4008153a:	0468      	l32i.n	a6, a4, 0
4008153c:	444b      	addi.n	a4, a4, 4
4008153e:	0369      	s32i.n	a6, a3, 0
40081540:	334b      	addi.n	a3, a3, 4

40081542 <L47>:
40081542:	5168      	l32i.n	a6, a1, 20
40081544:	d74c      	movi.n	a7, 77
40081546:	069677        	bne	a6, a7, 40081550 <L48>
40081549:	160c      	movi.n	a6, 1
4008154b:	0000c6        	j	40081552 <L49>
	...

40081550 <L48>:
40081550:	060c      	movi.n	a6, 0

40081552 <L49>:
40081552:	ff3271        	l32r	a7, 4008121c <L19+0x20>
40081555:	54a182        	movi	a8, 0x154
40081558:	778a      	add.n	a7, a7, a8
4008155a:	a80c      	movi.n	a8, 10
4008155c:	201110        	or	a1, a1, a1
4008155f:	017b95        	call4	40082d18 <_Test_8B10D205_p_Assert>
40081562:	234c      	movi.n	a3, 66
40081564:	5139      	s32i.n	a3, a1, 20
40081566:	1168      	l32i.n	a6, a1, 4
40081568:	1668      	l32i.n	a6, a6, 4
4008156a:	d74c      	movi.n	a7, 77
4008156c:	0c9677        	bne	a6, a7, 4008157c <L50>
4008156f:	5168      	l32i.n	a6, a1, 20
40081571:	274c      	movi.n	a7, 66
40081573:	059677        	bne	a6, a7, 4008157c <L50>
40081576:	160c      	movi.n	a6, 1
40081578:	000086        	j	4008157e <L52>
	...

4008157c <L50>:
4008157c:	060c      	movi.n	a6, 0

4008157e <L52>:
4008157e:	ff2771        	l32r	a7, 4008121c <L19+0x20>
40081581:	60a182        	movi	a8, 0x160
40081584:	778a      	add.n	a7, a7, a8
40081586:	081c      	movi.n	a8, 16
40081588:	201110        	or	a1, a1, a1
4008158b:	0178d5        	call4	40082d18 <_Test_8B10D205_p_Assert>
4008158e:	1138      	l32i.n	a3, a1, 4
40081590:	10c142        	addi	a4, a1, 16
40081593:	850c      	movi.n	a5, 8
40081595:	078576        	loop	a5, 400815a0 <L53>
40081598:	0468      	l32i.n	a6, a4, 0
4008159a:	444b      	addi.n	a4, a4, 4
4008159c:	0369      	s32i.n	a6, a3, 0
4008159e:	334b      	addi.n	a3, a3, 4

400815a0 <L53>:
400815a0:	835c      	movi.n	a3, 88
400815a2:	5139      	s32i.n	a3, a1, 20
400815a4:	5168      	l32i.n	a6, a1, 20
400815a6:	875c      	movi.n	a7, 88
400815a8:	109677        	bne	a6, a7, 400815bc <L54>
400815ab:	1168      	l32i.n	a6, a1, 4
400815ad:	1668      	l32i.n	a6, a6, 4
400815af:	274c      	movi.n	a7, 66
400815b1:	079677        	bne	a6, a7, 400815bc <L54>
400815b4:	160c      	movi.n	a6, 1
400815b6:	000106        	j	400815be <L56>
400815b9:	000000        	ill

400815bc <L54>:
400815bc:	060c      	movi.n	a6, 0

400815be <L56>:
400815be:	ff1771        	l32r	a7, 4008121c <L19+0x20>
400815c1:	70a182        	movi	a8, 0x170
400815c4:	807780        	add	a7, a7, a8
400815c7:	1aa082        	movi	a8, 26
400815ca:	201110        	or	a1, a1, a1
400815cd:	017495        	call4	40082d18 <_Test_8B10D205_p_Assert>
400815d0:	201110        	or	a1, a1, a1
400815d3:	016515        	call4	40082c24 <_Test_8B10D205_p_End>
400815d6:	f01d      	retw.n

400815d8 <_Run>:
400815d8:	002136        	entry	a1, 16
400815db:	ff0f21        	l32r	a2, 40081218 <L19+0x1c>
400815de:	730c      	movi.n	a3, 7
400815e0:	0239      	s32i.n	a3, a2, 0
400815e2:	d34c      	movi.n	a3, 77
400815e4:	3239      	s32i.n	a3, a2, 12
400815e6:	026d      	mov.n	a6, a2
400815e8:	728b      	addi.n	a7, a2, 8
400815ea:	ffc355        	call4	40081220 <_localAssignment>
400815ed:	ff0b61        	l32r	a6, 4008121c <L19+0x20>
400815f0:	8ca172        	movi	a7, 0x18c
400815f3:	667a      	add.n	a6, a6, a7
400815f5:	172c      	movi.n	a7, 33
400815f7:	201110        	or	a1, a1, a1
400815fa:	018b15        	call4	40082eac <_Out_70D42FFB_p_String>
400815fd:	201110        	or	a1, a1, a1
40081600:	018695        	call4	40082e6c <_Out_70D42FFB_p_Flush>
40081603:	61a062        	movi	a6, 97
40081606:	201110        	or	a1, a1, a1
40081609:	016295        	call4	40082c34 <_Test_8B10D205_p_First>
4008160c:	530c      	movi.n	a3, 5
4008160e:	a239      	s32i.n	a3, a2, 40
40081610:	023d      	mov.n	a3, a2
40081612:	28c242        	addi	a4, a2, 40
40081615:	250c      	movi.n	a5, 2
40081617:	078576        	loop	a5, 40081622 <L57>
4008161a:	0468      	l32i.n	a6, a4, 0
4008161c:	444b      	addi.n	a4, a4, 4
4008161e:	0369      	s32i.n	a6, a3, 0
40081620:	334b      	addi.n	a3, a3, 4

40081622 <L57>:
40081622:	a268      	l32i.n	a6, a2, 40
40081624:	570c      	movi.n	a7, 5
40081626:	129677        	bne	a6, a7, 4008163c <L58>
40081629:	0268      	l32i.n	a6, a2, 0
4008162b:	a278      	l32i.n	a7, a2, 40
4008162d:	0b9677        	bne	a6, a7, 4008163c <L58>
40081630:	1268      	l32i.n	a6, a2, 4
40081632:	b278      	l32i.n	a7, a2, 44
40081634:	049677        	bne	a6, a7, 4008163c <L58>
40081637:	160c      	movi.n	a6, 1
40081639:	000046        	j	4008163e <L60>

4008163c <L58>:
4008163c:	060c      	movi.n	a6, 0

4008163e <L60>:
4008163e:	fef771        	l32r	a7, 4008121c <L19+0x20>
40081641:	b0a182        	movi	a8, 0x1b0
40081644:	778a      	add.n	a7, a7, a8
40081646:	381c      	movi.n	a8, 19
40081648:	201110        	or	a1, a1, a1
4008164b:	016cd5        	call4	40082d18 <_Test_8B10D205_p_Assert>
4008164e:	630c      	movi.n	a3, 6
40081650:	0239      	s32i.n	a3, a2, 0
40081652:	a268      	l32i.n	a6, a2, 40
40081654:	570c      	movi.n	a7, 5
40081656:	0e9677        	bne	a6, a7, 40081668 <L61>
40081659:	0268      	l32i.n	a6, a2, 0
4008165b:	670c      	movi.n	a7, 6
4008165d:	079677        	bne	a6, a7, 40081668 <L61>
40081660:	160c      	movi.n	a6, 1
40081662:	000106        	j	4008166a <L63>
40081665:	000000        	ill

40081668 <L61>:
40081668:	060c      	movi.n	a6, 0

4008166a <L63>:
4008166a:	feec71        	l32r	a7, 4008121c <L19+0x20>
4008166d:	c4a182        	movi	a8, 0x1c4
40081670:	807780        	add	a7, a7, a8
40081673:	0ba082        	movi	a8, 11
40081676:	201110        	or	a1, a1, a1
40081679:	0169d5        	call4	40082d18 <_Test_8B10D205_p_Assert>
4008167c:	48c232        	addi	a3, a2, 72
4008167f:	28c242        	addi	a4, a2, 40
40081682:	02a052        	movi	a5, 2
40081685:	078576        	loop	a5, 40081690 <L64>
40081688:	0468      	l32i.n	a6, a4, 0
4008168a:	444b      	addi.n	a4, a4, 4
4008168c:	0369      	s32i.n	a6, a3, 0
4008168e:	334b      	addi.n	a3, a3, 4

40081690 <L64>:
40081690:	122262        	l32i	a6, a2, 72
40081693:	570c      	movi.n	a7, 5
40081695:	079677        	bne	a6, a7, 400816a0 <L65>
40081698:	160c      	movi.n	a6, 1
4008169a:	000106        	j	400816a2 <L66>
4008169d:	000000        	ill

400816a0 <L65>:
400816a0:	060c      	movi.n	a6, 0

400816a2 <L66>:
400816a2:	fede71        	l32r	a7, 4008121c <L19+0x20>
400816a5:	d0a182        	movi	a8, 0x1d0
400816a8:	778a      	add.n	a7, a7, a8
400816aa:	e80c      	movi.n	a8, 14
400816ac:	201110        	or	a1, a1, a1
400816af:	016695        	call4	40082d18 <_Test_8B10D205_p_Assert>
400816b2:	a30c      	movi.n	a3, 10
400816b4:	126232        	s32i	a3, a2, 72
400816b7:	122262        	l32i	a6, a2, 72
400816ba:	a70c      	movi.n	a7, 10
400816bc:	049677        	bne	a6, a7, 400816c4 <L67>
400816bf:	160c      	movi.n	a6, 1
400816c1:	000046        	j	400816c6 <L68>

400816c4 <L67>:
400816c4:	060c      	movi.n	a6, 0

400816c6 <L68>:
400816c6:	fed571        	l32r	a7, 4008121c <L19+0x20>
400816c9:	e0a182        	movi	a8, 0x1e0
400816cc:	778a      	add.n	a7, a7, a8
400816ce:	f80c      	movi.n	a8, 15
400816d0:	201110        	or	a1, a1, a1
400816d3:	016455        	call4	40082d18 <_Test_8B10D205_p_Assert>
400816d6:	023d      	mov.n	a3, a2
400816d8:	48c242        	addi	a4, a2, 72
400816db:	250c      	movi.n	a5, 2
400816dd:	078576        	loop	a5, 400816e8 <L69>
400816e0:	0468      	l32i.n	a6, a4, 0
400816e2:	444b      	addi.n	a4, a4, 4
400816e4:	0369      	s32i.n	a6, a3, 0
400816e6:	334b      	addi.n	a3, a3, 4

400816e8 <L69>:
400816e8:	0268      	l32i.n	a6, a2, 0
400816ea:	a70c      	movi.n	a7, 10
400816ec:	049677        	bne	a6, a7, 400816f4 <L70>
400816ef:	160c      	movi.n	a6, 1
400816f1:	000046        	j	400816f6 <L71>

400816f4 <L70>:
400816f4:	060c      	movi.n	a6, 0

400816f6 <L71>:
400816f6:	fec971        	l32r	a7, 4008121c <L19+0x20>
400816f9:	f0a182        	movi	a8, 0x1f0
400816fc:	778a      	add.n	a7, a7, a8
400816fe:	e80c      	movi.n	a8, 14
40081700:	201110        	or	a1, a1, a1
40081703:	016155        	call4	40082d18 <_Test_8B10D205_p_Assert>
40081706:	b30c      	movi.n	a3, 11
40081708:	106232        	s32i	a3, a2, 64
4008170b:	38c232        	addi	a3, a2, 56
4008170e:	40c242        	addi	a4, a2, 64
40081711:	250c      	movi.n	a5, 2
40081713:	078576        	loop	a5, 4008171e <L72>
40081716:	0468      	l32i.n	a6, a4, 0
40081718:	444b      	addi.n	a4, a4, 4
4008171a:	0369      	s32i.n	a6, a3, 0
4008171c:	334b      	addi.n	a3, a3, 4

4008171e <L72>:
4008171e:	e268      	l32i.n	a6, a2, 56
40081720:	b70c      	movi.n	a7, 11
40081722:	169677        	bne	a6, a7, 4008173c <L73>
40081725:	e268      	l32i.n	a6, a2, 56
40081727:	102272        	l32i	a7, a2, 64
4008172a:	0e9677        	bne	a6, a7, 4008173c <L73>
4008172d:	f268      	l32i.n	a6, a2, 60
4008172f:	112272        	l32i	a7, a2, 68
40081732:	069677        	bne	a6, a7, 4008173c <L73>
40081735:	160c      	movi.n	a6, 1
40081737:	0000c6        	j	4008173e <L75>
	...

4008173c <L73>:
4008173c:	060c      	movi.n	a6, 0

4008173e <L75>:
4008173e:	feb771        	l32r	a7, 4008121c <L19+0x20>
40081741:	00a282        	movi	a8, 0x200
40081744:	778a      	add.n	a7, a7, a8
40081746:	f82c      	movi.n	a8, 47
40081748:	201110        	or	a1, a1, a1
4008174b:	015cd5        	call4	40082d18 <_Test_8B10D205_p_Assert>
4008174e:	c30c      	movi.n	a3, 12
40081750:	e239      	s32i.n	a3, a2, 56
40081752:	102262        	l32i	a6, a2, 64
40081755:	b70c      	movi.n	a7, 11
40081757:	0d9677        	bne	a6, a7, 40081768 <L76>
4008175a:	e268      	l32i.n	a6, a2, 56
4008175c:	c70c      	movi.n	a7, 12
4008175e:	069677        	bne	a6, a7, 40081768 <L76>
40081761:	160c      	movi.n	a6, 1
40081763:	0000c6        	j	4008176a <L78>
	...

40081768 <L76>:
40081768:	060c      	movi.n	a6, 0

4008176a <L78>:
4008176a:	feac71        	l32r	a7, 4008121c <L19+0x20>
4008176d:	30a282        	movi	a8, 0x230
40081770:	778a      	add.n	a7, a7, a8
40081772:	581c      	movi.n	a8, 21
40081774:	201110        	or	a1, a1, a1
40081777:	015a15        	call4	40082d18 <_Test_8B10D205_p_Assert>
4008177a:	f30c      	movi.n	a3, 15
4008177c:	196232        	s32i	a3, a2, 100
4008177f:	30c232        	addi	a3, a2, 48
40081782:	60c242        	addi	a4, a2, 96
40081785:	c50c      	movi.n	a5, 12
40081787:	078576        	loop	a5, 40081792 <L79>
4008178a:	0468      	l32i.n	a6, a4, 0
4008178c:	444b      	addi.n	a4, a4, 4
4008178e:	0369      	s32i.n	a6, a3, 0
40081790:	334b      	addi.n	a3, a3, 4

40081792 <L79>:
40081792:	d268      	l32i.n	a6, a2, 52
40081794:	f70c      	movi.n	a7, 15
40081796:	069677        	bne	a6, a7, 400817a0 <L80>
40081799:	160c      	movi.n	a6, 1
4008179b:	0000c6        	j	400817a2 <L81>
	...

400817a0 <L80>:
400817a0:	060c      	movi.n	a6, 0

400817a2 <L81>:
400817a2:	fe9e71        	l32r	a7, 4008121c <L19+0x20>
400817a5:	48a282        	movi	a8, 0x248
400817a8:	778a      	add.n	a7, a7, a8
400817aa:	c81c      	movi.n	a8, 28
400817ac:	201110        	or	a1, a1, a1
400817af:	015695        	call4	40082d18 <_Test_8B10D205_p_Assert>
400817b2:	031c      	movi.n	a3, 16
400817b4:	d239      	s32i.n	a3, a2, 52
400817b6:	192262        	l32i	a6, a2, 100
400817b9:	f70c      	movi.n	a7, 15
400817bb:	0d9677        	bne	a6, a7, 400817cc <L82>
400817be:	d268      	l32i.n	a6, a2, 52
400817c0:	071c      	movi.n	a7, 16
400817c2:	069677        	bne	a6, a7, 400817cc <L82>
400817c5:	160c      	movi.n	a6, 1
400817c7:	0000c6        	j	400817ce <L84>
	...

400817cc <L82>:
400817cc:	060c      	movi.n	a6, 0

400817ce <L84>:
400817ce:	fe9371        	l32r	a7, 4008121c <L19+0x20>
400817d1:	64a282        	movi	a8, 0x264
400817d4:	778a      	add.n	a7, a7, a8
400817d6:	281c      	movi.n	a8, 18
400817d8:	201110        	or	a1, a1, a1
400817db:	0153d5        	call4	40082d18 <_Test_8B10D205_p_Assert>
400817de:	931c      	movi.n	a3, 25
400817e0:	c16232        	s32i	a3, a2, 0x304
400817e3:	90a042        	movi	a4, 144
400817e6:	324a      	add.n	a3, a2, a4
400817e8:	40a252        	movi	a5, 0x240
400817eb:	804250        	add	a4, a2, a5
400817ee:	6ca052        	movi	a5, 108
400817f1:	078576        	loop	a5, 400817fc <L85>
400817f4:	0468      	l32i.n	a6, a4, 0
400817f6:	444b      	addi.n	a4, a4, 4
400817f8:	0369      	s32i.n	a6, a3, 0
400817fa:	334b      	addi.n	a3, a3, 4

400817fc <L85>:
400817fc:	c12262        	l32i	a6, a2, 0x304
400817ff:	971c      	movi.n	a7, 25
40081801:	0f9677        	bne	a6, a7, 40081814 <L86>
40081804:	552262        	l32i	a6, a2, 0x154
40081807:	971c      	movi.n	a7, 25
40081809:	079677        	bne	a6, a7, 40081814 <L86>
4008180c:	160c      	movi.n	a6, 1
4008180e:	000106        	j	40081816 <L88>
40081811:	000000        	ill

40081814 <L86>:
40081814:	060c      	movi.n	a6, 0

40081816 <L88>:
40081816:	fe8171        	l32r	a7, 4008121c <L19+0x20>
40081819:	78a282        	movi	a8, 0x278
4008181c:	778a      	add.n	a7, a7, a8
4008181e:	f81c      	movi.n	a8, 31
40081820:	201110        	or	a1, a1, a1
40081823:	014f55        	call4	40082d18 <_Test_8B10D205_p_Assert>
40081826:	a31c      	movi.n	a3, 26
40081828:	556232        	s32i	a3, a2, 0x154
4008182b:	c12262        	l32i	a6, a2, 0x304
4008182e:	971c      	movi.n	a7, 25
40081830:	0c9677        	bne	a6, a7, 40081840 <L89>
40081833:	552262        	l32i	a6, a2, 0x154
40081836:	a71c      	movi.n	a7, 26
40081838:	049677        	bne	a6, a7, 40081840 <L89>
4008183b:	160c      	movi.n	a6, 1
4008183d:	000046        	j	40081842 <L91>

40081840 <L89>:
40081840:	060c      	movi.n	a6, 0

40081842 <L91>:
40081842:	fe7671        	l32r	a7, 4008121c <L19+0x20>
40081845:	98a282        	movi	a8, 0x298
40081848:	807780        	add	a7, a7, a8
4008184b:	15a082        	movi	a8, 21
4008184e:	201110        	or	a1, a1, a1
40081851:	014c55        	call4	40082d18 <_Test_8B10D205_p_Assert>
40081854:	201110        	or	a1, a1, a1
40081857:	013cd5        	call4	40082c24 <_Test_8B10D205_p_End>
4008185a:	fe7061        	l32r	a6, 4008121c <L19+0x20>
4008185d:	b0a272        	movi	a7, 0x2b0
40081860:	806670        	add	a6, a6, a7
40081863:	05a072        	movi	a7, 5
40081866:	201110        	or	a1, a1, a1
40081869:	016415        	call4	40082eac <_Out_70D42FFB_p_String>
4008186c:	201110        	or	a1, a1, a1
4008186f:	01b1d5        	call4	4008338c <_Out_70D42FFB_p_Ln>
40081872:	f01d      	retw.n
40081874:	fb11c4        	lsi	f12, a1, 0x3ec
40081877:	3f          	.byte 0x3f

40081878 <_P1>:
40081878:	004136        	entry	a1, 32
4008187b:	0129      	s32i.n	a2, a1, 0
4008187d:	fffd21        	l32r	a2, 40081874 <L91+0x32>
40081880:	000132        	l8ui	a3, a1, 0
40081883:	331b      	addi.n	a3, a3, 1
40081885:	f01d      	retw.n
	...

40081888 <_P2>:
40081888:	004136        	entry	a1, 32
4008188b:	0129      	s32i.n	a2, a1, 0
4008188d:	fff921        	l32r	a2, 40081874 <L91+0x32>
40081890:	0138      	l32i.n	a3, a1, 0
40081892:	331b      	addi.n	a3, a3, 1
40081894:	ffa042        	movi	a4, 255
40081897:	103340        	and	a3, a3, a4
4008189a:	f01d      	retw.n

4008189c <_P3>:
4008189c:	004136        	entry	a1, 32
4008189f:	0129      	s32i.n	a2, a1, 0
400818a1:	fff421        	l32r	a2, 40081874 <L91+0x32>
400818a4:	0138      	l32i.n	a3, a1, 0
400818a6:	f01d      	retw.n

400818a8 <_Par1>:
400818a8:	004136        	entry	a1, 32
400818ab:	0129      	s32i.n	a2, a1, 0
400818ad:	fff121        	l32r	a2, 40081874 <L91+0x32>
400818b0:	000162        	l8ui	a6, a1, 0
400818b3:	80a072        	movi	a7, 128
400818b6:	0a9677        	bne	a6, a7, 400818c4 <L1>
400818b9:	160c      	movi.n	a6, 1
400818bb:	0001c6        	j	400818c6 <L2>
400818be:	7c0000        	lsi	f0, a0, 0x1f0
400818c1:	3ffb04        	lsi	f0, a11, 252

400818c4 <L1>:
400818c4:	060c      	movi.n	a6, 0

400818c6 <L2>:
400818c6:	fffe71        	l32r	a7, 400818c0 <_Par1+0x18>
400818c9:	f80c      	movi.n	a8, 15
400818cb:	201110        	or	a1, a1, a1
400818ce:	014495        	call4	40082d18 <_Test_8B10D205_p_Assert>
400818d1:	f01d      	retw.n
	...

400818d4 <_Ret1>:
400818d4:	004136        	entry	a1, 32
400818d7:	ffe721        	l32r	a2, 40081874 <L91+0x32>
400818da:	830c      	movi.n	a3, 8
400818dc:	004132        	s8i	a3, a1, 0
400818df:	000132        	l8ui	a3, a1, 0
400818e2:	f01d      	retw.n

400818e4 <_P4>:
400818e4:	004136        	entry	a1, 32
400818e7:	ffe321        	l32r	a2, 40081874 <L91+0x32>
400818ea:	fff561        	l32r	a6, 400818c0 <_Par1+0x18>
400818ed:	10c662        	addi	a6, a6, 16
400818f0:	572c      	movi.n	a7, 37
400818f2:	201110        	or	a1, a1, a1
400818f5:	015b55        	call4	40082eac <_Out_70D42FFB_p_String>
400818f8:	201110        	or	a1, a1, a1
400818fb:	015715        	call4	40082e6c <_Out_70D42FFB_p_Flush>
400818fe:	164c      	movi.n	a6, 65
40081900:	201110        	or	a1, a1, a1
40081903:	013315        	call4	40082c34 <_Test_8B10D205_p_First>
40081906:	ffa0a2        	movi	a10, 255
40081909:	fff6e5        	call8	40081878 <_P1>
4008190c:	0b6d      	mov.n	a6, a11
4008190e:	00a172        	movi	a7, 0x100
40081911:	079677        	bne	a6, a7, 4008191c <L3>
40081914:	160c      	movi.n	a6, 1
40081916:	000106        	j	4008191e <L4>
40081919:	000000        	ill

4008191c <L3>:
4008191c:	060c      	movi.n	a6, 0

4008191e <L4>:
4008191e:	ffe871        	l32r	a7, 400818c0 <_Par1+0x18>
40081921:	38c772        	addi	a7, a7, 56
40081924:	182c      	movi.n	a8, 33
40081926:	201110        	or	a1, a1, a1
40081929:	013ed5        	call4	40082d18 <_Test_8B10D205_p_Assert>
4008192c:	00a1a2        	movi	a10, 0x100
4008192f:	fff5a5        	call8	40081888 <_P2>
40081932:	0b6d      	mov.n	a6, a11
40081934:	170c      	movi.n	a7, 1
40081936:	069677        	bne	a6, a7, 40081940 <L5>
40081939:	160c      	movi.n	a6, 1
4008193b:	0000c6        	j	40081942 <L6>
	...

40081940 <L5>:
40081940:	060c      	movi.n	a6, 0

40081942 <L6>:
40081942:	ffdf71        	l32r	a7, 400818c0 <_Par1+0x18>
40081945:	5cc772        	addi	a7, a7, 92
40081948:	a81c      	movi.n	a8, 26
4008194a:	201110        	or	a1, a1, a1
4008194d:	013c95        	call4	40082d18 <_Test_8B10D205_p_Assert>
40081950:	ffa032        	movi	a3, 255
40081953:	044132        	s8i	a3, a1, 4
40081956:	81a032        	movi	a3, 129
40081959:	0139      	s32i.n	a3, a1, 0
4008195b:	040162        	l8ui	a6, a1, 4
4008195e:	ffa072        	movi	a7, 255
40081961:	0f9677        	bne	a6, a7, 40081974 <L7>
40081964:	0168      	l32i.n	a6, a1, 0
40081966:	81a072        	movi	a7, 129
40081969:	079677        	bne	a6, a7, 40081974 <L7>
4008196c:	160c      	movi.n	a6, 1
4008196e:	000106        	j	40081976 <L9>
40081971:	000000        	ill

40081974 <L7>:
40081974:	060c      	movi.n	a6, 0

40081976 <L9>:
40081976:	ffd271        	l32r	a7, 400818c0 <_Par1+0x18>
40081979:	78c772        	addi	a7, a7, 120
4008197c:	781c      	movi.n	a8, 23
4008197e:	201110        	or	a1, a1, a1
40081981:	013955        	call4	40082d18 <_Test_8B10D205_p_Assert>
40081984:	040132        	l8ui	a3, a1, 4
40081987:	331b      	addi.n	a3, a3, 1
40081989:	0139      	s32i.n	a3, a1, 0
4008198b:	0168      	l32i.n	a6, a1, 0
4008198d:	00a172        	movi	a7, 0x100
40081990:	049677        	bne	a6, a7, 40081998 <L10>
40081993:	160c      	movi.n	a6, 1
40081995:	000046        	j	4008199a <L11>

40081998 <L10>:
40081998:	060c      	movi.n	a6, 0

4008199a <L11>:
4008199a:	ffc971        	l32r	a7, 400818c0 <_Par1+0x18>
4008199d:	90a082        	movi	a8, 144
400819a0:	807780        	add	a7, a7, a8
400819a3:	20a082        	movi	a8, 32
400819a6:	201110        	or	a1, a1, a1
400819a9:	0136d5        	call4	40082d18 <_Test_8B10D205_p_Assert>
400819ac:	040132        	l8ui	a3, a1, 4
400819af:	0139      	s32i.n	a3, a1, 0
400819b1:	0168      	l32i.n	a6, a1, 0
400819b3:	ffa072        	movi	a7, 255
400819b6:	069677        	bne	a6, a7, 400819c0 <L12>
400819b9:	160c      	movi.n	a6, 1
400819bb:	0000c6        	j	400819c2 <L13>
	...

400819c0 <L12>:
400819c0:	060c      	movi.n	a6, 0

400819c2 <L13>:
400819c2:	ffbf71        	l32r	a7, 400818c0 <_Par1+0x18>
400819c5:	b0a082        	movi	a8, 176
400819c8:	807780        	add	a7, a7, a8
400819cb:	19a082        	movi	a8, 25
400819ce:	201110        	or	a1, a1, a1
400819d1:	013455        	call4	40082d18 <_Test_8B10D205_p_Assert>
400819d4:	ffa032        	movi	a3, 255
400819d7:	084132        	s8i	a3, a1, 8
400819da:	080162        	l8ui	a6, a1, 8
400819dd:	ffa072        	movi	a7, 255
400819e0:	049677        	bne	a6, a7, 400819e8 <L14>
400819e3:	160c      	movi.n	a6, 1
400819e5:	000046        	j	400819ea <L15>

400819e8 <L14>:
400819e8:	060c      	movi.n	a6, 0

400819ea <L15>:
400819ea:	ffb571        	l32r	a7, 400818c0 <_Par1+0x18>
400819ed:	cca082        	movi	a8, 204
400819f0:	807780        	add	a7, a7, a8
400819f3:	1ca082        	movi	a8, 28
400819f6:	201110        	or	a1, a1, a1
400819f9:	0131d5        	call4	40082d18 <_Test_8B10D205_p_Assert>
400819fc:	81a032        	movi	a3, 129
400819ff:	0139      	s32i.n	a3, a1, 0
40081a01:	0138      	l32i.n	a3, a1, 0
40081a03:	084132        	s8i	a3, a1, 8
40081a06:	080162        	l8ui	a6, a1, 8
40081a09:	81a072        	movi	a7, 129
40081a0c:	049677        	bne	a6, a7, 40081a14 <L16>
40081a0f:	160c      	movi.n	a6, 1
40081a11:	000046        	j	40081a16 <L17>

40081a14 <L16>:
40081a14:	060c      	movi.n	a6, 0

40081a16 <L17>:
40081a16:	ffaa71        	l32r	a7, 400818c0 <_Par1+0x18>
40081a19:	e8a082        	movi	a8, 232
40081a1c:	807780        	add	a7, a7, a8
40081a1f:	1fa082        	movi	a8, 31
40081a22:	201110        	or	a1, a1, a1
40081a25:	012f15        	call4	40082d18 <_Test_8B10D205_p_Assert>
40081a28:	080132        	l8ui	a3, a1, 8
40081a2b:	331b      	addi.n	a3, a3, 1
40081a2d:	0139      	s32i.n	a3, a1, 0
40081a2f:	0168      	l32i.n	a6, a1, 0
40081a31:	82a072        	movi	a7, 130
40081a34:	049677        	bne	a6, a7, 40081a3c <L18>
40081a37:	160c      	movi.n	a6, 1
40081a39:	000046        	j	40081a3e <L19>

40081a3c <L18>:
40081a3c:	060c      	movi.n	a6, 0

40081a3e <L19>:
40081a3e:	ffa071        	l32r	a7, 400818c0 <_Par1+0x18>
40081a41:	08a182        	movi	a8, 0x108
40081a44:	778a      	add.n	a7, a7, a8
40081a46:	e81c      	movi.n	a8, 30
40081a48:	201110        	or	a1, a1, a1
40081a4b:	012cd5        	call4	40082d18 <_Test_8B10D205_p_Assert>
40081a4e:	0138      	l32i.n	a3, a1, 0
40081a50:	0c4132        	s8i	a3, a1, 12
40081a53:	0c0162        	l8ui	a6, a1, 12
40081a56:	82a072        	movi	a7, 130
40081a59:	079677        	bne	a6, a7, 40081a64 <L20>
40081a5c:	160c      	movi.n	a6, 1
40081a5e:	000106        	j	40081a66 <L21>
40081a61:	000000        	ill

40081a64 <L20>:
40081a64:	060c      	movi.n	a6, 0

40081a66 <L21>:
40081a66:	ff9671        	l32r	a7, 400818c0 <_Par1+0x18>
40081a69:	28a182        	movi	a8, 0x128
40081a6c:	807780        	add	a7, a7, a8
40081a6f:	1fa082        	movi	a8, 31
40081a72:	201110        	or	a1, a1, a1
40081a75:	012a15        	call4	40082d18 <_Test_8B10D205_p_Assert>
40081a78:	0c0132        	l8ui	a3, a1, 12
40081a7b:	331b      	addi.n	a3, a3, 1
40081a7d:	0139      	s32i.n	a3, a1, 0
40081a7f:	0168      	l32i.n	a6, a1, 0
40081a81:	83a072        	movi	a7, 131
40081a84:	049677        	bne	a6, a7, 40081a8c <L22>
40081a87:	160c      	movi.n	a6, 1
40081a89:	000046        	j	40081a8e <L23>

40081a8c <L22>:
40081a8c:	060c      	movi.n	a6, 0

40081a8e <L23>:
40081a8e:	ff8c71        	l32r	a7, 400818c0 <_Par1+0x18>
40081a91:	48a182        	movi	a8, 0x148
40081a94:	807780        	add	a7, a7, a8
40081a97:	2ca082        	movi	a8, 44
40081a9a:	201110        	or	a1, a1, a1
40081a9d:	012795        	call4	40082d18 <_Test_8B10D205_p_Assert>
40081aa0:	0c0132        	l8ui	a3, a1, 12
40081aa3:	0139      	s32i.n	a3, a1, 0
40081aa5:	0168      	l32i.n	a6, a1, 0
40081aa7:	82a072        	movi	a7, 130
40081aaa:	069677        	bne	a6, a7, 40081ab4 <L24>
40081aad:	160c      	movi.n	a6, 1
40081aaf:	0000c6        	j	40081ab6 <L25>
	...

40081ab4 <L24>:
40081ab4:	060c      	movi.n	a6, 0

40081ab6 <L25>:
40081ab6:	ff8271        	l32r	a7, 400818c0 <_Par1+0x18>
40081ab9:	74a182        	movi	a8, 0x174
40081abc:	778a      	add.n	a7, a7, a8
40081abe:	882c      	movi.n	a8, 40
40081ac0:	201110        	or	a1, a1, a1
40081ac3:	012555        	call4	40082d18 <_Test_8B10D205_p_Assert>
40081ac6:	0138      	l32i.n	a3, a1, 0
40081ac8:	044132        	s8i	a3, a1, 4
40081acb:	0168      	l32i.n	a6, a1, 0
40081acd:	040172        	l8ui	a7, a1, 4
40081ad0:	049677        	bne	a6, a7, 40081ad8 <L26>
40081ad3:	160c      	movi.n	a6, 1
40081ad5:	000046        	j	40081ada <L27>

40081ad8 <L26>:
40081ad8:	060c      	movi.n	a6, 0

40081ada <L27>:
40081ada:	ff7971        	l32r	a7, 400818c0 <_Par1+0x18>
40081add:	9ca182        	movi	a8, 0x19c
40081ae0:	807780        	add	a7, a7, a8
40081ae3:	0ea082        	movi	a8, 14
40081ae6:	201110        	or	a1, a1, a1
40081ae9:	0122d5        	call4	40082d18 <_Test_8B10D205_p_Assert>
40081aec:	ffde55        	call4	400818d4 <_Ret1>
40081aef:	073d      	mov.n	a3, a7
40081af1:	0139      	s32i.n	a3, a1, 0
40081af3:	0168      	l32i.n	a6, a1, 0
40081af5:	870c      	movi.n	a7, 8
40081af7:	059677        	bne	a6, a7, 40081b00 <L28>
40081afa:	160c      	movi.n	a6, 1
40081afc:	000086        	j	40081b02 <L29>
	...

40081b00 <L28>:
40081b00:	060c      	movi.n	a6, 0

40081b02 <L29>:
40081b02:	ff6f71        	l32r	a7, 400818c0 <_Par1+0x18>
40081b05:	aca182        	movi	a8, 0x1ac
40081b08:	807780        	add	a7, a7, a8
40081b0b:	12a082        	movi	a8, 18
40081b0e:	201110        	or	a1, a1, a1
40081b11:	012055        	call4	40082d18 <_Test_8B10D205_p_Assert>
40081b14:	80a062        	movi	a6, 128
40081b17:	ffd915        	call4	400818a8 <_Par1>
40081b1a:	201110        	or	a1, a1, a1
40081b1d:	011055        	call4	40082c24 <_Test_8B10D205_p_End>
40081b20:	f01d      	retw.n
	...

40081b24 <_Byte_B776DFC2_p_Run>:
40081b24:	002136        	entry	a1, 16
40081b27:	ff5321        	l32r	a2, 40081874 <L91+0x32>
40081b2a:	ffdb95        	call4	400818e4 <_P4>
40081b2d:	ff6461        	l32r	a6, 400818c0 <_Par1+0x18>
40081b30:	c0a172        	movi	a7, 0x1c0
40081b33:	667a      	add.n	a6, a6, a7
40081b35:	371c      	movi.n	a7, 19
40081b37:	201110        	or	a1, a1, a1
40081b3a:	013715        	call4	40082eac <_Out_70D42FFB_p_String>
40081b3d:	201110        	or	a1, a1, a1
40081b40:	013295        	call4	40082e6c <_Out_70D42FFB_p_Flush>
40081b43:	61a062        	movi	a6, 97
40081b46:	201110        	or	a1, a1, a1
40081b49:	010e95        	call4	40082c34 <_Test_8B10D205_p_First>
40081b4c:	ffa0a2        	movi	a10, 255
40081b4f:	ffd2a5        	call8	40081878 <_P1>
40081b52:	0b6d      	mov.n	a6, a11
40081b54:	00a172        	movi	a7, 0x100
40081b57:	059677        	bne	a6, a7, 40081b60 <L30>
40081b5a:	160c      	movi.n	a6, 1
40081b5c:	000086        	j	40081b62 <L31>
	...

40081b60 <L30>:
40081b60:	060c      	movi.n	a6, 0

40081b62 <L31>:
40081b62:	ff5771        	l32r	a7, 400818c0 <_Par1+0x18>
40081b65:	d4a182        	movi	a8, 0x1d4
40081b68:	807780        	add	a7, a7, a8
40081b6b:	21a082        	movi	a8, 33
40081b6e:	201110        	or	a1, a1, a1
40081b71:	011a55        	call4	40082d18 <_Test_8B10D205_p_Assert>
40081b74:	00a1a2        	movi	a10, 0x100
40081b77:	ffd125        	call8	40081888 <_P2>
40081b7a:	0b6d      	mov.n	a6, a11
40081b7c:	170c      	movi.n	a7, 1
40081b7e:	069677        	bne	a6, a7, 40081b88 <L32>
40081b81:	160c      	movi.n	a6, 1
40081b83:	0000c6        	j	40081b8a <L33>
	...

40081b88 <L32>:
40081b88:	060c      	movi.n	a6, 0

40081b8a <L33>:
40081b8a:	ff4d71        	l32r	a7, 400818c0 <_Par1+0x18>
40081b8d:	f8a182        	movi	a8, 0x1f8
40081b90:	807780        	add	a7, a7, a8
40081b93:	1aa082        	movi	a8, 26
40081b96:	201110        	or	a1, a1, a1
40081b99:	0117d5        	call4	40082d18 <_Test_8B10D205_p_Assert>
40081b9c:	ffa032        	movi	a3, 255
40081b9f:	044232        	s8i	a3, a2, 4
40081ba2:	81a032        	movi	a3, 129
40081ba5:	0239      	s32i.n	a3, a2, 0
40081ba7:	040262        	l8ui	a6, a2, 4
40081baa:	ffa072        	movi	a7, 255
40081bad:	0f9677        	bne	a6, a7, 40081bc0 <L34>
40081bb0:	0268      	l32i.n	a6, a2, 0
40081bb2:	81a072        	movi	a7, 129
40081bb5:	079677        	bne	a6, a7, 40081bc0 <L34>
40081bb8:	160c      	movi.n	a6, 1
40081bba:	000106        	j	40081bc2 <L36>
40081bbd:	000000        	ill

40081bc0 <L34>:
40081bc0:	060c      	movi.n	a6, 0

40081bc2 <L36>:
40081bc2:	ff3f71        	l32r	a7, 400818c0 <_Par1+0x18>
40081bc5:	14a282        	movi	a8, 0x214
40081bc8:	807780        	add	a7, a7, a8
40081bcb:	17a082        	movi	a8, 23
40081bce:	201110        	or	a1, a1, a1
40081bd1:	011455        	call4	40082d18 <_Test_8B10D205_p_Assert>
40081bd4:	040232        	l8ui	a3, a2, 4
40081bd7:	331b      	addi.n	a3, a3, 1
40081bd9:	0239      	s32i.n	a3, a2, 0
40081bdb:	0268      	l32i.n	a6, a2, 0
40081bdd:	00a172        	movi	a7, 0x100
40081be0:	049677        	bne	a6, a7, 40081be8 <L37>
40081be3:	160c      	movi.n	a6, 1
40081be5:	000046        	j	40081bea <L38>

40081be8 <L37>:
40081be8:	060c      	movi.n	a6, 0

40081bea <L38>:
40081bea:	ff3571        	l32r	a7, 400818c0 <_Par1+0x18>
40081bed:	2ca282        	movi	a8, 0x22c
40081bf0:	807780        	add	a7, a7, a8
40081bf3:	20a082        	movi	a8, 32
40081bf6:	201110        	or	a1, a1, a1
40081bf9:	0111d5        	call4	40082d18 <_Test_8B10D205_p_Assert>
40081bfc:	040232        	l8ui	a3, a2, 4
40081bff:	0239      	s32i.n	a3, a2, 0
40081c01:	0268      	l32i.n	a6, a2, 0
40081c03:	ffa072        	movi	a7, 255
40081c06:	069677        	bne	a6, a7, 40081c10 <L39>
40081c09:	160c      	movi.n	a6, 1
40081c0b:	0000c6        	j	40081c12 <L40>
	...

40081c10 <L39>:
40081c10:	060c      	movi.n	a6, 0

40081c12 <L40>:
40081c12:	ff2b71        	l32r	a7, 400818c0 <_Par1+0x18>
40081c15:	4ca282        	movi	a8, 0x24c
40081c18:	807780        	add	a7, a7, a8
40081c1b:	19a082        	movi	a8, 25
40081c1e:	201110        	or	a1, a1, a1
40081c21:	010f55        	call4	40082d18 <_Test_8B10D205_p_Assert>
40081c24:	ffa032        	movi	a3, 255
40081c27:	084232        	s8i	a3, a2, 8
40081c2a:	080262        	l8ui	a6, a2, 8
40081c2d:	ffa072        	movi	a7, 255
40081c30:	049677        	bne	a6, a7, 40081c38 <L41>
40081c33:	160c      	movi.n	a6, 1
40081c35:	000046        	j	40081c3a <L42>

40081c38 <L41>:
40081c38:	060c      	movi.n	a6, 0

40081c3a <L42>:
40081c3a:	ff2171        	l32r	a7, 400818c0 <_Par1+0x18>
40081c3d:	68a282        	movi	a8, 0x268
40081c40:	807780        	add	a7, a7, a8
40081c43:	1ca082        	movi	a8, 28
40081c46:	201110        	or	a1, a1, a1
40081c49:	010cd5        	call4	40082d18 <_Test_8B10D205_p_Assert>
40081c4c:	81a032        	movi	a3, 129
40081c4f:	0239      	s32i.n	a3, a2, 0
40081c51:	0238      	l32i.n	a3, a2, 0
40081c53:	084232        	s8i	a3, a2, 8
40081c56:	080262        	l8ui	a6, a2, 8
40081c59:	81a072        	movi	a7, 129
40081c5c:	049677        	bne	a6, a7, 40081c64 <L43>
40081c5f:	160c      	movi.n	a6, 1
40081c61:	000046        	j	40081c66 <L44>

40081c64 <L43>:
40081c64:	060c      	movi.n	a6, 0

40081c66 <L44>:
40081c66:	ff1671        	l32r	a7, 400818c0 <_Par1+0x18>
40081c69:	84a282        	movi	a8, 0x284
40081c6c:	807780        	add	a7, a7, a8
40081c6f:	1fa082        	movi	a8, 31
40081c72:	201110        	or	a1, a1, a1
40081c75:	010a15        	call4	40082d18 <_Test_8B10D205_p_Assert>
40081c78:	080232        	l8ui	a3, a2, 8
40081c7b:	331b      	addi.n	a3, a3, 1
40081c7d:	0239      	s32i.n	a3, a2, 0
40081c7f:	0268      	l32i.n	a6, a2, 0
40081c81:	82a072        	movi	a7, 130
40081c84:	049677        	bne	a6, a7, 40081c8c <L45>
40081c87:	160c      	movi.n	a6, 1
40081c89:	000046        	j	40081c8e <L46>

40081c8c <L45>:
40081c8c:	060c      	movi.n	a6, 0

40081c8e <L46>:
40081c8e:	ff0c71        	l32r	a7, 400818c0 <_Par1+0x18>
40081c91:	a4a282        	movi	a8, 0x2a4
40081c94:	778a      	add.n	a7, a7, a8
40081c96:	e81c      	movi.n	a8, 30
40081c98:	201110        	or	a1, a1, a1
40081c9b:	0107d5        	call4	40082d18 <_Test_8B10D205_p_Assert>
40081c9e:	0238      	l32i.n	a3, a2, 0
40081ca0:	0c4232        	s8i	a3, a2, 12
40081ca3:	0c0262        	l8ui	a6, a2, 12
40081ca6:	82a072        	movi	a7, 130
40081ca9:	079677        	bne	a6, a7, 40081cb4 <L47>
40081cac:	160c      	movi.n	a6, 1
40081cae:	000106        	j	40081cb6 <L48>
40081cb1:	000000        	ill

40081cb4 <L47>:
40081cb4:	060c      	movi.n	a6, 0

40081cb6 <L48>:
40081cb6:	ff0271        	l32r	a7, 400818c0 <_Par1+0x18>
40081cb9:	c4a282        	movi	a8, 0x2c4
40081cbc:	807780        	add	a7, a7, a8
40081cbf:	1fa082        	movi	a8, 31
40081cc2:	201110        	or	a1, a1, a1
40081cc5:	010515        	call4	40082d18 <_Test_8B10D205_p_Assert>
40081cc8:	0c0232        	l8ui	a3, a2, 12
40081ccb:	331b      	addi.n	a3, a3, 1
40081ccd:	0239      	s32i.n	a3, a2, 0
40081ccf:	0268      	l32i.n	a6, a2, 0
40081cd1:	83a072        	movi	a7, 131
40081cd4:	049677        	bne	a6, a7, 40081cdc <L49>
40081cd7:	160c      	movi.n	a6, 1
40081cd9:	000046        	j	40081cde <L50>

40081cdc <L49>:
40081cdc:	060c      	movi.n	a6, 0

40081cde <L50>:
40081cde:	fef871        	l32r	a7, 400818c0 <_Par1+0x18>
40081ce1:	e4a282        	movi	a8, 0x2e4
40081ce4:	807780        	add	a7, a7, a8
40081ce7:	2ca082        	movi	a8, 44
40081cea:	201110        	or	a1, a1, a1
40081ced:	010295        	call4	40082d18 <_Test_8B10D205_p_Assert>
40081cf0:	0c0232        	l8ui	a3, a2, 12
40081cf3:	0239      	s32i.n	a3, a2, 0
40081cf5:	0268      	l32i.n	a6, a2, 0
40081cf7:	82a072        	movi	a7, 130
40081cfa:	069677        	bne	a6, a7, 40081d04 <L51>
40081cfd:	160c      	movi.n	a6, 1
40081cff:	0000c6        	j	40081d06 <L52>
	...

40081d04 <L51>:
40081d04:	060c      	movi.n	a6, 0

40081d06 <L52>:
40081d06:	feee71        	l32r	a7, 400818c0 <_Par1+0x18>
40081d09:	10a382        	movi	a8, 0x310
40081d0c:	778a      	add.n	a7, a7, a8
40081d0e:	882c      	movi.n	a8, 40
40081d10:	201110        	or	a1, a1, a1
40081d13:	010055        	call4	40082d18 <_Test_8B10D205_p_Assert>
40081d16:	0238      	l32i.n	a3, a2, 0
40081d18:	044232        	s8i	a3, a2, 4
40081d1b:	0268      	l32i.n	a6, a2, 0
40081d1d:	040272        	l8ui	a7, a2, 4
40081d20:	049677        	bne	a6, a7, 40081d28 <L53>
40081d23:	160c      	movi.n	a6, 1
40081d25:	000046        	j	40081d2a <L54>

40081d28 <L53>:
40081d28:	060c      	movi.n	a6, 0

40081d2a <L54>:
40081d2a:	fee571        	l32r	a7, 400818c0 <_Par1+0x18>
40081d2d:	38a382        	movi	a8, 0x338
40081d30:	807780        	add	a7, a7, a8
40081d33:	0ea082        	movi	a8, 14
40081d36:	201110        	or	a1, a1, a1
40081d39:	00fdd5        	call4	40082d18 <_Test_8B10D205_p_Assert>
40081d3c:	ffb955        	call4	400818d4 <_Ret1>
40081d3f:	073d      	mov.n	a3, a7
40081d41:	0239      	s32i.n	a3, a2, 0
40081d43:	0268      	l32i.n	a6, a2, 0
40081d45:	870c      	movi.n	a7, 8
40081d47:	059677        	bne	a6, a7, 40081d50 <L55>
40081d4a:	160c      	movi.n	a6, 1
40081d4c:	000086        	j	40081d52 <L56>
	...

40081d50 <L55>:
40081d50:	060c      	movi.n	a6, 0

40081d52 <L56>:
40081d52:	fedb71        	l32r	a7, 400818c0 <_Par1+0x18>
40081d55:	48a382        	movi	a8, 0x348
40081d58:	807780        	add	a7, a7, a8
40081d5b:	12a082        	movi	a8, 18
40081d5e:	201110        	or	a1, a1, a1
40081d61:	00fb55        	call4	40082d18 <_Test_8B10D205_p_Assert>
40081d64:	80a062        	movi	a6, 128
40081d67:	ffb415        	call4	400818a8 <_Par1>
40081d6a:	201110        	or	a1, a1, a1
40081d6d:	00eb55        	call4	40082c24 <_Test_8B10D205_p_End>
40081d70:	fed461        	l32r	a6, 400818c0 <_Par1+0x18>
40081d73:	5ca372        	movi	a7, 0x35c
40081d76:	667a      	add.n	a6, a6, a7
40081d78:	570c      	movi.n	a7, 5
40081d7a:	201110        	or	a1, a1, a1
40081d7d:	0112d5        	call4	40082eac <_Out_70D42FFB_p_String>
40081d80:	201110        	or	a1, a1, a1
40081d83:	016095        	call4	4008338c <_Out_70D42FFB_p_Ln>
40081d86:	f01d      	retw.n
40081d88:	fb11d4        	lsi	f13, a1, 0x3ec
40081d8b:	3f          	.byte 0x3f

40081d8c <_ArrayLen>:
40081d8c:	004136        	entry	a1, 32
40081d8f:	0129      	s32i.n	a2, a1, 0
40081d91:	1139      	s32i.n	a3, a1, 4
40081d93:	fffd21        	l32r	a2, 40081d88 <L56+0x36>
40081d96:	1138      	l32i.n	a3, a1, 4
40081d98:	f01d      	retw.n
40081d9a:	e00000        	subx4	a0, a0, a0
40081d9d:	3ffb07        	bbsi	a11, 16, 40081de0 <_DefFunc_C71BD61F_p_Run+0x18>
40081da0:	c80000        	lsi	f0, a0, 0x320
40081da3:	300f42        	l8ui	a4, a15, 48
40081da6:	001f00        	movsp	a0, a15
40081da9:	40e000        	nsa	a0, a0
40081dac:	0018      	l32i.n	a1, a0, 0
40081dae:	860200        	lsi	f0, a2, 0x218
40081db1:	5cdb      	addi.n	a5, a12, 13
40081db3:	000a      	add.n	a0, a0, a0
40081db5:	f5a300        	extui	a10, a0, 19, 16
40081db8:	2479      	s32i.n	a7, a4, 8
40081dba:	ff          	.byte 0xff
40081dbb:	ff          	.byte 0xff
40081dbc:	2479      	s32i.n	a7, a4, 8
40081dbe:	0a5c      	movi.n	a10, 80
40081dc0:	a00000        	addx4	a0, a0, a0
40081dc3:	000040        	lsi	f4, a0, 0
40081dc6:	41c8      	l32i.n	a12, a1, 16

40081dc8 <_DefFunc_C71BD61F_p_Run>:
40081dc8:	016136        	entry	a1, 176
40081dcb:	ffef21        	l32r	a2, 40081d88 <L56+0x36>
40081dce:	fff361        	l32r	a6, 40081d9c <_ArrayLen+0x10>
40081dd1:	471c      	movi.n	a7, 20
40081dd3:	201110        	or	a1, a1, a1
40081dd6:	010d55        	call4	40082eac <_Out_70D42FFB_p_String>
40081dd9:	201110        	or	a1, a1, a1
40081ddc:	0108d5        	call4	40082e6c <_Out_70D42FFB_p_Flush>
40081ddf:	931c      	movi.n	a3, 25
40081de1:	0139      	s32i.n	a3, a1, 0
40081de3:	0138      	l32i.n	a3, a1, 0
40081de5:	603030        	neg	a3, a3
40081de8:	603130        	abs	a3, a3
40081deb:	1139      	s32i.n	a3, a1, 4
40081ded:	ffec31        	l32r	a3, 40081da0 <_ArrayLen+0x14>
40081df0:	156132        	s32i	a3, a1, 84
40081df3:	152132        	l32i	a3, a1, 84
40081df6:	fa0350        	wfr	f0, a3
40081df9:	fa0060        	neg.s	f0, f0
40081dfc:	fa3040        	rfr	a3, f0
40081dff:	1133f0        	slli	a3, a3, 1
40081e02:	413130        	srli	a3, a3, 1
40081e05:	166132        	s32i	a3, a1, 88
40081e08:	0138      	l32i.n	a3, a1, 0
40081e0a:	140c      	movi.n	a4, 1
40081e0c:	103340        	and	a3, a3, a4
40081e0f:	6c4132        	s8i	a3, a1, 108
40081e12:	030c      	movi.n	a3, 0
40081e14:	6d4132        	s8i	a3, a1, 109
40081e17:	931c      	movi.n	a3, 25
40081e19:	026132        	s32i	a3, a1, 8
40081e1c:	70c162        	addi	a6, a1, 112
40081e1f:	971c      	movi.n	a7, 25
40081e21:	fff695        	call4	40081d8c <_ArrayLen>
40081e24:	073d      	mov.n	a3, a7
40081e26:	3139      	s32i.n	a3, a1, 12
40081e28:	034c      	movi.n	a3, 64
40081e2a:	4139      	s32i.n	a3, a1, 16
40081e2c:	e37c      	movi.n	a3, -2
40081e2e:	5139      	s32i.n	a3, a1, 20
40081e30:	ffdd31        	l32r	a3, 40081da4 <_ArrayLen+0x18>
40081e33:	6139      	s32i.n	a3, a1, 24
40081e35:	6ba032        	movi	a3, 107
40081e38:	7139      	s32i.n	a3, a1, 28
40081e3a:	ffdb31        	l32r	a3, 40081da8 <_ArrayLen+0x1c>
40081e3d:	176132        	s32i	a3, a1, 92
40081e40:	61a032        	movi	a3, 97
40081e43:	8139      	s32i.n	a3, a1, 32
40081e45:	130c      	movi.n	a3, 1
40081e47:	9139      	s32i.n	a3, a1, 36
40081e49:	430c      	movi.n	a3, 4
40081e4b:	a139      	s32i.n	a3, a1, 40
40081e4d:	61a032        	movi	a3, 97
40081e50:	8c4132        	s8i	a3, a1, 140
40081e53:	430c      	movi.n	a3, 4
40081e55:	b139      	s32i.n	a3, a1, 44
40081e57:	b138      	l32i.n	a3, a1, 44
40081e59:	331b      	addi.n	a3, a3, 1
40081e5b:	b139      	s32i.n	a3, a1, 44
40081e5d:	330c      	movi.n	a3, 3
40081e5f:	c139      	s32i.n	a3, a1, 48
40081e61:	c138      	l32i.n	a3, a1, 48
40081e63:	337b      	addi.n	a3, a3, 7
40081e65:	c139      	s32i.n	a3, a1, 48
40081e67:	530c      	movi.n	a3, 5
40081e69:	d139      	s32i.n	a3, a1, 52
40081e6b:	d138      	l32i.n	a3, a1, 52
40081e6d:	330b      	addi.n	a3, a3, -1
40081e6f:	d139      	s32i.n	a3, a1, 52
40081e71:	730c      	movi.n	a3, 7
40081e73:	e139      	s32i.n	a3, a1, 56
40081e75:	e138      	l32i.n	a3, a1, 56
40081e77:	fdc332        	addi	a3, a3, -3
40081e7a:	e139      	s32i.n	a3, a1, 56
40081e7c:	831c      	movi.n	a3, 24
40081e7e:	246132        	s32i	a3, a1, 144
40081e81:	90a032        	movi	a3, 144
40081e84:	331a      	add.n	a3, a3, a1
40081e86:	0348      	l32i.n	a4, a3, 0
40081e88:	150c      	movi.n	a5, 1
40081e8a:	115590        	slli	a5, a5, 7
40081e8d:	204450        	or	a4, a4, a5
40081e90:	0349      	s32i.n	a4, a3, 0
40081e92:	831c      	movi.n	a3, 24
40081e94:	256132        	s32i	a3, a1, 148
40081e97:	94a032        	movi	a3, 148
40081e9a:	331a      	add.n	a3, a3, a1
40081e9c:	0348      	l32i.n	a4, a3, 0
40081e9e:	150c      	movi.n	a5, 1
40081ea0:	1155d0        	slli	a5, a5, 3
40081ea3:	f67c      	movi.n	a6, -1
40081ea5:	305560        	xor	a5, a5, a6
40081ea8:	104450        	and	a4, a4, a5
40081eab:	0349      	s32i.n	a4, a3, 0
40081ead:	831c      	movi.n	a3, 24
40081eaf:	266132        	s32i	a3, a1, 152
40081eb2:	98a032        	movi	a3, 152
40081eb5:	331a      	add.n	a3, a3, a1
40081eb7:	0348      	l32i.n	a4, a3, 0
40081eb9:	150c      	movi.n	a5, 1
40081ebb:	0168      	l32i.n	a6, a1, 0
40081ebd:	401600        	ssl	a6
40081ec0:	a15500        	sll	a5, a5
40081ec3:	204450        	or	a4, a4, a5
40081ec6:	0349      	s32i.n	a4, a3, 0
40081ec8:	ffb931        	l32r	a3, 40081dac <_ArrayLen+0x20>
40081ecb:	276132        	s32i	a3, a1, 156
40081ece:	9ca032        	movi	a3, 156
40081ed1:	331a      	add.n	a3, a3, a1
40081ed3:	0348      	l32i.n	a4, a3, 0
40081ed5:	150c      	movi.n	a5, 1
40081ed7:	0168      	l32i.n	a6, a1, 0
40081ed9:	401600        	ssl	a6
40081edc:	a15500        	sll	a5, a5
40081edf:	f67c      	movi.n	a6, -1
40081ee1:	305560        	xor	a5, a5, a6
40081ee4:	104450        	and	a4, a4, a5
40081ee7:	0349      	s32i.n	a4, a3, 0
40081ee9:	ffb131        	l32r	a3, 40081db0 <_ArrayLen+0x24>
40081eec:	f139      	s32i.n	a3, a1, 60
40081eee:	ffb131        	l32r	a3, 40081db4 <_ArrayLen+0x28>
40081ef1:	106132        	s32i	a3, a1, 64
40081ef4:	ffb131        	l32r	a3, 40081db8 <_ArrayLen+0x2c>
40081ef7:	116132        	s32i	a3, a1, 68
40081efa:	ffb031        	l32r	a3, 40081dbc <_ArrayLen+0x30>
40081efd:	126132        	s32i	a3, a1, 72
40081f00:	530c      	movi.n	a3, 5
40081f02:	740c      	movi.n	a4, 7
40081f04:	433340        	min	a3, a3, a4
40081f07:	136132        	s32i	a3, a1, 76
40081f0a:	530c      	movi.n	a3, 5
40081f0c:	740c      	movi.n	a4, 7
40081f0e:	533340        	max	a3, a3, a4
40081f11:	146132        	s32i	a3, a1, 80
40081f14:	ffab31        	l32r	a3, 40081dc0 <_ArrayLen+0x34>
40081f17:	ffa441        	l32r	a4, 40081da8 <_ArrayLen+0x1c>
40081f1a:	433340        	min	a3, a3, a4
40081f1d:	186132        	s32i	a3, a1, 96
40081f20:	ffa831        	l32r	a3, 40081dc0 <_ArrayLen+0x34>
40081f23:	ffa141        	l32r	a4, 40081da8 <_ArrayLen+0x1c>
40081f26:	533340        	max	a3, a3, a4
40081f29:	196132        	s32i	a3, a1, 100
40081f2c:	ffa631        	l32r	a3, 40081dc4 <_ArrayLen+0x38>
40081f2f:	fa0350        	wfr	f0, a3
40081f32:	004d      	mov.n	a4, a0
40081f34:	201110        	or	a1, a1, a1
40081f37:	fe5185        	call0	40080450 <__fsqrt32>
40081f3a:	040d      	mov.n	a0, a4
40081f3c:	fa3140        	rfr	a3, f1
40081f3f:	1a6132        	s32i	a3, a1, 104
40081f42:	164c      	movi.n	a6, 65
40081f44:	201110        	or	a1, a1, a1
40081f47:	00ced5        	call4	40082c34 <_Test_8B10D205_p_First>
40081f4a:	0168      	l32i.n	a6, a1, 0
40081f4c:	971c      	movi.n	a7, 25
40081f4e:	069677        	bne	a6, a7, 40081f58 <L1>
40081f51:	160c      	movi.n	a6, 1
40081f53:	0000c6        	j	40081f5a <L2>
	...

40081f58 <L1>:
40081f58:	060c      	movi.n	a6, 0

40081f5a <L2>:
40081f5a:	ff9071        	l32r	a7, 40081d9c <_ArrayLen+0x10>
40081f5d:	14c772        	addi	a7, a7, 20
40081f60:	f80c      	movi.n	a8, 15
40081f62:	201110        	or	a1, a1, a1
40081f65:	00db15        	call4	40082d18 <_Test_8B10D205_p_Assert>
40081f68:	1168      	l32i.n	a6, a1, 4
40081f6a:	971c      	movi.n	a7, 25
40081f6c:	049677        	bne	a6, a7, 40081f74 <L3>
40081f6f:	160c      	movi.n	a6, 1
40081f71:	000046        	j	40081f76 <L4>

40081f74 <L3>:
40081f74:	060c      	movi.n	a6, 0

40081f76 <L4>:
40081f76:	ff8971        	l32r	a7, 40081d9c <_ArrayLen+0x10>
40081f79:	24c772        	addi	a7, a7, 36
40081f7c:	f80c      	movi.n	a8, 15
40081f7e:	201110        	or	a1, a1, a1
40081f81:	00d955        	call4	40082d18 <_Test_8B10D205_p_Assert>
40081f84:	152162        	l32i	a6, a1, 84
40081f87:	ff8671        	l32r	a7, 40081da0 <_ArrayLen+0x14>
40081f8a:	069677        	bne	a6, a7, 40081f94 <L5>
40081f8d:	160c      	movi.n	a6, 1
40081f8f:	0000c6        	j	40081f96 <L6>
	...

40081f94 <L5>:
40081f94:	060c      	movi.n	a6, 0

40081f96 <L6>:
40081f96:	ff8171        	l32r	a7, 40081d9c <_ArrayLen+0x10>
40081f99:	34c772        	addi	a7, a7, 52
40081f9c:	c80c      	movi.n	a8, 12
40081f9e:	201110        	or	a1, a1, a1
40081fa1:	00d755        	call4	40082d18 <_Test_8B10D205_p_Assert>
40081fa4:	162162        	l32i	a6, a1, 88
40081fa7:	ff7e71        	l32r	a7, 40081da0 <_ArrayLen+0x14>
40081faa:	069677        	bne	a6, a7, 40081fb4 <L7>
40081fad:	160c      	movi.n	a6, 1
40081faf:	0000c6        	j	40081fb6 <L8>
	...

40081fb4 <L7>:
40081fb4:	060c      	movi.n	a6, 0

40081fb6 <L8>:
40081fb6:	ff7971        	l32r	a7, 40081d9c <_ArrayLen+0x10>
40081fb9:	40c772        	addi	a7, a7, 64
40081fbc:	c80c      	movi.n	a8, 12
40081fbe:	201110        	or	a1, a1, a1
40081fc1:	00d555        	call4	40082d18 <_Test_8B10D205_p_Assert>
40081fc4:	6c0162        	l8ui	a6, a1, 108
40081fc7:	170c      	movi.n	a7, 1
40081fc9:	079677        	bne	a6, a7, 40081fd4 <L9>
40081fcc:	160c      	movi.n	a6, 1
40081fce:	000106        	j	40081fd6 <L10>
40081fd1:	000000        	ill

40081fd4 <L9>:
40081fd4:	060c      	movi.n	a6, 0

40081fd6 <L10>:
40081fd6:	ff7171        	l32r	a7, 40081d9c <_ArrayLen+0x10>
40081fd9:	4cc772        	addi	a7, a7, 76
40081fdc:	780c      	movi.n	a8, 7
40081fde:	201110        	or	a1, a1, a1
40081fe1:	00d355        	call4	40082d18 <_Test_8B10D205_p_Assert>
40081fe4:	6d0162        	l8ui	a6, a1, 109
40081fe7:	070c      	movi.n	a7, 0
40081fe9:	079677        	bne	a6, a7, 40081ff4 <L11>
40081fec:	160c      	movi.n	a6, 1
40081fee:	000106        	j	40081ff6 <L12>
40081ff1:	000000        	ill

40081ff4 <L11>:
40081ff4:	060c      	movi.n	a6, 0

40081ff6 <L12>:
40081ff6:	ff6971        	l32r	a7, 40081d9c <_ArrayLen+0x10>
40081ff9:	54c772        	addi	a7, a7, 84
40081ffc:	780c      	movi.n	a8, 7
40081ffe:	201110        	or	a1, a1, a1
40082001:	00d155        	call4	40082d18 <_Test_8B10D205_p_Assert>
40082004:	2168      	l32i.n	a6, a1, 8
40082006:	971c      	movi.n	a7, 25
40082008:	049677        	bne	a6, a7, 40082010 <L13>
4008200b:	160c      	movi.n	a6, 1
4008200d:	000046        	j	40082012 <L14>

40082010 <L13>:
40082010:	060c      	movi.n	a6, 0

40082012 <L14>:
40082012:	ff6271        	l32r	a7, 40081d9c <_ArrayLen+0x10>
40082015:	5cc772        	addi	a7, a7, 92
40082018:	b80c      	movi.n	a8, 11
4008201a:	201110        	or	a1, a1, a1
4008201d:	00cf95        	call4	40082d18 <_Test_8B10D205_p_Assert>
40082020:	3168      	l32i.n	a6, a1, 12
40082022:	971c      	movi.n	a7, 25
40082024:	049677        	bne	a6, a7, 4008202c <L15>
40082027:	160c      	movi.n	a6, 1
40082029:	000046        	j	4008202e <L16>

4008202c <L15>:
4008202c:	060c      	movi.n	a6, 0

4008202e <L16>:
4008202e:	ff5b71        	l32r	a7, 40081d9c <_ArrayLen+0x10>
40082031:	68c772        	addi	a7, a7, 104
40082034:	181c      	movi.n	a8, 17
40082036:	201110        	or	a1, a1, a1
40082039:	00cdd5        	call4	40082d18 <_Test_8B10D205_p_Assert>
4008203c:	4168      	l32i.n	a6, a1, 16
4008203e:	074c      	movi.n	a7, 64
40082040:	049677        	bne	a6, a7, 40082048 <L17>
40082043:	160c      	movi.n	a6, 1
40082045:	000046        	j	4008204a <L18>

40082048 <L17>:
40082048:	060c      	movi.n	a6, 0

4008204a <L18>:
4008204a:	ff5471        	l32r	a7, 40081d9c <_ArrayLen+0x10>
4008204d:	7cc772        	addi	a7, a7, 124
40082050:	a80c      	movi.n	a8, 10
40082052:	201110        	or	a1, a1, a1
40082055:	00cc15        	call4	40082d18 <_Test_8B10D205_p_Assert>
40082058:	5168      	l32i.n	a6, a1, 20
4008205a:	e77c      	movi.n	a7, -2
4008205c:	049677        	bne	a6, a7, 40082064 <L19>
4008205f:	160c      	movi.n	a6, 1
40082061:	000046        	j	40082066 <L20>

40082064 <L19>:
40082064:	060c      	movi.n	a6, 0

40082066 <L20>:
40082066:	ff4d71        	l32r	a7, 40081d9c <_ArrayLen+0x10>
40082069:	88a082        	movi	a8, 136
4008206c:	778a      	add.n	a7, a7, a8
4008206e:	b80c      	movi.n	a8, 11
40082070:	201110        	or	a1, a1, a1
40082073:	00ca55        	call4	40082d18 <_Test_8B10D205_p_Assert>
40082076:	6168      	l32i.n	a6, a1, 24
40082078:	ff4b71        	l32r	a7, 40081da4 <_ArrayLen+0x18>
4008207b:	059677        	bne	a6, a7, 40082084 <L21>
4008207e:	160c      	movi.n	a6, 1
40082080:	000086        	j	40082086 <L22>
	...

40082084 <L21>:
40082084:	060c      	movi.n	a6, 0

40082086 <L22>:
40082086:	ff4571        	l32r	a7, 40081d9c <_ArrayLen+0x10>
40082089:	94a082        	movi	a8, 148
4008208c:	778a      	add.n	a7, a7, a8
4008208e:	980c      	movi.n	a8, 9
40082090:	201110        	or	a1, a1, a1
40082093:	00c855        	call4	40082d18 <_Test_8B10D205_p_Assert>
40082096:	7168      	l32i.n	a6, a1, 28
40082098:	6ba072        	movi	a7, 107
4008209b:	059677        	bne	a6, a7, 400820a4 <L23>
4008209e:	160c      	movi.n	a6, 1
400820a0:	000086        	j	400820a6 <L24>
	...

400820a4 <L23>:
400820a4:	060c      	movi.n	a6, 0

400820a6 <L24>:
400820a6:	ff3d71        	l32r	a7, 40081d9c <_ArrayLen+0x10>
400820a9:	a0a082        	movi	a8, 160
400820ac:	807780        	add	a7, a7, a8
400820af:	09a082        	movi	a8, 9
400820b2:	201110        	or	a1, a1, a1
400820b5:	00c615        	call4	40082d18 <_Test_8B10D205_p_Assert>
400820b8:	172162        	l32i	a6, a1, 92
400820bb:	ff3b71        	l32r	a7, 40081da8 <_ArrayLen+0x1c>
400820be:	069677        	bne	a6, a7, 400820c8 <L25>
400820c1:	160c      	movi.n	a6, 1
400820c3:	0000c6        	j	400820ca <L26>
	...

400820c8 <L25>:
400820c8:	060c      	movi.n	a6, 0

400820ca <L26>:
400820ca:	ff3471        	l32r	a7, 40081d9c <_ArrayLen+0x10>
400820cd:	aca082        	movi	a8, 172
400820d0:	778a      	add.n	a7, a7, a8
400820d2:	780c      	movi.n	a8, 7
400820d4:	201110        	or	a1, a1, a1
400820d7:	00c415        	call4	40082d18 <_Test_8B10D205_p_Assert>
400820da:	8168      	l32i.n	a6, a1, 32
400820dc:	61a072        	movi	a7, 97
400820df:	059677        	bne	a6, a7, 400820e8 <L27>
400820e2:	160c      	movi.n	a6, 1
400820e4:	000086        	j	400820ea <L28>
	...

400820e8 <L27>:
400820e8:	060c      	movi.n	a6, 0

400820ea <L28>:
400820ea:	ff2c71        	l32r	a7, 40081d9c <_ArrayLen+0x10>
400820ed:	b4a082        	movi	a8, 180
400820f0:	778a      	add.n	a7, a7, a8
400820f2:	780c      	movi.n	a8, 7
400820f4:	201110        	or	a1, a1, a1
400820f7:	00c215        	call4	40082d18 <_Test_8B10D205_p_Assert>
400820fa:	9168      	l32i.n	a6, a1, 36
400820fc:	170c      	movi.n	a7, 1
400820fe:	069677        	bne	a6, a7, 40082108 <L29>
40082101:	160c      	movi.n	a6, 1
40082103:	0000c6        	j	4008210a <L30>
	...

40082108 <L29>:
40082108:	060c      	movi.n	a6, 0

4008210a <L30>:
4008210a:	ff2471        	l32r	a7, 40081d9c <_ArrayLen+0x10>
4008210d:	bca082        	movi	a8, 188
40082110:	778a      	add.n	a7, a7, a8
40082112:	a80c      	movi.n	a8, 10
40082114:	201110        	or	a1, a1, a1
40082117:	00c015        	call4	40082d18 <_Test_8B10D205_p_Assert>
4008211a:	a168      	l32i.n	a6, a1, 40
4008211c:	470c      	movi.n	a7, 4
4008211e:	069677        	bne	a6, a7, 40082128 <L31>
40082121:	160c      	movi.n	a6, 1
40082123:	0000c6        	j	4008212a <L32>
	...

40082128 <L31>:
40082128:	060c      	movi.n	a6, 0

4008212a <L32>:
4008212a:	ff1c71        	l32r	a7, 40081d9c <_ArrayLen+0x10>
4008212d:	c8a082        	movi	a8, 200
40082130:	807780        	add	a7, a7, a8
40082133:	09a082        	movi	a8, 9
40082136:	201110        	or	a1, a1, a1
40082139:	00bdd5        	call4	40082d18 <_Test_8B10D205_p_Assert>
4008213c:	8c0162        	l8ui	a6, a1, 140
4008213f:	61a072        	movi	a7, 97
40082142:	069677        	bne	a6, a7, 4008214c <L33>
40082145:	160c      	movi.n	a6, 1
40082147:	0000c6        	j	4008214e <L34>
	...

4008214c <L33>:
4008214c:	060c      	movi.n	a6, 0

4008214e <L34>:
4008214e:	ff1371        	l32r	a7, 40081d9c <_ArrayLen+0x10>
40082151:	d4a082        	movi	a8, 212
40082154:	778a      	add.n	a7, a7, a8
40082156:	780c      	movi.n	a8, 7
40082158:	201110        	or	a1, a1, a1
4008215b:	00bbd5        	call4	40082d18 <_Test_8B10D205_p_Assert>
4008215e:	b168      	l32i.n	a6, a1, 44
40082160:	570c      	movi.n	a7, 5
40082162:	069677        	bne	a6, a7, 4008216c <L35>
40082165:	160c      	movi.n	a6, 1
40082167:	0000c6        	j	4008216e <L36>
	...

4008216c <L35>:
4008216c:	060c      	movi.n	a6, 0

4008216e <L36>:
4008216e:	ff0b71        	l32r	a7, 40081d9c <_ArrayLen+0x10>
40082171:	dca082        	movi	a8, 220
40082174:	778a      	add.n	a7, a7, a8
40082176:	780c      	movi.n	a8, 7
40082178:	201110        	or	a1, a1, a1
4008217b:	00b9d5        	call4	40082d18 <_Test_8B10D205_p_Assert>
4008217e:	c168      	l32i.n	a6, a1, 48
40082180:	a70c      	movi.n	a7, 10
40082182:	069677        	bne	a6, a7, 4008218c <L37>
40082185:	160c      	movi.n	a6, 1
40082187:	0000c6        	j	4008218e <L38>
	...

4008218c <L37>:
4008218c:	060c      	movi.n	a6, 0

4008218e <L38>:
4008218e:	ff0371        	l32r	a7, 40081d9c <_ArrayLen+0x10>
40082191:	e4a082        	movi	a8, 228
40082194:	778a      	add.n	a7, a7, a8
40082196:	a80c      	movi.n	a8, 10
40082198:	201110        	or	a1, a1, a1
4008219b:	00b7d5        	call4	40082d18 <_Test_8B10D205_p_Assert>
4008219e:	d168      	l32i.n	a6, a1, 52
400821a0:	470c      	movi.n	a7, 4
400821a2:	069677        	bne	a6, a7, 400821ac <L39>
400821a5:	160c      	movi.n	a6, 1
400821a7:	0000c6        	j	400821ae <L40>
	...

400821ac <L39>:
400821ac:	060c      	movi.n	a6, 0

400821ae <L40>:
400821ae:	fefb71        	l32r	a7, 40081d9c <_ArrayLen+0x10>
400821b1:	f0a082        	movi	a8, 240
400821b4:	778a      	add.n	a7, a7, a8
400821b6:	780c      	movi.n	a8, 7
400821b8:	201110        	or	a1, a1, a1
400821bb:	00b5d5        	call4	40082d18 <_Test_8B10D205_p_Assert>
400821be:	e168      	l32i.n	a6, a1, 56
400821c0:	470c      	movi.n	a7, 4
400821c2:	069677        	bne	a6, a7, 400821cc <L41>
400821c5:	160c      	movi.n	a6, 1
400821c7:	0000c6        	j	400821ce <L42>
	...

400821cc <L41>:
400821cc:	060c      	movi.n	a6, 0

400821ce <L42>:
400821ce:	fef371        	l32r	a7, 40081d9c <_ArrayLen+0x10>
400821d1:	f8a082        	movi	a8, 248
400821d4:	807780        	add	a7, a7, a8
400821d7:	0aa082        	movi	a8, 10
400821da:	201110        	or	a1, a1, a1
400821dd:	00b395        	call4	40082d18 <_Test_8B10D205_p_Assert>
400821e0:	242162        	l32i	a6, a1, 144
400821e3:	98a072        	movi	a7, 152
400821e6:	069677        	bne	a6, a7, 400821f0 <L43>
400821e9:	160c      	movi.n	a6, 1
400821eb:	0000c6        	j	400821f2 <L44>
	...

400821f0 <L43>:
400821f0:	060c      	movi.n	a6, 0

400821f2 <L44>:
400821f2:	feea71        	l32r	a7, 40081d9c <_ArrayLen+0x10>
400821f5:	04a182        	movi	a8, 0x104
400821f8:	807780        	add	a7, a7, a8
400821fb:	0ba082        	movi	a8, 11
400821fe:	201110        	or	a1, a1, a1
40082201:	00b155        	call4	40082d18 <_Test_8B10D205_p_Assert>
40082204:	252162        	l32i	a6, a1, 148
40082207:	071c      	movi.n	a7, 16
40082209:	079677        	bne	a6, a7, 40082214 <L45>
4008220c:	160c      	movi.n	a6, 1
4008220e:	000106        	j	40082216 <L46>
40082211:	000000        	ill

40082214 <L45>:
40082214:	060c      	movi.n	a6, 0

40082216 <L46>:
40082216:	fee171        	l32r	a7, 40081d9c <_ArrayLen+0x10>
40082219:	10a182        	movi	a8, 0x110
4008221c:	807780        	add	a7, a7, a8
4008221f:	0ba082        	movi	a8, 11
40082222:	201110        	or	a1, a1, a1
40082225:	00af15        	call4	40082d18 <_Test_8B10D205_p_Assert>
40082228:	262162        	l32i	a6, a1, 152
4008222b:	fee071        	l32r	a7, 40081dac <_ArrayLen+0x20>
4008222e:	069677        	bne	a6, a7, 40082238 <L47>
40082231:	160c      	movi.n	a6, 1
40082233:	0000c6        	j	4008223a <L48>
	...

40082238 <L47>:
40082238:	060c      	movi.n	a6, 0

4008223a <L48>:
4008223a:	fed871        	l32r	a7, 40081d9c <_ArrayLen+0x10>
4008223d:	1ca182        	movi	a8, 0x11c
40082240:	807780        	add	a7, a7, a8
40082243:	0ba082        	movi	a8, 11
40082246:	201110        	or	a1, a1, a1
40082249:	00acd5        	call4	40082d18 <_Test_8B10D205_p_Assert>
4008224c:	272162        	l32i	a6, a1, 156
4008224f:	871c      	movi.n	a7, 24
40082251:	079677        	bne	a6, a7, 4008225c <L49>
40082254:	160c      	movi.n	a6, 1
40082256:	000106        	j	4008225e <L50>
40082259:	000000        	ill

4008225c <L49>:
4008225c:	060c      	movi.n	a6, 0

4008225e <L50>:
4008225e:	fecf71        	l32r	a7, 40081d9c <_ArrayLen+0x10>
40082261:	28a182        	movi	a8, 0x128
40082264:	778a      	add.n	a7, a7, a8
40082266:	b80c      	movi.n	a8, 11
40082268:	201110        	or	a1, a1, a1
4008226b:	00aad5        	call4	40082d18 <_Test_8B10D205_p_Assert>
4008226e:	f168      	l32i.n	a6, a1, 60
40082270:	fed071        	l32r	a7, 40081db0 <_ArrayLen+0x24>
40082273:	059677        	bne	a6, a7, 4008227c <L51>
40082276:	160c      	movi.n	a6, 1
40082278:	000086        	j	4008227e <L52>
	...

4008227c <L51>:
4008227c:	060c      	movi.n	a6, 0

4008227e <L52>:
4008227e:	fec771        	l32r	a7, 40081d9c <_ArrayLen+0x10>
40082281:	34a182        	movi	a8, 0x134
40082284:	807780        	add	a7, a7, a8
40082287:	07a082        	movi	a8, 7
4008228a:	201110        	or	a1, a1, a1
4008228d:	00a895        	call4	40082d18 <_Test_8B10D205_p_Assert>
40082290:	102162        	l32i	a6, a1, 64
40082293:	fec871        	l32r	a7, 40081db4 <_ArrayLen+0x28>
40082296:	069677        	bne	a6, a7, 400822a0 <L53>
40082299:	160c      	movi.n	a6, 1
4008229b:	0000c6        	j	400822a2 <L54>
	...

400822a0 <L53>:
400822a0:	060c      	movi.n	a6, 0

400822a2 <L54>:
400822a2:	febe71        	l32r	a7, 40081d9c <_ArrayLen+0x10>
400822a5:	3ca182        	movi	a8, 0x13c
400822a8:	807780        	add	a7, a7, a8
400822ab:	09a082        	movi	a8, 9
400822ae:	201110        	or	a1, a1, a1
400822b1:	00a655        	call4	40082d18 <_Test_8B10D205_p_Assert>
400822b4:	112162        	l32i	a6, a1, 68
400822b7:	fec071        	l32r	a7, 40081db8 <_ArrayLen+0x2c>
400822ba:	069677        	bne	a6, a7, 400822c4 <L55>
400822bd:	160c      	movi.n	a6, 1
400822bf:	0000c6        	j	400822c6 <L56>
	...

400822c4 <L55>:
400822c4:	060c      	movi.n	a6, 0

400822c6 <L56>:
400822c6:	feb571        	l32r	a7, 40081d9c <_ArrayLen+0x10>
400822c9:	48a182        	movi	a8, 0x148
400822cc:	807780        	add	a7, a7, a8
400822cf:	09a082        	movi	a8, 9
400822d2:	201110        	or	a1, a1, a1
400822d5:	00a415        	call4	40082d18 <_Test_8B10D205_p_Assert>
400822d8:	122162        	l32i	a6, a1, 72
400822db:	feb871        	l32r	a7, 40081dbc <_ArrayLen+0x30>
400822de:	069677        	bne	a6, a7, 400822e8 <L57>
400822e1:	160c      	movi.n	a6, 1
400822e3:	0000c6        	j	400822ea <L58>
	...

400822e8 <L57>:
400822e8:	060c      	movi.n	a6, 0

400822ea <L58>:
400822ea:	feac71        	l32r	a7, 40081d9c <_ArrayLen+0x10>
400822ed:	54a182        	movi	a8, 0x154
400822f0:	807780        	add	a7, a7, a8
400822f3:	09a082        	movi	a8, 9
400822f6:	201110        	or	a1, a1, a1
400822f9:	00a1d5        	call4	40082d18 <_Test_8B10D205_p_Assert>
400822fc:	132162        	l32i	a6, a1, 76
400822ff:	570c      	movi.n	a7, 5
40082301:	079677        	bne	a6, a7, 4008230c <L59>
40082304:	160c      	movi.n	a6, 1
40082306:	000106        	j	4008230e <L60>
40082309:	000000        	ill

4008230c <L59>:
4008230c:	060c      	movi.n	a6, 0

4008230e <L60>:
4008230e:	fea371        	l32r	a7, 40081d9c <_ArrayLen+0x10>
40082311:	60a182        	movi	a8, 0x160
40082314:	807780        	add	a7, a7, a8
40082317:	09a082        	movi	a8, 9
4008231a:	201110        	or	a1, a1, a1
4008231d:	009f95        	call4	40082d18 <_Test_8B10D205_p_Assert>
40082320:	142162        	l32i	a6, a1, 80
40082323:	770c      	movi.n	a7, 7
40082325:	079677        	bne	a6, a7, 40082330 <L61>
40082328:	160c      	movi.n	a6, 1
4008232a:	000106        	j	40082332 <L62>
4008232d:	000000        	ill

40082330 <L61>:
40082330:	060c      	movi.n	a6, 0

40082332 <L62>:
40082332:	fe9a71        	l32r	a7, 40081d9c <_ArrayLen+0x10>
40082335:	6ca182        	movi	a8, 0x16c
40082338:	807780        	add	a7, a7, a8
4008233b:	09a082        	movi	a8, 9
4008233e:	201110        	or	a1, a1, a1
40082341:	009d55        	call4	40082d18 <_Test_8B10D205_p_Assert>
40082344:	182162        	l32i	a6, a1, 96
40082347:	fe9e71        	l32r	a7, 40081dc0 <_ArrayLen+0x34>
4008234a:	069677        	bne	a6, a7, 40082354 <L63>
4008234d:	160c      	movi.n	a6, 1
4008234f:	0000c6        	j	40082356 <L64>
	...

40082354 <L63>:
40082354:	060c      	movi.n	a6, 0

40082356 <L64>:
40082356:	fe9171        	l32r	a7, 40081d9c <_ArrayLen+0x10>
40082359:	78a182        	movi	a8, 0x178
4008235c:	807780        	add	a7, a7, a8
4008235f:	09a082        	movi	a8, 9
40082362:	201110        	or	a1, a1, a1
40082365:	009b15        	call4	40082d18 <_Test_8B10D205_p_Assert>
40082368:	192162        	l32i	a6, a1, 100
4008236b:	fe8f71        	l32r	a7, 40081da8 <_ArrayLen+0x1c>
4008236e:	069677        	bne	a6, a7, 40082378 <L65>
40082371:	160c      	movi.n	a6, 1
40082373:	0000c6        	j	4008237a <L66>
	...

40082378 <L65>:
40082378:	060c      	movi.n	a6, 0

4008237a <L66>:
4008237a:	fe8871        	l32r	a7, 40081d9c <_ArrayLen+0x10>
4008237d:	84a182        	movi	a8, 0x184
40082380:	807780        	add	a7, a7, a8
40082383:	09a082        	movi	a8, 9
40082386:	201110        	or	a1, a1, a1
40082389:	0098d5        	call4	40082d18 <_Test_8B10D205_p_Assert>
4008238c:	1a2162        	l32i	a6, a1, 104
4008238f:	fe8c71        	l32r	a7, 40081dc0 <_ArrayLen+0x34>
40082392:	069677        	bne	a6, a7, 4008239c <L67>
40082395:	160c      	movi.n	a6, 1
40082397:	0000c6        	j	4008239e <L68>
	...

4008239c <L67>:
4008239c:	060c      	movi.n	a6, 0

4008239e <L68>:
4008239e:	fe7f71        	l32r	a7, 40081d9c <_ArrayLen+0x10>
400823a1:	90a182        	movi	a8, 0x190
400823a4:	807780        	add	a7, a7, a8
400823a7:	08a082        	movi	a8, 8
400823aa:	201110        	or	a1, a1, a1
400823ad:	009695        	call4	40082d18 <_Test_8B10D205_p_Assert>
400823b0:	201110        	or	a1, a1, a1
400823b3:	008715        	call4	40082c24 <_Test_8B10D205_p_End>
400823b6:	fe7961        	l32r	a6, 40081d9c <_ArrayLen+0x10>
400823b9:	98a172        	movi	a7, 0x198
400823bc:	806670        	add	a6, a6, a7
400823bf:	05a072        	movi	a7, 5
400823c2:	201110        	or	a1, a1, a1
400823c5:	00ae55        	call4	40082eac <_Out_70D42FFB_p_String>
400823c8:	201110        	or	a1, a1, a1
400823cb:	00fc15        	call4	4008338c <_Out_70D42FFB_p_Ln>
400823ce:	f01d      	retw.n
400823d0:	11d8      	l32i.n	a13, a1, 4
400823d2:	3ffb      	addi.n	a3, a15, 15

400823d4 <_Put>:
400823d4:	004136        	entry	a1, 32
400823d7:	0129      	s32i.n	a2, a1, 0
400823d9:	fffd21        	l32r	a2, 400823d0 <L68+0x32>
400823dc:	000162        	l8ui	a6, a1, 0
400823df:	201110        	or	a1, a1, a1
400823e2:	00aa15        	call4	40082e84 <_Out_70D42FFB_p_Char>
400823e5:	201110        	or	a1, a1, a1
400823e8:	00a815        	call4	40082e6c <_Out_70D42FFB_p_Flush>
400823eb:	f01d      	retw.n
400823ed:	000000        	ill
400823f0:	fb0980        	f64addc	a8, a9, 0, 0
400823f3:	3f          	.byte 0x3f
400823f4:	200000        	or	a0, a0, a0
400823f7:	000041        	l32r	a4, 400423f8 <_heap_end+0x623f8>
400823fa:	004040        	break	0, 4
400823fd:	408000        	rotw	0
40082400:	a80000        	lsi	f0, a0, 0x2a0
40082403:	555541        	l32r	a4, 40057958 <_heap_end+0x77958>
40082406:	004205        	call0	40082828 <L17>
40082409:	43a500        	min	a10, a5, a0

4008240c <_SimpleReal_3C408D21_p_Run>:
4008240c:	00a136        	entry	a1, 80
4008240f:	fff021        	l32r	a2, 400823d0 <L68+0x32>
40082412:	fff761        	l32r	a6, 400823f0 <_Put+0x1c>
40082415:	d70c      	movi.n	a7, 13
40082417:	201110        	or	a1, a1, a1
4008241a:	00a915        	call4	40082eac <_Out_70D42FFB_p_String>
4008241d:	201110        	or	a1, a1, a1
40082420:	00a495        	call4	40082e6c <_Out_70D42FFB_p_Flush>
40082423:	fff431        	l32r	a3, 400823f4 <_Put+0x20>
40082426:	0139      	s32i.n	a3, a1, 0
40082428:	fe6031        	l32r	a3, 40081da8 <_ArrayLen+0x1c>
4008242b:	0148      	l32i.n	a4, a1, 0
4008242d:	fa0350        	wfr	f0, a3
40082430:	fa1450        	wfr	f1, a4
40082433:	0a2010        	add.s	f2, f0, f1
40082436:	fa3240        	rfr	a3, f2
40082439:	1139      	s32i.n	a3, a1, 4
4008243b:	1138      	l32i.n	a3, a1, 4
4008243d:	ffee41        	l32r	a4, 400823f8 <_Put+0x24>
40082440:	fa0350        	wfr	f0, a3
40082443:	fa1450        	wfr	f1, a4
40082446:	0a2010        	add.s	f2, f0, f1
40082449:	fa3240        	rfr	a3, f2
4008244c:	2139      	s32i.n	a3, a1, 8
4008244e:	ffeb31        	l32r	a3, 400823fc <_Put+0x28>
40082451:	3139      	s32i.n	a3, a1, 12
40082453:	fe5531        	l32r	a3, 40081da8 <_ArrayLen+0x1c>
40082456:	3148      	l32i.n	a4, a1, 12
40082458:	fa0350        	wfr	f0, a3
4008245b:	fa1450        	wfr	f1, a4
4008245e:	1a2010        	sub.s	f2, f0, f1
40082461:	fa3240        	rfr	a3, f2
40082464:	4139      	s32i.n	a3, a1, 16
40082466:	4138      	l32i.n	a3, a1, 16
40082468:	ffe441        	l32r	a4, 400823f8 <_Put+0x24>
4008246b:	fa0350        	wfr	f0, a3
4008246e:	fa1450        	wfr	f1, a4
40082471:	1a2010        	sub.s	f2, f0, f1
40082474:	fa3240        	rfr	a3, f2
40082477:	5139      	s32i.n	a3, a1, 20
40082479:	ffe131        	l32r	a3, 40082400 <_Put+0x2c>
4008247c:	6139      	s32i.n	a3, a1, 24
4008247e:	fe4a31        	l32r	a3, 40081da8 <_ArrayLen+0x1c>
40082481:	6148      	l32i.n	a4, a1, 24
40082483:	fa0350        	wfr	f0, a3
40082486:	fa1450        	wfr	f1, a4
40082489:	2a2010        	mul.s	f2, f0, f1
4008248c:	fa3240        	rfr	a3, f2
4008248f:	7139      	s32i.n	a3, a1, 28
40082491:	7138      	l32i.n	a3, a1, 28
40082493:	ffd941        	l32r	a4, 400823f8 <_Put+0x24>
40082496:	fa0350        	wfr	f0, a3
40082499:	fa1450        	wfr	f1, a4
4008249c:	2a2010        	mul.s	f2, f0, f1
4008249f:	fa3240        	rfr	a3, f2
400824a2:	8139      	s32i.n	a3, a1, 32
400824a4:	ffd831        	l32r	a3, 40082404 <_Put+0x30>
400824a7:	9139      	s32i.n	a3, a1, 36
400824a9:	ffd731        	l32r	a3, 40082408 <_Put+0x34>
400824ac:	9148      	l32i.n	a4, a1, 36
400824ae:	fa0350        	wfr	f0, a3
400824b1:	fa1450        	wfr	f1, a4
400824b4:	005d      	mov.n	a5, a0
400824b6:	201110        	or	a1, a1, a1
400824b9:	fdf445        	call0	40080400 <__fdiv32>
400824bc:	050d      	mov.n	a0, a5
400824be:	fa3240        	rfr	a3, f2
400824c1:	a139      	s32i.n	a3, a1, 40
400824c3:	a138      	l32i.n	a3, a1, 40
400824c5:	ffcc41        	l32r	a4, 400823f8 <_Put+0x24>
400824c8:	fa0350        	wfr	f0, a3
400824cb:	fa1450        	wfr	f1, a4
400824ce:	005d      	mov.n	a5, a0
400824d0:	201110        	or	a1, a1, a1
400824d3:	fdf2c5        	call0	40080400 <__fdiv32>
400824d6:	050d      	mov.n	a0, a5
400824d8:	fa3240        	rfr	a3, f2
400824db:	b139      	s32i.n	a3, a1, 44
400824dd:	164c      	movi.n	a6, 65
400824df:	201110        	or	a1, a1, a1
400824e2:	007515        	call4	40082c34 <_Test_8B10D205_p_First>
400824e5:	0168      	l32i.n	a6, a1, 0
400824e7:	ffc371        	l32r	a7, 400823f4 <_Put+0x20>
400824ea:	0a9677        	bne	a6, a7, 400824f8 <L1>
400824ed:	160c      	movi.n	a6, 1
400824ef:	0001c6        	j	400824fa <L2>
400824f2:	000000        	ill
400824f5:	418800        	srli	a8, a0, 8

400824f8 <L1>:
400824f8:	060c      	movi.n	a6, 0

400824fa <L2>:
400824fa:	ffbd71        	l32r	a7, 400823f0 <_Put+0x1c>
400824fd:	10c772        	addi	a7, a7, 16
40082500:	b80c      	movi.n	a8, 11
40082502:	201110        	or	a1, a1, a1
40082505:	008115        	call4	40082d18 <_Test_8B10D205_p_Assert>
40082508:	1168      	l32i.n	a6, a1, 4
4008250a:	fffa71        	l32r	a7, 400824f4 <_SimpleReal_3C408D21_p_Run+0xe8>
4008250d:	0b9677        	bne	a6, a7, 4008251c <L3>
40082510:	160c      	movi.n	a6, 1
40082512:	000206        	j	4008251e <L4>
40082515:	000000        	ill
40082518:	a00000        	addx4	a0, a0, a0
4008251b:	        	l32r	a4, 40043d4c <_heap_end+0x63d4c>

4008251c <L3>:
4008251c:	060c      	movi.n	a6, 0

4008251e <L4>:
4008251e:	ffb471        	l32r	a7, 400823f0 <_Put+0x1c>
40082521:	1cc772        	addi	a7, a7, 28
40082524:	b80c      	movi.n	a8, 11
40082526:	201110        	or	a1, a1, a1
40082529:	007ed5        	call4	40082d18 <_Test_8B10D205_p_Assert>
4008252c:	2168      	l32i.n	a6, a1, 8
4008252e:	fffa71        	l32r	a7, 40082518 <L2+0x1e>
40082531:	079677        	bne	a6, a7, 4008253c <L5>
40082534:	160c      	movi.n	a6, 1
40082536:	000106        	j	4008253e <L6>
40082539:	000000        	ill

4008253c <L5>:
4008253c:	060c      	movi.n	a6, 0

4008253e <L6>:
4008253e:	ffac71        	l32r	a7, 400823f0 <_Put+0x1c>
40082541:	28c772        	addi	a7, a7, 40
40082544:	b80c      	movi.n	a8, 11
40082546:	201110        	or	a1, a1, a1
40082549:	007cd5        	call4	40082d18 <_Test_8B10D205_p_Assert>
4008254c:	3168      	l32i.n	a6, a1, 12
4008254e:	ffab71        	l32r	a7, 400823fc <_Put+0x28>
40082551:	079677        	bne	a6, a7, 4008255c <L7>
40082554:	160c      	movi.n	a6, 1
40082556:	000106        	j	4008255e <L8>
40082559:	000000        	ill

4008255c <L7>:
4008255c:	060c      	movi.n	a6, 0

4008255e <L8>:
4008255e:	ffa471        	l32r	a7, 400823f0 <_Put+0x1c>
40082561:	34c772        	addi	a7, a7, 52
40082564:	b80c      	movi.n	a8, 11
40082566:	201110        	or	a1, a1, a1
40082569:	007ad5        	call4	40082d18 <_Test_8B10D205_p_Assert>
4008256c:	4168      	l32i.n	a6, a1, 16
4008256e:	ffa271        	l32r	a7, 400823f8 <_Put+0x24>
40082571:	079677        	bne	a6, a7, 4008257c <L9>
40082574:	160c      	movi.n	a6, 1
40082576:	000106        	j	4008257e <L10>
40082579:	000000        	ill

4008257c <L9>:
4008257c:	060c      	movi.n	a6, 0

4008257e <L10>:
4008257e:	ff9c71        	l32r	a7, 400823f0 <_Put+0x1c>
40082581:	40c772        	addi	a7, a7, 64
40082584:	b80c      	movi.n	a8, 11
40082586:	201110        	or	a1, a1, a1
40082589:	0078d5        	call4	40082d18 <_Test_8B10D205_p_Assert>
4008258c:	5168      	l32i.n	a6, a1, 20
4008258e:	070c      	movi.n	a7, 0
40082590:	049677        	bne	a6, a7, 40082598 <L11>
40082593:	160c      	movi.n	a6, 1
40082595:	000046        	j	4008259a <L12>

40082598 <L11>:
40082598:	060c      	movi.n	a6, 0

4008259a <L12>:
4008259a:	ff9571        	l32r	a7, 400823f0 <_Put+0x1c>
4008259d:	4cc772        	addi	a7, a7, 76
400825a0:	b80c      	movi.n	a8, 11
400825a2:	201110        	or	a1, a1, a1
400825a5:	007715        	call4	40082d18 <_Test_8B10D205_p_Assert>
400825a8:	6168      	l32i.n	a6, a1, 24
400825aa:	ff9571        	l32r	a7, 40082400 <_Put+0x2c>
400825ad:	0b9677        	bne	a6, a7, 400825bc <L13>
400825b0:	160c      	movi.n	a6, 1
400825b2:	000206        	j	400825be <L14>
400825b5:	000000        	ill
400825b8:	130000        	wsr.lbeg	a0
400825bb:	        	lsi	f4, a12, 24

400825bc <L13>:
400825bc:	060c      	movi.n	a6, 0

400825be <L14>:
400825be:	ff8c71        	l32r	a7, 400823f0 <_Put+0x1c>
400825c1:	58c772        	addi	a7, a7, 88
400825c4:	b80c      	movi.n	a8, 11
400825c6:	201110        	or	a1, a1, a1
400825c9:	0074d5        	call4	40082d18 <_Test_8B10D205_p_Assert>
400825cc:	7168      	l32i.n	a6, a1, 28
400825ce:	fffa71        	l32r	a7, 400825b8 <L12+0x1e>
400825d1:	0b9677        	bne	a6, a7, 400825e0 <L15>
400825d4:	160c      	movi.n	a6, 1
400825d6:	000206        	j	400825e2 <L16>
400825d9:	000000        	ill
400825dc:	dc8000        	lsi	f0, a0, 0x370
400825df:	        	lsi	f4, a12, 24

400825e0 <L15>:
400825e0:	060c      	movi.n	a6, 0

400825e2 <L16>:
400825e2:	ff8371        	l32r	a7, 400823f0 <_Put+0x1c>
400825e5:	64c772        	addi	a7, a7, 100
400825e8:	b80c      	movi.n	a8, 11
400825ea:	201110        	or	a1, a1, a1
400825ed:	007295        	call4	40082d18 <_Test_8B10D205_p_Assert>
400825f0:	8168      	l32i.n	a6, a1, 32
400825f2:	fffa71        	l32r	a7, 400825dc <L14+0x1e>
400825f5:	079677        	bne	a6, a7, 40082600 <L17>
400825f8:	160c      	movi.n	a6, 1
400825fa:	000106        	j	40082602 <L18>
400825fd:	000000        	ill

40082600 <L17>:
40082600:	060c      	movi.n	a6, 0

40082602 <L18>:
40082602:	ff7b71        	l32r	a7, 400823f0 <_Put+0x1c>
40082605:	70c772        	addi	a7, a7, 112
40082608:	b80c      	movi.n	a8, 11
4008260a:	201110        	or	a1, a1, a1
4008260d:	007095        	call4	40082d18 <_Test_8B10D205_p_Assert>
40082610:	9168      	l32i.n	a6, a1, 36
40082612:	fa0650        	wfr	f0, a6
40082615:	aa6000        	floor.s	a6, f0, 0
40082618:	172c      	movi.n	a7, 33
4008261a:	069677        	bne	a6, a7, 40082624 <L19>
4008261d:	160c      	movi.n	a6, 1
4008261f:	0000c6        	j	40082626 <L20>
	...

40082624 <L19>:
40082624:	060c      	movi.n	a6, 0

40082626 <L20>:
40082626:	ff7271        	l32r	a7, 400823f0 <_Put+0x1c>
40082629:	7cc772        	addi	a7, a7, 124
4008262c:	b80c      	movi.n	a8, 11
4008262e:	201110        	or	a1, a1, a1
40082631:	006e55        	call4	40082d18 <_Test_8B10D205_p_Assert>
40082634:	a168      	l32i.n	a6, a1, 40
40082636:	fa0650        	wfr	f0, a6
40082639:	aa6000        	floor.s	a6, f0, 0
4008263c:	970c      	movi.n	a7, 9
4008263e:	069677        	bne	a6, a7, 40082648 <L21>
40082641:	160c      	movi.n	a6, 1
40082643:	0000c6        	j	4008264a <L22>
	...

40082648 <L21>:
40082648:	060c      	movi.n	a6, 0

4008264a <L22>:
4008264a:	ff6971        	l32r	a7, 400823f0 <_Put+0x1c>
4008264d:	88a082        	movi	a8, 136
40082650:	778a      	add.n	a7, a7, a8
40082652:	b80c      	movi.n	a8, 11
40082654:	201110        	or	a1, a1, a1
40082657:	006c15        	call4	40082d18 <_Test_8B10D205_p_Assert>
4008265a:	b168      	l32i.n	a6, a1, 44
4008265c:	fa0650        	wfr	f0, a6
4008265f:	aa6000        	floor.s	a6, f0, 0
40082662:	370c      	movi.n	a7, 3
40082664:	049677        	bne	a6, a7, 4008266c <L23>
40082667:	160c      	movi.n	a6, 1
40082669:	000046        	j	4008266e <L24>

4008266c <L23>:
4008266c:	060c      	movi.n	a6, 0

4008266e <L24>:
4008266e:	ff6071        	l32r	a7, 400823f0 <_Put+0x1c>
40082671:	94a082        	movi	a8, 148
40082674:	807780        	add	a7, a7, a8
40082677:	0ba082        	movi	a8, 11
4008267a:	201110        	or	a1, a1, a1
4008267d:	006995        	call4	40082d18 <_Test_8B10D205_p_Assert>
40082680:	201110        	or	a1, a1, a1
40082683:	005a15        	call4	40082c24 <_Test_8B10D205_p_End>
40082686:	ff5a61        	l32r	a6, 400823f0 <_Put+0x1c>
40082689:	a0a072        	movi	a7, 160
4008268c:	806670        	add	a6, a6, a7
4008268f:	05a072        	movi	a7, 5
40082692:	201110        	or	a1, a1, a1
40082695:	008155        	call4	40082eac <_Out_70D42FFB_p_String>
40082698:	201110        	or	a1, a1, a1
4008269b:	00cf15        	call4	4008338c <_Out_70D42FFB_p_Ln>
4008269e:	f01d      	retw.n
400826a0:	11dc      	bnez.n	a1, 400826b5 <_SimpleMath_383B8934_p_Run+0xd>
400826a2:	3ffb      	addi.n	a3, a15, 15
400826a4:	0a28      	l32i.n	a2, a10, 0
400826a6:	3ffb      	addi.n	a3, a15, 15

400826a8 <_SimpleMath_383B8934_p_Run>:
400826a8:	00a136        	entry	a1, 80
400826ab:	fffd21        	l32r	a2, 400826a0 <L24+0x32>
400826ae:	fffd61        	l32r	a6, 400826a4 <L24+0x36>
400826b1:	d70c      	movi.n	a7, 13
400826b3:	201110        	or	a1, a1, a1
400826b6:	007f55        	call4	40082eac <_Out_70D42FFB_p_String>
400826b9:	201110        	or	a1, a1, a1
400826bc:	007ad5        	call4	40082e6c <_Out_70D42FFB_p_Flush>
400826bf:	a30c      	movi.n	a3, 10
400826c1:	0139      	s32i.n	a3, a1, 0
400826c3:	730c      	movi.n	a3, 7
400826c5:	0148      	l32i.n	a4, a1, 0
400826c7:	334a      	add.n	a3, a3, a4
400826c9:	1139      	s32i.n	a3, a1, 4
400826cb:	1138      	l32i.n	a3, a1, 4
400826cd:	333b      	addi.n	a3, a3, 3
400826cf:	2139      	s32i.n	a3, a1, 8
400826d1:	430c      	movi.n	a3, 4
400826d3:	3139      	s32i.n	a3, a1, 12
400826d5:	730c      	movi.n	a3, 7
400826d7:	3148      	l32i.n	a4, a1, 12
400826d9:	c03340        	sub	a3, a3, a4
400826dc:	4139      	s32i.n	a3, a1, 16
400826de:	4138      	l32i.n	a3, a1, 16
400826e0:	fdc332        	addi	a3, a3, -3
400826e3:	5139      	s32i.n	a3, a1, 20
400826e5:	531c      	movi.n	a3, 21
400826e7:	6139      	s32i.n	a3, a1, 24
400826e9:	6138      	l32i.n	a3, a1, 24
400826eb:	740c      	movi.n	a4, 7
400826ed:	823340        	mull	a3, a3, a4
400826f0:	7139      	s32i.n	a3, a1, 28
400826f2:	7138      	l32i.n	a3, a1, 28
400826f4:	340c      	movi.n	a4, 3
400826f6:	823340        	mull	a3, a3, a4
400826f9:	8139      	s32i.n	a3, a1, 32
400826fb:	132c      	movi.n	a3, 33
400826fd:	9139      	s32i.n	a3, a1, 36
400826ff:	9138      	l32i.n	a3, a1, 36
40082701:	4aa142        	movi	a4, 0x14a
40082704:	d23430        	quos	a3, a4, a3
40082707:	a139      	s32i.n	a3, a1, 40
40082709:	a138      	l32i.n	a3, a1, 40
4008270b:	340c      	movi.n	a4, 3
4008270d:	d23340        	quos	a3, a3, a4
40082710:	b139      	s32i.n	a3, a1, 44
40082712:	730c      	movi.n	a3, 7
40082714:	c139      	s32i.n	a3, a1, 48
40082716:	4aa132        	movi	a3, 0x14a
40082719:	c148      	l32i.n	a4, a1, 48
4008271b:	f23340        	rems	a3, a3, a4
4008271e:	d139      	s32i.n	a3, a1, 52
40082720:	c138      	l32i.n	a3, a1, 48
40082722:	340c      	movi.n	a4, 3
40082724:	f23340        	rems	a3, a3, a4
40082727:	e139      	s32i.n	a3, a1, 56
40082729:	164c      	movi.n	a6, 65
4008272b:	201110        	or	a1, a1, a1
4008272e:	005055        	call4	40082c34 <_Test_8B10D205_p_First>
40082731:	0168      	l32i.n	a6, a1, 0
40082733:	a70c      	movi.n	a7, 10
40082735:	079677        	bne	a6, a7, 40082740 <L1>
40082738:	160c      	movi.n	a6, 1
4008273a:	000106        	j	40082742 <L2>
4008273d:	000000        	ill

40082740 <L1>:
40082740:	060c      	movi.n	a6, 0

40082742 <L2>:
40082742:	ffd871        	l32r	a7, 400826a4 <L24+0x36>
40082745:	10c772        	addi	a7, a7, 16
40082748:	e80c      	movi.n	a8, 14
4008274a:	201110        	or	a1, a1, a1
4008274d:	005c95        	call4	40082d18 <_Test_8B10D205_p_Assert>
40082750:	1168      	l32i.n	a6, a1, 4
40082752:	171c      	movi.n	a7, 17
40082754:	049677        	bne	a6, a7, 4008275c <L3>
40082757:	160c      	movi.n	a6, 1
40082759:	000046        	j	4008275e <L4>

4008275c <L3>:
4008275c:	060c      	movi.n	a6, 0

4008275e <L4>:
4008275e:	ffd171        	l32r	a7, 400826a4 <L24+0x36>
40082761:	20c772        	addi	a7, a7, 32
40082764:	e80c      	movi.n	a8, 14
40082766:	201110        	or	a1, a1, a1
40082769:	005ad5        	call4	40082d18 <_Test_8B10D205_p_Assert>
4008276c:	2168      	l32i.n	a6, a1, 8
4008276e:	471c      	movi.n	a7, 20
40082770:	049677        	bne	a6, a7, 40082778 <L5>
40082773:	160c      	movi.n	a6, 1
40082775:	000046        	j	4008277a <L6>

40082778 <L5>:
40082778:	060c      	movi.n	a6, 0

4008277a <L6>:
4008277a:	ffca71        	l32r	a7, 400826a4 <L24+0x36>
4008277d:	30c772        	addi	a7, a7, 48
40082780:	e80c      	movi.n	a8, 14
40082782:	201110        	or	a1, a1, a1
40082785:	005915        	call4	40082d18 <_Test_8B10D205_p_Assert>
40082788:	3168      	l32i.n	a6, a1, 12
4008278a:	470c      	movi.n	a7, 4
4008278c:	049677        	bne	a6, a7, 40082794 <L7>
4008278f:	160c      	movi.n	a6, 1
40082791:	000046        	j	40082796 <L8>

40082794 <L7>:
40082794:	060c      	movi.n	a6, 0

40082796 <L8>:
40082796:	ffc371        	l32r	a7, 400826a4 <L24+0x36>
40082799:	40c772        	addi	a7, a7, 64
4008279c:	e80c      	movi.n	a8, 14
4008279e:	201110        	or	a1, a1, a1
400827a1:	005755        	call4	40082d18 <_Test_8B10D205_p_Assert>
400827a4:	4168      	l32i.n	a6, a1, 16
400827a6:	370c      	movi.n	a7, 3
400827a8:	049677        	bne	a6, a7, 400827b0 <L9>
400827ab:	160c      	movi.n	a6, 1
400827ad:	000046        	j	400827b2 <L10>

400827b0 <L9>:
400827b0:	060c      	movi.n	a6, 0

400827b2 <L10>:
400827b2:	ffbc71        	l32r	a7, 400826a4 <L24+0x36>
400827b5:	50c772        	addi	a7, a7, 80
400827b8:	e80c      	movi.n	a8, 14
400827ba:	201110        	or	a1, a1, a1
400827bd:	005595        	call4	40082d18 <_Test_8B10D205_p_Assert>
400827c0:	5168      	l32i.n	a6, a1, 20
400827c2:	070c      	movi.n	a7, 0
400827c4:	049677        	bne	a6, a7, 400827cc <L11>
400827c7:	160c      	movi.n	a6, 1
400827c9:	000046        	j	400827ce <L12>

400827cc <L11>:
400827cc:	060c      	movi.n	a6, 0

400827ce <L12>:
400827ce:	ffb571        	l32r	a7, 400826a4 <L24+0x36>
400827d1:	60c772        	addi	a7, a7, 96
400827d4:	e80c      	movi.n	a8, 14
400827d6:	201110        	or	a1, a1, a1
400827d9:	0053d5        	call4	40082d18 <_Test_8B10D205_p_Assert>
400827dc:	6168      	l32i.n	a6, a1, 24
400827de:	571c      	movi.n	a7, 21
400827e0:	049677        	bne	a6, a7, 400827e8 <L13>
400827e3:	160c      	movi.n	a6, 1
400827e5:	000046        	j	400827ea <L14>

400827e8 <L13>:
400827e8:	060c      	movi.n	a6, 0

400827ea <L14>:
400827ea:	ffae71        	l32r	a7, 400826a4 <L24+0x36>
400827ed:	70c772        	addi	a7, a7, 112
400827f0:	e80c      	movi.n	a8, 14
400827f2:	201110        	or	a1, a1, a1
400827f5:	005215        	call4	40082d18 <_Test_8B10D205_p_Assert>
400827f8:	7168      	l32i.n	a6, a1, 28
400827fa:	93a072        	movi	a7, 147
400827fd:	079677        	bne	a6, a7, 40082808 <L15>
40082800:	160c      	movi.n	a6, 1
40082802:	000106        	j	4008280a <L16>
40082805:	000000        	ill

40082808 <L15>:
40082808:	060c      	movi.n	a6, 0

4008280a <L16>:
4008280a:	ffa671        	l32r	a7, 400826a4 <L24+0x36>
4008280d:	80a082        	movi	a8, 128
40082810:	778a      	add.n	a7, a7, a8
40082812:	e80c      	movi.n	a8, 14
40082814:	201110        	or	a1, a1, a1
40082817:	005015        	call4	40082d18 <_Test_8B10D205_p_Assert>
4008281a:	8168      	l32i.n	a6, a1, 32
4008281c:	b9a172        	movi	a7, 0x1b9
4008281f:	059677        	bne	a6, a7, 40082828 <L17>
40082822:	160c      	movi.n	a6, 1
40082824:	000086        	j	4008282a <L18>
	...

40082828 <L17>:
40082828:	060c      	movi.n	a6, 0

4008282a <L18>:
4008282a:	ff9e71        	l32r	a7, 400826a4 <L24+0x36>
4008282d:	90a082        	movi	a8, 144
40082830:	778a      	add.n	a7, a7, a8
40082832:	e80c      	movi.n	a8, 14
40082834:	201110        	or	a1, a1, a1
40082837:	004e15        	call4	40082d18 <_Test_8B10D205_p_Assert>
4008283a:	9168      	l32i.n	a6, a1, 36
4008283c:	172c      	movi.n	a7, 33
4008283e:	069677        	bne	a6, a7, 40082848 <L19>
40082841:	160c      	movi.n	a6, 1
40082843:	0000c6        	j	4008284a <L20>
	...

40082848 <L19>:
40082848:	060c      	movi.n	a6, 0

4008284a <L20>:
4008284a:	ff9671        	l32r	a7, 400826a4 <L24+0x36>
4008284d:	a0a082        	movi	a8, 160
40082850:	778a      	add.n	a7, a7, a8
40082852:	081c      	movi.n	a8, 16
40082854:	201110        	or	a1, a1, a1
40082857:	004c15        	call4	40082d18 <_Test_8B10D205_p_Assert>
4008285a:	a168      	l32i.n	a6, a1, 40
4008285c:	a70c      	movi.n	a7, 10
4008285e:	069677        	bne	a6, a7, 40082868 <L21>
40082861:	160c      	movi.n	a6, 1
40082863:	0000c6        	j	4008286a <L22>
	...

40082868 <L21>:
40082868:	060c      	movi.n	a6, 0

4008286a <L22>:
4008286a:	ff8e71        	l32r	a7, 400826a4 <L24+0x36>
4008286d:	b0a082        	movi	a8, 176
40082870:	778a      	add.n	a7, a7, a8
40082872:	081c      	movi.n	a8, 16
40082874:	201110        	or	a1, a1, a1
40082877:	004a15        	call4	40082d18 <_Test_8B10D205_p_Assert>
4008287a:	b168      	l32i.n	a6, a1, 44
4008287c:	370c      	movi.n	a7, 3
4008287e:	069677        	bne	a6, a7, 40082888 <L23>
40082881:	160c      	movi.n	a6, 1
40082883:	0000c6        	j	4008288a <L24>
	...

40082888 <L23>:
40082888:	060c      	movi.n	a6, 0

4008288a <L24>:
4008288a:	ff8671        	l32r	a7, 400826a4 <L24+0x36>
4008288d:	c0a082        	movi	a8, 192
40082890:	778a      	add.n	a7, a7, a8
40082892:	081c      	movi.n	a8, 16
40082894:	201110        	or	a1, a1, a1
40082897:	004815        	call4	40082d18 <_Test_8B10D205_p_Assert>
4008289a:	c168      	l32i.n	a6, a1, 48
4008289c:	770c      	movi.n	a7, 7
4008289e:	069677        	bne	a6, a7, 400828a8 <L25>
400828a1:	160c      	movi.n	a6, 1
400828a3:	0000c6        	j	400828aa <L26>
	...

400828a8 <L25>:
400828a8:	060c      	movi.n	a6, 0

400828aa <L26>:
400828aa:	ff7e71        	l32r	a7, 400826a4 <L24+0x36>
400828ad:	d0a082        	movi	a8, 208
400828b0:	778a      	add.n	a7, a7, a8
400828b2:	081c      	movi.n	a8, 16
400828b4:	201110        	or	a1, a1, a1
400828b7:	004615        	call4	40082d18 <_Test_8B10D205_p_Assert>
400828ba:	d168      	l32i.n	a6, a1, 52
400828bc:	170c      	movi.n	a7, 1
400828be:	069677        	bne	a6, a7, 400828c8 <L27>
400828c1:	160c      	movi.n	a6, 1
400828c3:	0000c6        	j	400828ca <L28>
	...

400828c8 <L27>:
400828c8:	060c      	movi.n	a6, 0

400828ca <L28>:
400828ca:	ff7671        	l32r	a7, 400826a4 <L24+0x36>
400828cd:	e0a082        	movi	a8, 224
400828d0:	778a      	add.n	a7, a7, a8
400828d2:	081c      	movi.n	a8, 16
400828d4:	201110        	or	a1, a1, a1
400828d7:	004415        	call4	40082d18 <_Test_8B10D205_p_Assert>
400828da:	e168      	l32i.n	a6, a1, 56
400828dc:	170c      	movi.n	a7, 1
400828de:	069677        	bne	a6, a7, 400828e8 <L29>
400828e1:	160c      	movi.n	a6, 1
400828e3:	0000c6        	j	400828ea <L30>
	...

400828e8 <L29>:
400828e8:	060c      	movi.n	a6, 0

400828ea <L30>:
400828ea:	ff6e71        	l32r	a7, 400826a4 <L24+0x36>
400828ed:	f0a082        	movi	a8, 240
400828f0:	807780        	add	a7, a7, a8
400828f3:	0fa082        	movi	a8, 15
400828f6:	201110        	or	a1, a1, a1
400828f9:	0041d5        	call4	40082d18 <_Test_8B10D205_p_Assert>
400828fc:	201110        	or	a1, a1, a1
400828ff:	003255        	call4	40082c24 <_Test_8B10D205_p_End>
40082902:	ff6861        	l32r	a6, 400826a4 <L24+0x36>
40082905:	00a172        	movi	a7, 0x100
40082908:	806670        	add	a6, a6, a7
4008290b:	05a072        	movi	a7, 5
4008290e:	201110        	or	a1, a1, a1
40082911:	005995        	call4	40082eac <_Out_70D42FFB_p_String>
40082914:	201110        	or	a1, a1, a1
40082917:	00a755        	call4	4008338c <_Out_70D42FFB_p_Ln>
4008291a:	f01d      	retw.n
4008291c:	fb11e0        	f64addc	a14, a1, 0, 1
4008291f:	3f          	.byte 0x3f

40082920 <_ProcTests>:
40082920:	004136        	entry	a1, 32
40082923:	0129      	s32i.n	a2, a1, 0
40082925:	1139      	s32i.n	a3, a1, 4
40082927:	fffd21        	l32r	a2, 4008291c <L30+0x32>
4008292a:	1138      	l32i.n	a3, a1, 4
4008292c:	fa0350        	wfr	f0, a3
4008292f:	aa3000        	floor.s	a3, f0, 0
40082932:	2139      	s32i.n	a3, a1, 8
40082934:	0138      	l32i.n	a3, a1, 0
40082936:	0338      	l32i.n	a3, a3, 0
40082938:	331b      	addi.n	a3, a3, 1
4008293a:	0148      	l32i.n	a4, a1, 0
4008293c:	0439      	s32i.n	a3, a4, 0
4008293e:	2138      	l32i.n	a3, a1, 8
40082940:	0148      	l32i.n	a4, a1, 0
40082942:	0448      	l32i.n	a4, a4, 0
40082944:	334a      	add.n	a3, a3, a4
40082946:	f01d      	retw.n
40082948:	fb0b30        	f64addc	a3, a11, 0, 0
4008294b:	3f          	.byte 0x3f

4008294c <_Assignments_4FA6587C_p_Run>:
4008294c:	002136        	entry	a1, 16
4008294f:	fff321        	l32r	a2, 4008291c <L30+0x32>
40082952:	fffd61        	l32r	a6, 40082948 <_ProcTests+0x28>
40082955:	e70c      	movi.n	a7, 14
40082957:	201110        	or	a1, a1, a1
4008295a:	005515        	call4	40082eac <_Out_70D42FFB_p_String>
4008295d:	201110        	or	a1, a1, a1
40082960:	005095        	call4	40082e6c <_Out_70D42FFB_p_Flush>
40082963:	41a062        	movi	a6, 65
40082966:	201110        	or	a1, a1, a1
40082969:	002c95        	call4	40082c34 <_Test_8B10D205_p_First>
4008296c:	19a032        	movi	a3, 25
4008296f:	006232        	s32i	a3, a2, 0
40082972:	201110        	or	a1, a1, a1
40082975:	002f15        	call4	40082c68 <_Test_8B10D205_p_Next>
40082978:	fea031        	l32r	a3, 400823f8 <_Put+0x24>
4008297b:	026232        	s32i	a3, a2, 8
4008297e:	201110        	or	a1, a1, a1
40082981:	002e55        	call4	40082c68 <_Test_8B10D205_p_Next>
40082984:	e30c      	movi.n	a3, 14
40082986:	3239      	s32i.n	a3, a2, 12
40082988:	201110        	or	a1, a1, a1
4008298b:	002dd5        	call4	40082c68 <_Test_8B10D205_p_Next>
4008298e:	f31c      	movi.n	a3, 31
40082990:	b239      	s32i.n	a3, a2, 44
40082992:	201110        	or	a1, a1, a1
40082995:	002d15        	call4	40082c68 <_Test_8B10D205_p_Next>
40082998:	38c232        	addi	a3, a2, 56
4008299b:	ffeb41        	l32r	a4, 40082948 <_ProcTests+0x28>
4008299e:	10c442        	addi	a4, a4, 16
400829a1:	450c      	movi.n	a5, 4
400829a3:	078576        	loop	a5, 400829ae <L1>
400829a6:	0468      	l32i.n	a6, a4, 0
400829a8:	444b      	addi.n	a4, a4, 4
400829aa:	0369      	s32i.n	a6, a3, 0
400829ac:	334b      	addi.n	a3, a3, 4

400829ae <L1>:
400829ae:	201110        	or	a1, a1, a1
400829b1:	002b55        	call4	40082c68 <_Test_8B10D205_p_Next>
400829b4:	330c      	movi.n	a3, 3
400829b6:	540c      	movi.n	a4, 5
400829b8:	04a347        	bge	a3, a4, 400829c0 <L2>
400829bb:	130c      	movi.n	a3, 1
400829bd:	000046        	j	400829c2 <L3>

400829c0 <L2>:
400829c0:	030c      	movi.n	a3, 0

400829c2 <L3>:
400829c2:	4c4232        	s8i	a3, a2, 76
400829c5:	201110        	or	a1, a1, a1
400829c8:	0029d5        	call4	40082c68 <_Test_8B10D205_p_Next>
400829cb:	0238      	l32i.n	a3, a2, 0
400829cd:	e41c      	movi.n	a4, 30
400829cf:	05a437        	bge	a4, a3, 400829d8 <L4>
400829d2:	130c      	movi.n	a3, 1
400829d4:	000086        	j	400829da <L5>
	...

400829d8 <L4>:
400829d8:	030c      	movi.n	a3, 0

400829da <L5>:
400829da:	4d4232        	s8i	a3, a2, 77
400829dd:	201110        	or	a1, a1, a1
400829e0:	002855        	call4	40082c68 <_Test_8B10D205_p_Next>
400829e3:	531c      	movi.n	a3, 21
400829e5:	166232        	s32i	a3, a2, 88
400829e8:	201110        	or	a1, a1, a1
400829eb:	0027d5        	call4	40082c68 <_Test_8B10D205_p_Next>
400829ee:	01a032        	movi	a3, 1
400829f1:	5c4232        	s8i	a3, a2, 92
400829f4:	201110        	or	a1, a1, a1
400829f7:	002715        	call4	40082c68 <_Test_8B10D205_p_Next>
400829fa:	0238      	l32i.n	a3, a2, 0
400829fc:	146232        	s32i	a3, a2, 80
400829ff:	201110        	or	a1, a1, a1
40082a02:	002655        	call4	40082c68 <_Test_8B10D205_p_Next>
40082a05:	50c262        	addi	a6, a2, 80
40082a08:	2278      	l32i.n	a7, a2, 8
40082a0a:	fff155        	call4	40082920 <_ProcTests>
40082a0d:	073d      	mov.n	a3, a7
40082a0f:	156232        	s32i	a3, a2, 84
40082a12:	201110        	or	a1, a1, a1
40082a15:	0020d5        	call4	40082c24 <_Test_8B10D205_p_End>
40082a18:	61a062        	movi	a6, 97
40082a1b:	201110        	or	a1, a1, a1
40082a1e:	002155        	call4	40082c34 <_Test_8B10D205_p_First>
40082a21:	0268      	l32i.n	a6, a2, 0
40082a23:	971c      	movi.n	a7, 25
40082a25:	079677        	bne	a6, a7, 40082a30 <L6>
40082a28:	160c      	movi.n	a6, 1
40082a2a:	000106        	j	40082a32 <L7>
40082a2d:	000000        	ill

40082a30 <L6>:
40082a30:	060c      	movi.n	a6, 0

40082a32 <L7>:
40082a32:	ffc571        	l32r	a7, 40082948 <_ProcTests+0x28>
40082a35:	20c772        	addi	a7, a7, 32
40082a38:	381c      	movi.n	a8, 19
40082a3a:	201110        	or	a1, a1, a1
40082a3d:	002d95        	call4	40082d18 <_Test_8B10D205_p_Assert>
40082a40:	201110        	or	a1, a1, a1
40082a43:	002255        	call4	40082c68 <_Test_8B10D205_p_Next>
40082a46:	2268      	l32i.n	a6, a2, 8
40082a48:	fe6c71        	l32r	a7, 400823f8 <_Put+0x24>
40082a4b:	059677        	bne	a6, a7, 40082a54 <L8>
40082a4e:	160c      	movi.n	a6, 1
40082a50:	000086        	j	40082a56 <L9>
	...

40082a54 <L8>:
40082a54:	060c      	movi.n	a6, 0

40082a56 <L9>:
40082a56:	ffbc71        	l32r	a7, 40082948 <_ProcTests+0x28>
40082a59:	34c772        	addi	a7, a7, 52
40082a5c:	081c      	movi.n	a8, 16
40082a5e:	201110        	or	a1, a1, a1
40082a61:	002b55        	call4	40082d18 <_Test_8B10D205_p_Assert>
40082a64:	201110        	or	a1, a1, a1
40082a67:	002015        	call4	40082c68 <_Test_8B10D205_p_Next>
40082a6a:	3268      	l32i.n	a6, a2, 12
40082a6c:	e70c      	movi.n	a7, 14
40082a6e:	069677        	bne	a6, a7, 40082a78 <L10>
40082a71:	160c      	movi.n	a6, 1
40082a73:	0000c6        	j	40082a7a <L11>
	...

40082a78 <L10>:
40082a78:	060c      	movi.n	a6, 0

40082a7a <L11>:
40082a7a:	ffb371        	l32r	a7, 40082948 <_ProcTests+0x28>
40082a7d:	44c772        	addi	a7, a7, 68
40082a80:	f80c      	movi.n	a8, 15
40082a82:	201110        	or	a1, a1, a1
40082a85:	002915        	call4	40082d18 <_Test_8B10D205_p_Assert>
40082a88:	201110        	or	a1, a1, a1
40082a8b:	001dd5        	call4	40082c68 <_Test_8B10D205_p_Next>
40082a8e:	b268      	l32i.n	a6, a2, 44
40082a90:	f71c      	movi.n	a7, 31
40082a92:	069677        	bne	a6, a7, 40082a9c <L12>
40082a95:	160c      	movi.n	a6, 1
40082a97:	0000c6        	j	40082a9e <L13>
	...

40082a9c <L12>:
40082a9c:	060c      	movi.n	a6, 0

40082a9e <L13>:
40082a9e:	ffaa71        	l32r	a7, 40082948 <_ProcTests+0x28>
40082aa1:	54c772        	addi	a7, a7, 84
40082aa4:	11a082        	movi	a8, 17
40082aa7:	201110        	or	a1, a1, a1
40082aaa:	0026d5        	call4	40082d18 <_Test_8B10D205_p_Assert>
40082aad:	201110        	or	a1, a1, a1
40082ab0:	001b55        	call4	40082c68 <_Test_8B10D205_p_Next>
40082ab3:	38c282        	addi	a8, a2, 56
40082ab6:	ffa491        	l32r	a9, 40082948 <_ProcTests+0x28>
40082ab9:	68c992        	addi	a9, a9, 104

40082abc <L14>:
40082abc:	000862        	l8ui	a6, a8, 0
40082abf:	881b      	addi.n	a8, a8, 1
40082ac1:	000972        	l8ui	a7, a9, 0
40082ac4:	991b      	addi.n	a9, a9, 1
40082ac6:	029677        	bne	a6, a7, 40082acc <L15>
40082ac9:	fef656        	bnez	a6, 40082abc <L14>

40082acc <L15>:
40082acc:	049677        	bne	a6, a7, 40082ad4 <L16>
40082acf:	160c      	movi.n	a6, 1
40082ad1:	000046        	j	40082ad6 <L17>

40082ad4 <L16>:
40082ad4:	060c      	movi.n	a6, 0

40082ad6 <L17>:
40082ad6:	ff9c71        	l32r	a7, 40082948 <_ProcTests+0x28>
40082ad9:	78c772        	addi	a7, a7, 120
40082adc:	281c      	movi.n	a8, 18
40082ade:	201110        	or	a1, a1, a1
40082ae1:	002355        	call4	40082d18 <_Test_8B10D205_p_Assert>
40082ae4:	201110        	or	a1, a1, a1
40082ae7:	001815        	call4	40082c68 <_Test_8B10D205_p_Next>
40082aea:	4c0262        	l8ui	a6, a2, 76
40082aed:	ff9671        	l32r	a7, 40082948 <_ProcTests+0x28>
40082af0:	8ca082        	movi	a8, 140
40082af3:	778a      	add.n	a7, a7, a8
40082af5:	381c      	movi.n	a8, 19
40082af7:	201110        	or	a1, a1, a1
40082afa:	0021d5        	call4	40082d18 <_Test_8B10D205_p_Assert>
40082afd:	201110        	or	a1, a1, a1
40082b00:	001655        	call4	40082c68 <_Test_8B10D205_p_Next>
40082b03:	4d0262        	l8ui	a6, a2, 77
40082b06:	66cc      	bnez.n	a6, 40082b10 <L18>
40082b08:	160c      	movi.n	a6, 1
40082b0a:	000106        	j	40082b12 <L19>
40082b0d:	000000        	ill

40082b10 <L18>:
40082b10:	060c      	movi.n	a6, 0

40082b12 <L19>:
40082b12:	ff8d71        	l32r	a7, 40082948 <_ProcTests+0x28>
40082b15:	a0a082        	movi	a8, 160
40082b18:	807780        	add	a7, a7, a8
40082b1b:	19a082        	movi	a8, 25
40082b1e:	201110        	or	a1, a1, a1
40082b21:	001f55        	call4	40082d18 <_Test_8B10D205_p_Assert>
40082b24:	201110        	or	a1, a1, a1
40082b27:	001415        	call4	40082c68 <_Test_8B10D205_p_Next>
40082b2a:	1268      	l32i.n	a6, a2, 4
40082b2c:	070c      	movi.n	a7, 0
40082b2e:	069677        	bne	a6, a7, 40082b38 <L20>
40082b31:	160c      	movi.n	a6, 1
40082b33:	0000c6        	j	40082b3a <L21>
	...

40082b38 <L20>:
40082b38:	060c      	movi.n	a6, 0

40082b3a <L21>:
40082b3a:	ff8371        	l32r	a7, 40082948 <_ProcTests+0x28>
40082b3d:	bca082        	movi	a8, 188
40082b40:	807780        	add	a7, a7, a8
40082b43:	16a082        	movi	a8, 22
40082b46:	201110        	or	a1, a1, a1
40082b49:	001cd5        	call4	40082d18 <_Test_8B10D205_p_Assert>
40082b4c:	201110        	or	a1, a1, a1
40082b4f:	001195        	call4	40082c68 <_Test_8B10D205_p_Next>
40082b52:	162262        	l32i	a6, a2, 88
40082b55:	571c      	movi.n	a7, 21
40082b57:	059677        	bne	a6, a7, 40082b60 <L22>
40082b5a:	160c      	movi.n	a6, 1
40082b5c:	000086        	j	40082b62 <L23>
	...

40082b60 <L22>:
40082b60:	060c      	movi.n	a6, 0

40082b62 <L23>:
40082b62:	ff7971        	l32r	a7, 40082948 <_ProcTests+0x28>
40082b65:	d4a082        	movi	a8, 212
40082b68:	807780        	add	a7, a7, a8
40082b6b:	1aa082        	movi	a8, 26
40082b6e:	201110        	or	a1, a1, a1
40082b71:	001a55        	call4	40082d18 <_Test_8B10D205_p_Assert>
40082b74:	201110        	or	a1, a1, a1
40082b77:	000f15        	call4	40082c68 <_Test_8B10D205_p_Next>
40082b7a:	142262        	l32i	a6, a2, 80
40082b7d:	a71c      	movi.n	a7, 26
40082b7f:	059677        	bne	a6, a7, 40082b88 <L24>
40082b82:	160c      	movi.n	a6, 1
40082b84:	000086        	j	40082b8a <L25>
	...

40082b88 <L24>:
40082b88:	060c      	movi.n	a6, 0

40082b8a <L25>:
40082b8a:	ff6f71        	l32r	a7, 40082948 <_ProcTests+0x28>
40082b8d:	f0a082        	movi	a8, 240
40082b90:	807780        	add	a7, a7, a8
40082b93:	1aa082        	movi	a8, 26
40082b96:	201110        	or	a1, a1, a1
40082b99:	0017d5        	call4	40082d18 <_Test_8B10D205_p_Assert>
40082b9c:	201110        	or	a1, a1, a1
40082b9f:	000c95        	call4	40082c68 <_Test_8B10D205_p_Next>
40082ba2:	152262        	l32i	a6, a2, 84
40082ba5:	d71c      	movi.n	a7, 29
40082ba7:	059677        	bne	a6, a7, 40082bb0 <L26>
40082baa:	160c      	movi.n	a6, 1
40082bac:	000086        	j	40082bb2 <L27>
	...

40082bb0 <L26>:
40082bb0:	060c      	movi.n	a6, 0

40082bb2 <L27>:
40082bb2:	ff6571        	l32r	a7, 40082948 <_ProcTests+0x28>
40082bb5:	0ca182        	movi	a8, 0x10c
40082bb8:	807780        	add	a7, a7, a8
40082bbb:	1aa082        	movi	a8, 26
40082bbe:	201110        	or	a1, a1, a1
40082bc1:	001555        	call4	40082d18 <_Test_8B10D205_p_Assert>
40082bc4:	201110        	or	a1, a1, a1
40082bc7:	000a15        	call4	40082c68 <_Test_8B10D205_p_Next>
40082bca:	5c0262        	l8ui	a6, a2, 92
40082bcd:	ff5e71        	l32r	a7, 40082948 <_ProcTests+0x28>
40082bd0:	28a182        	movi	a8, 0x128
40082bd3:	778a      	add.n	a7, a7, a8
40082bd5:	a81c      	movi.n	a8, 26
40082bd7:	201110        	or	a1, a1, a1
40082bda:	0013d5        	call4	40082d18 <_Test_8B10D205_p_Assert>
40082bdd:	201110        	or	a1, a1, a1
40082be0:	000415        	call4	40082c24 <_Test_8B10D205_p_End>
40082be3:	ff5961        	l32r	a6, 40082948 <_ProcTests+0x28>
40082be6:	44a172        	movi	a7, 0x144
40082be9:	806670        	add	a6, a6, a7
40082bec:	570c      	movi.n	a7, 5
40082bee:	201110        	or	a1, a1, a1
40082bf1:	002b95        	call4	40082eac <_Out_70D42FFB_p_String>
40082bf4:	201110        	or	a1, a1, a1
40082bf7:	007955        	call4	4008338c <_Out_70D42FFB_p_Ln>
40082bfa:	201110        	or	a1, a1, a1
40082bfd:	0026d5        	call4	40082e6c <_Out_70D42FFB_p_Flush>
40082c00:	f01d      	retw.n
40082c02:	400000        	ssr	a0
40082c05:	3ffb12        	s32ri	a1, a11, 252

40082c08 <_Put>:
40082c08:	004136        	entry	a1, 32
40082c0b:	0129      	s32i.n	a2, a1, 0
40082c0d:	fffd21        	l32r	a2, 40082c04 <L27+0x52>
40082c10:	000162        	l8ui	a6, a1, 0
40082c13:	201110        	or	a1, a1, a1
40082c16:	0026d5        	call4	40082e84 <_Out_70D42FFB_p_Char>
40082c19:	201110        	or	a1, a1, a1
40082c1c:	0024d5        	call4	40082e6c <_Out_70D42FFB_p_Flush>
40082c1f:	f01d      	retw.n
40082c21:	000000        	ill

40082c24 <_Test_8B10D205_p_End>:
40082c24:	002136        	entry	a1, 16
40082c27:	fff721        	l32r	a2, 40082c04 <L27+0x52>
40082c2a:	2ea062        	movi	a6, 46
40082c2d:	fffd95        	call4	40082c08 <_Put>
40082c30:	f01d      	retw.n
	...

40082c34 <_Test_8B10D205_p_First>:
40082c34:	004136        	entry	a1, 32
40082c37:	006122        	s32i	a2, a1, 0
40082c3a:	fff221        	l32r	a2, 40082c04 <L27+0x52>
40082c3d:	000132        	l8ui	a3, a1, 0
40082c40:	03d242        	addmi	a4, a2, 0x300
40082c43:	2d4432        	s8i	a3, a4, 45
40082c46:	000162        	l8ui	a6, a1, 0
40082c49:	fffbd5        	call4	40082c08 <_Put>
40082c4c:	000132        	l8ui	a3, a1, 0
40082c4f:	331b      	addi.n	a3, a3, 1
40082c51:	03d242        	addmi	a4, a2, 0x300
40082c54:	2c4432        	s8i	a3, a4, 44
40082c57:	000132        	l8ui	a3, a1, 0
40082c5a:	1ac332        	addi	a3, a3, 26
40082c5d:	03d242        	addmi	a4, a2, 0x300
40082c60:	2e4432        	s8i	a3, a4, 46
40082c63:	f01d      	retw.n
40082c65:	000000        	ill

40082c68 <_Test_8B10D205_p_Next>:
40082c68:	002136        	entry	a1, 16
40082c6b:	ffe621        	l32r	a2, 40082c04 <L27+0x52>
40082c6e:	03d272        	addmi	a7, a2, 0x300
40082c71:	2c0762        	l8ui	a6, a7, 44
40082c74:	fff915        	call4	40082c08 <_Put>
40082c77:	03d242        	addmi	a4, a2, 0x300
40082c7a:	2c0432        	l8ui	a3, a4, 44
40082c7d:	331b      	addi.n	a3, a3, 1
40082c7f:	03d242        	addmi	a4, a2, 0x300
40082c82:	2c4432        	s8i	a3, a4, 44
40082c85:	03d242        	addmi	a4, a2, 0x300
40082c88:	2c0432        	l8ui	a3, a4, 44
40082c8b:	03d252        	addmi	a5, a2, 0x300
40082c8e:	2e0542        	l8ui	a4, a5, 46
40082c91:	0b2347        	blt	a3, a4, 40082ca0 <L1>
40082c94:	03d242        	addmi	a4, a2, 0x300
40082c97:	2d0432        	l8ui	a3, a4, 45
40082c9a:	03d242        	addmi	a4, a2, 0x300
40082c9d:	2c4432        	s8i	a3, a4, 44

40082ca0 <L1>:
40082ca0:	f01d      	retw.n
	...

40082ca4 <_Test_8B10D205_p_Register>:
40082ca4:	004136        	entry	a1, 32
40082ca7:	0129      	s32i.n	a2, a1, 0
40082ca9:	ffd621        	l32r	a2, 40082c04 <L27+0x52>
40082cac:	201110        	or	a1, a1, a1
40082caf:	006dd5        	call4	4008338c <_Out_70D42FFB_p_Ln>
40082cb2:	2238      	l32i.n	a3, a2, 8
40082cb4:	c7a042        	movi	a4, 199
40082cb7:	12a347        	bge	a3, a4, 40082ccd <L2>
40082cba:	2238      	l32i.n	a3, a2, 8
40082cbc:	1133e0        	slli	a3, a3, 2
40082cbf:	323a      	add.n	a3, a2, a3
40082cc1:	0148      	l32i.n	a4, a1, 0
40082cc3:	3349      	s32i.n	a4, a3, 12
40082cc5:	328b      	addi.n	a3, a2, 8
40082cc7:	0348      	l32i.n	a4, a3, 0
40082cc9:	441b      	addi.n	a4, a4, 1
40082ccb:	0349      	s32i.n	a4, a3, 0

40082ccd <L2>:
40082ccd:	f01d      	retw.n
40082ccf:	0c7c00        	lsi	f0, a12, 48
40082cd2:	3ffb      	addi.n	a3, a15, 15

40082cd4 <_Test_8B10D205_p_Exec>:
40082cd4:	004136        	entry	a1, 32
40082cd7:	ffcb21        	l32r	a2, 40082c04 <L27+0x52>
40082cda:	fffd61        	l32r	a6, 40082cd0 <L2+0x3>
40082cdd:	670c      	movi.n	a7, 6
40082cdf:	201110        	or	a1, a1, a1
40082ce2:	001c95        	call4	40082eac <_Out_70D42FFB_p_String>
40082ce5:	201110        	or	a1, a1, a1
40082ce8:	006a15        	call4	4008338c <_Out_70D42FFB_p_Ln>
40082ceb:	201110        	or	a1, a1, a1
40082cee:	0069d5        	call4	4008338c <_Out_70D42FFB_p_Ln>
40082cf1:	030c      	movi.n	a3, 0
40082cf3:	1239      	s32i.n	a3, a2, 4
40082cf5:	030c      	movi.n	a3, 0

40082cf7 <L3>:
40082cf7:	2248      	l32i.n	a4, a2, 8
40082cf9:	440b      	addi.n	a4, a4, -1
40082cfb:	142437        	blt	a4, a3, 40082d13 <L4>
40082cfe:	0139      	s32i.n	a3, a1, 0
40082d00:	0138      	l32i.n	a3, a1, 0
40082d02:	1133e0        	slli	a3, a3, 2
40082d05:	323a      	add.n	a3, a2, a3
40082d07:	3338      	l32i.n	a3, a3, 12
40082d09:	0003d0        	callx4	a3
40082d0c:	0138      	l32i.n	a3, a1, 0
40082d0e:	331b      	addi.n	a3, a3, 1
40082d10:	fff8c6        	j	40082cf7 <L3>

40082d13 <L4>:
40082d13:	1238      	l32i.n	a3, a2, 4
40082d15:	f01d      	retw.n
	...

40082d18 <_Test_8B10D205_p_Assert>:
40082d18:	004136        	entry	a1, 32
40082d1b:	0129      	s32i.n	a2, a1, 0
40082d1d:	1139      	s32i.n	a3, a1, 4
40082d1f:	2149      	s32i.n	a4, a1, 8
40082d21:	ffb821        	l32r	a2, 40082c04 <L27+0x52>
40082d24:	023d      	mov.n	a3, a2
40082d26:	0348      	l32i.n	a4, a3, 0
40082d28:	01c442        	addi	a4, a4, 1
40082d2b:	006342        	s32i	a4, a3, 0
40082d2e:	fff395        	call4	40082c68 <_Test_8B10D205_p_Next>
40082d31:	000132        	l8ui	a3, a1, 0
40082d34:	e3fc      	bnez.n	a3, 40082d76 <L5>
40082d36:	201110        	or	a1, a1, a1
40082d39:	006515        	call4	4008338c <_Out_70D42FFB_p_Ln>
40082d3c:	ffe561        	l32r	a6, 40082cd0 <L2+0x3>
40082d3f:	668b      	addi.n	a6, a6, 8
40082d41:	18a072        	movi	a7, 24
40082d44:	201110        	or	a1, a1, a1
40082d47:	001655        	call4	40082eac <_Out_70D42FFB_p_String>
40082d4a:	1168      	l32i.n	a6, a1, 4
40082d4c:	2178      	l32i.n	a7, a1, 8
40082d4e:	201110        	or	a1, a1, a1
40082d51:	001595        	call4	40082eac <_Out_70D42FFB_p_String>
40082d54:	ffdf61        	l32r	a6, 40082cd0 <L2+0x3>
40082d57:	20c662        	addi	a6, a6, 32
40082d5a:	870c      	movi.n	a7, 8
40082d5c:	201110        	or	a1, a1, a1
40082d5f:	0014d5        	call4	40082eac <_Out_70D42FFB_p_String>
40082d62:	201110        	or	a1, a1, a1
40082d65:	006255        	call4	4008338c <_Out_70D42FFB_p_Ln>
40082d68:	201110        	or	a1, a1, a1
40082d6b:	001015        	call4	40082e6c <_Out_70D42FFB_p_Flush>
40082d6e:	324b      	addi.n	a3, a2, 4
40082d70:	0348      	l32i.n	a4, a3, 0
40082d72:	441b      	addi.n	a4, a4, 1
40082d74:	0349      	s32i.n	a4, a3, 0

40082d76 <L5>:
40082d76:	f01d      	retw.n

40082d78 <_Test_8B10D205_p_Completed>:
40082d78:	002136        	entry	a1, 16
40082d7b:	ffa221        	l32r	a2, 40082c04 <L27+0x52>
40082d7e:	201110        	or	a1, a1, a1
40082d81:	006095        	call4	4008338c <_Out_70D42FFB_p_Ln>
40082d84:	201110        	or	a1, a1, a1
40082d87:	006055        	call4	4008338c <_Out_70D42FFB_p_Ln>
40082d8a:	ffd161        	l32r	a6, 40082cd0 <L2+0x3>
40082d8d:	28c662        	addi	a6, a6, 40
40082d90:	11a072        	movi	a7, 17
40082d93:	201110        	or	a1, a1, a1
40082d96:	001155        	call4	40082eac <_Out_70D42FFB_p_String>
40082d99:	201110        	or	a1, a1, a1
40082d9c:	005ed5        	call4	4008338c <_Out_70D42FFB_p_Ln>
40082d9f:	ffcc61        	l32r	a6, 40082cd0 <L2+0x3>
40082da2:	3cc662        	addi	a6, a6, 60
40082da5:	c71c      	movi.n	a7, 28
40082da7:	201110        	or	a1, a1, a1
40082daa:	001015        	call4	40082eac <_Out_70D42FFB_p_String>
40082dad:	022262        	l32i	a6, a2, 8
40082db0:	00a072        	movi	a7, 0
40082db3:	201110        	or	a1, a1, a1
40082db6:	001315        	call4	40082ee8 <_Out_70D42FFB_p_Int>
40082db9:	201110        	or	a1, a1, a1
40082dbc:	005cd5        	call4	4008338c <_Out_70D42FFB_p_Ln>
40082dbf:	ffc461        	l32r	a6, 40082cd0 <L2+0x3>
40082dc2:	58c662        	addi	a6, a6, 88
40082dc5:	1ba072        	movi	a7, 27
40082dc8:	201110        	or	a1, a1, a1
40082dcb:	000e15        	call4	40082eac <_Out_70D42FFB_p_String>
40082dce:	0268      	l32i.n	a6, a2, 0
40082dd0:	070c      	movi.n	a7, 0
40082dd2:	201110        	or	a1, a1, a1
40082dd5:	001115        	call4	40082ee8 <_Out_70D42FFB_p_Int>
40082dd8:	1238      	l32i.n	a3, a2, 4
40082dda:	040c      	movi.n	a4, 0
40082ddc:	34a437        	bge	a4, a3, 40082e14 <L6>
40082ddf:	201110        	or	a1, a1, a1
40082de2:	005a95        	call4	4008338c <_Out_70D42FFB_p_Ln>
40082de5:	ffba61        	l32r	a6, 40082cd0 <L2+0x3>
40082de8:	74c662        	addi	a6, a6, 116
40082deb:	0aa072        	movi	a7, 10
40082dee:	201110        	or	a1, a1, a1
40082df1:	000b95        	call4	40082eac <_Out_70D42FFB_p_String>
40082df4:	012262        	l32i	a6, a2, 4
40082df7:	00a072        	movi	a7, 0
40082dfa:	201110        	or	a1, a1, a1
40082dfd:	000e95        	call4	40082ee8 <_Out_70D42FFB_p_Int>
40082e00:	ffb461        	l32r	a6, 40082cd0 <L2+0x3>
40082e03:	80a072        	movi	a7, 128
40082e06:	667a      	add.n	a6, a6, a7
40082e08:	471c      	movi.n	a7, 20
40082e0a:	201110        	or	a1, a1, a1
40082e0d:	0009d5        	call4	40082eac <_Out_70D42FFB_p_String>
40082e10:	000586        	j	40082e2a <L7>
	...

40082e14 <L6>:
40082e14:	201110        	or	a1, a1, a1
40082e17:	005755        	call4	4008338c <_Out_70D42FFB_p_Ln>
40082e1a:	ffad61        	l32r	a6, 40082cd0 <L2+0x3>
40082e1d:	94a072        	movi	a7, 148
40082e20:	667a      	add.n	a6, a6, a7
40082e22:	971c      	movi.n	a7, 25
40082e24:	201110        	or	a1, a1, a1
40082e27:	000855        	call4	40082eac <_Out_70D42FFB_p_String>

40082e2a <L7>:
40082e2a:	1238      	l32i.n	a3, a2, 4
40082e2c:	f01d      	retw.n
	...

40082e30 <_Test_8B10D205_p_Setup>:
40082e30:	002136        	entry	a1, 16
40082e33:	ff7421        	l32r	a2, 40082c04 <L27+0x52>
40082e36:	030c      	movi.n	a3, 0
40082e38:	0239      	s32i.n	a3, a2, 0
40082e3a:	030c      	movi.n	a3, 0
40082e3c:	1239      	s32i.n	a3, a2, 4
40082e3e:	030c      	movi.n	a3, 0
40082e40:	2239      	s32i.n	a3, a2, 8
40082e42:	f01d      	retw.n
40082e44:	fb1570        	f64addc	a7, a5, 0, 1
40082e47:	3f          	.byte 0x3f
40082e48:	001c      	movi.n	a0, 16
40082e4a:	        	lsi	f15, a15, 216

40082e4c <_Out_70D42FFB_s_text>:
40082e4c:	004136        	entry	a1, 32
40082e4f:	fffd21        	l32r	a2, 40082e44 <_Test_8B10D205_p_Setup+0x14>
40082e52:	fffd31        	l32r	a3, 40082e48 <_Test_8B10D205_p_Setup+0x18>
40082e55:	0338      	l32i.n	a3, a3, 0
40082e57:	1139      	s32i.n	a3, a1, 4
40082e59:	1138      	l32i.n	a3, a1, 4
40082e5b:	313030        	srai	a3, a3, 16
40082e5e:	ffa042        	movi	a4, 255
40082e61:	103340        	and	a3, a3, a4
40082e64:	0139      	s32i.n	a3, a1, 0
40082e66:	0138      	l32i.n	a3, a1, 0
40082e68:	f01d      	retw.n
	...

40082e6c <_Out_70D42FFB_p_Flush>:
40082e6c:	002136        	entry	a1, 16
40082e6f:	fff521        	l32r	a2, 40082e44 <_Test_8B10D205_p_Setup+0x14>

40082e72 <L1>:
40082e72:	fffd95        	call4	40082e4c <_Out_70D42FFB_s_text>
40082e75:	073d      	mov.n	a3, a7
40082e77:	040c      	movi.n	a4, 0
40082e79:	02a437        	bge	a4, a3, 40082e7f <L2>
40082e7c:	fffc86        	j	40082e72 <L1>

40082e7f <L2>:
40082e7f:	f01d      	retw.n
40082e81:	000000        	ill

40082e84 <_Out_70D42FFB_p_Char>:
40082e84:	004136        	entry	a1, 32
40082e87:	006122        	s32i	a2, a1, 0
40082e8a:	ffee21        	l32r	a2, 40082e44 <_Test_8B10D205_p_Setup+0x14>

40082e8d <L3>:
40082e8d:	fffbd5        	call4	40082e4c <_Out_70D42FFB_s_text>
40082e90:	073d      	mov.n	a3, a7
40082e92:	78a042        	movi	a4, 120
40082e95:	07a437        	bge	a4, a3, 40082ea0 <L4>
40082e98:	fffc46        	j	40082e8d <L3>
40082e9b:	000000        	ill
40082e9e:	        	lsi	f15, a15, 200

40082ea0 <L4>:
40082ea0:	000132        	l8ui	a3, a1, 0
40082ea3:	fffe41        	l32r	a4, 40082e9c <L3+0xf>
40082ea6:	0439      	s32i.n	a3, a4, 0
40082ea8:	f01d      	retw.n
	...

40082eac <_Out_70D42FFB_p_String>:
40082eac:	004136        	entry	a1, 32
40082eaf:	0129      	s32i.n	a2, a1, 0
40082eb1:	1139      	s32i.n	a3, a1, 4
40082eb3:	ffe421        	l32r	a2, 40082e44 <_Test_8B10D205_p_Setup+0x14>
40082eb6:	030c      	movi.n	a3, 0
40082eb8:	2139      	s32i.n	a3, a1, 8

40082eba <L5>:
40082eba:	1138      	l32i.n	a3, a1, 4
40082ebc:	2148      	l32i.n	a4, a1, 8
40082ebe:	23a437        	bge	a4, a3, 40082ee5 <L6>
40082ec1:	2138      	l32i.n	a3, a1, 8
40082ec3:	0148      	l32i.n	a4, a1, 0
40082ec5:	343a      	add.n	a3, a4, a3
40082ec7:	000332        	l8ui	a3, a3, 0
40082eca:	040c      	movi.n	a4, 0
40082ecc:	151347        	beq	a3, a4, 40082ee5 <L6>

40082ecf <L7>:
40082ecf:	2168      	l32i.n	a6, a1, 8
40082ed1:	0178      	l32i.n	a7, a1, 0
40082ed3:	806760        	add	a6, a7, a6
40082ed6:	000662        	l8ui	a6, a6, 0
40082ed9:	fffa95        	call4	40082e84 <_Out_70D42FFB_p_Char>
40082edc:	2138      	l32i.n	a3, a1, 8
40082ede:	331b      	addi.n	a3, a3, 1
40082ee0:	2139      	s32i.n	a3, a1, 8
40082ee2:	fff506        	j	40082eba <L5>

40082ee5 <L6>:
40082ee5:	f01d      	retw.n
	...

40082ee8 <_Out_70D42FFB_p_Int>:
40082ee8:	006136        	entry	a1, 48
40082eeb:	0129      	s32i.n	a2, a1, 0
40082eed:	1139      	s32i.n	a3, a1, 4
40082eef:	ffd521        	l32r	a2, 40082e44 <_Test_8B10D205_p_Setup+0x14>
40082ef2:	030c      	movi.n	a3, 0
40082ef4:	2139      	s32i.n	a3, a1, 8
40082ef6:	0138      	l32i.n	a3, a1, 0
40082ef8:	040c      	movi.n	a4, 0
40082efa:	12a347        	bge	a3, a4, 40082f10 <L8>
40082efd:	0138      	l32i.n	a3, a1, 0
40082eff:	603030        	neg	a3, a3
40082f02:	3139      	s32i.n	a3, a1, 12
40082f04:	1138      	l32i.n	a3, a1, 4
40082f06:	330b      	addi.n	a3, a3, -1
40082f08:	1139      	s32i.n	a3, a1, 4
40082f0a:	0001c6        	j	40082f15 <L10>
40082f0d:	000000        	ill

40082f10 <L8>:
40082f10:	0138      	l32i.n	a3, a1, 0
40082f12:	036132        	s32i	a3, a1, 12

40082f15 <L10>:
40082f15:	2138      	l32i.n	a3, a1, 8
40082f17:	313a      	add.n	a3, a1, a3
40082f19:	3148      	l32i.n	a4, a1, 12
40082f1b:	a50c      	movi.n	a5, 10
40082f1d:	f24450        	rems	a4, a4, a5
40082f20:	30c442        	addi	a4, a4, 48
40082f23:	104342        	s8i	a4, a3, 16
40082f26:	3138      	l32i.n	a3, a1, 12
40082f28:	a40c      	movi.n	a4, 10
40082f2a:	d23340        	quos	a3, a3, a4
40082f2d:	3139      	s32i.n	a3, a1, 12
40082f2f:	2138      	l32i.n	a3, a1, 8
40082f31:	331b      	addi.n	a3, a3, 1
40082f33:	2139      	s32i.n	a3, a1, 8
40082f35:	3138      	l32i.n	a3, a1, 12
40082f37:	040c      	movi.n	a4, 0
40082f39:	d89347        	bne	a3, a4, 40082f15 <L10>

40082f3c <L11>:
40082f3c:	1138      	l32i.n	a3, a1, 4
40082f3e:	2148      	l32i.n	a4, a1, 8
40082f40:	10a437        	bge	a4, a3, 40082f54 <L12>
40082f43:	062c      	movi.n	a6, 32
40082f45:	fff3d5        	call4	40082e84 <_Out_70D42FFB_p_Char>
40082f48:	1138      	l32i.n	a3, a1, 4
40082f4a:	330b      	addi.n	a3, a3, -1
40082f4c:	1139      	s32i.n	a3, a1, 4
40082f4e:	fffa86        	j	40082f3c <L11>
40082f51:	000000        	ill

40082f54 <L12>:
40082f54:	0138      	l32i.n	a3, a1, 0
40082f56:	040c      	movi.n	a4, 0
40082f58:	04a347        	bge	a3, a4, 40082f60 <L13>
40082f5b:	d62c      	movi.n	a6, 45
40082f5d:	fff255        	call4	40082e84 <_Out_70D42FFB_p_Char>

40082f60 <L13>:
40082f60:	2138      	l32i.n	a3, a1, 8
40082f62:	330b      	addi.n	a3, a3, -1
40082f64:	2139      	s32i.n	a3, a1, 8
40082f66:	2168      	l32i.n	a6, a1, 8
40082f68:	616a      	add.n	a6, a1, a6
40082f6a:	100662        	l8ui	a6, a6, 16
40082f6d:	fff155        	call4	40082e84 <_Out_70D42FFB_p_Char>
40082f70:	2138      	l32i.n	a3, a1, 8
40082f72:	040c      	movi.n	a4, 0
40082f74:	e89347        	bne	a3, a4, 40082f60 <L13>
40082f77:	f01d      	retw.n
40082f79:	000000        	ill

40082f7c <_Out_70D42FFB_p_Hex>:
40082f7c:	006136        	entry	a1, 48
40082f7f:	0129      	s32i.n	a2, a1, 0
40082f81:	1139      	s32i.n	a3, a1, 4
40082f83:	ffb021        	l32r	a2, 40082e44 <_Test_8B10D205_p_Setup+0x14>
40082f86:	030c      	movi.n	a3, 0
40082f88:	2139      	s32i.n	a3, a1, 8

40082f8a <L15>:
40082f8a:	0138      	l32i.n	a3, a1, 0
40082f8c:	f40c      	movi.n	a4, 15
40082f8e:	103340        	and	a3, a3, a4
40082f91:	3139      	s32i.n	a3, a1, 12
40082f93:	3138      	l32i.n	a3, a1, 12
40082f95:	a40c      	movi.n	a4, 10
40082f97:	11a347        	bge	a3, a4, 40082fac <L16>
40082f9a:	2138      	l32i.n	a3, a1, 8
40082f9c:	313a      	add.n	a3, a1, a3
40082f9e:	3148      	l32i.n	a4, a1, 12
40082fa0:	30c442        	addi	a4, a4, 48
40082fa3:	104342        	s8i	a4, a3, 16
40082fa6:	000386        	j	40082fb8 <L17>
40082fa9:	000000        	ill

40082fac <L16>:
40082fac:	2138      	l32i.n	a3, a1, 8
40082fae:	313a      	add.n	a3, a1, a3
40082fb0:	3148      	l32i.n	a4, a1, 12
40082fb2:	37c442        	addi	a4, a4, 55
40082fb5:	104342        	s8i	a4, a3, 16

40082fb8 <L17>:
40082fb8:	0138      	l32i.n	a3, a1, 0
40082fba:	213430        	srai	a3, a3, 4
40082fbd:	0139      	s32i.n	a3, a1, 0
40082fbf:	2138      	l32i.n	a3, a1, 8
40082fc1:	331b      	addi.n	a3, a3, 1
40082fc3:	2139      	s32i.n	a3, a1, 8
40082fc5:	2138      	l32i.n	a3, a1, 8
40082fc7:	840c      	movi.n	a4, 8
40082fc9:	bd9347        	bne	a3, a4, 40082f8a <L15>

40082fcc <L18>:
40082fcc:	1138      	l32i.n	a3, a1, 4
40082fce:	840c      	movi.n	a4, 8
40082fd0:	10a437        	bge	a4, a3, 40082fe4 <L19>
40082fd3:	062c      	movi.n	a6, 32
40082fd5:	ffead5        	call4	40082e84 <_Out_70D42FFB_p_Char>
40082fd8:	1138      	l32i.n	a3, a1, 4
40082fda:	330b      	addi.n	a3, a3, -1
40082fdc:	1139      	s32i.n	a3, a1, 4
40082fde:	fffa86        	j	40082fcc <L18>
40082fe1:	000000        	ill

40082fe4 <L19>:
40082fe4:	2138      	l32i.n	a3, a1, 8
40082fe6:	330b      	addi.n	a3, a3, -1
40082fe8:	2139      	s32i.n	a3, a1, 8
40082fea:	2168      	l32i.n	a6, a1, 8
40082fec:	616a      	add.n	a6, a1, a6
40082fee:	100662        	l8ui	a6, a6, 16
40082ff1:	ffe915        	call4	40082e84 <_Out_70D42FFB_p_Char>
40082ff4:	2138      	l32i.n	a3, a1, 8
40082ff6:	040c      	movi.n	a4, 0
40082ff8:	e89347        	bne	a3, a4, 40082fe4 <L19>
40082ffb:	f01d      	retw.n
40082ffd:	000000        	ill
40083000:	800000        	add	a0, a0, a0
40083003:	3f          	.byte 0x3f

40083004 <_Ten>:
40083004:	004136        	entry	a1, 32
40083007:	0129      	s32i.n	a2, a1, 0
40083009:	ff8e21        	l32r	a2, 40082e44 <_Test_8B10D205_p_Setup+0x14>
4008300c:	fffd31        	l32r	a3, 40083000 <L19+0x1c>
4008300f:	1139      	s32i.n	a3, a1, 4
40083011:	fcf831        	l32r	a3, 400823f4 <_Put+0x20>
40083014:	2139      	s32i.n	a3, a1, 8

40083016 <L21>:
40083016:	0138      	l32i.n	a3, a1, 0
40083018:	040c      	movi.n	a4, 0
4008301a:	36a437        	bge	a4, a3, 40083054 <L22>
4008301d:	0138      	l32i.n	a3, a1, 0
4008301f:	140c      	movi.n	a4, 1
40083021:	103340        	and	a3, a3, a4
40083024:	039c      	beqz.n	a3, 40083038 <L23>
40083026:	2138      	l32i.n	a3, a1, 8
40083028:	1148      	l32i.n	a4, a1, 4
4008302a:	fa0350        	wfr	f0, a3
4008302d:	fa1450        	wfr	f1, a4
40083030:	2a2010        	mul.s	f2, f0, f1
40083033:	fa3240        	rfr	a3, f2
40083036:	1139      	s32i.n	a3, a1, 4

40083038 <L23>:
40083038:	2138      	l32i.n	a3, a1, 8
4008303a:	2148      	l32i.n	a4, a1, 8
4008303c:	fa0350        	wfr	f0, a3
4008303f:	fa1450        	wfr	f1, a4
40083042:	2a2010        	mul.s	f2, f0, f1
40083045:	fa3240        	rfr	a3, f2
40083048:	2139      	s32i.n	a3, a1, 8
4008304a:	0138      	l32i.n	a3, a1, 0
4008304c:	213130        	srai	a3, a3, 1
4008304f:	0139      	s32i.n	a3, a1, 0
40083051:	fff046        	j	40083016 <L21>

40083054 <L22>:
40083054:	1138      	l32i.n	a3, a1, 4
40083056:	f01d      	retw.n
40083058:	0d2c      	movi.n	a13, 32
4008305a:	3ffb      	addi.n	a3, a15, 15

4008305c <_Out_70D42FFB_p_Real>:
4008305c:	008136        	entry	a1, 64
4008305f:	0129      	s32i.n	a2, a1, 0
40083061:	1139      	s32i.n	a3, a1, 4
40083063:	ff7821        	l32r	a2, 40082e44 <_Test_8B10D205_p_Setup+0x14>
40083066:	0138      	l32i.n	a3, a1, 0
40083068:	313730        	srai	a3, a3, 23
4008306b:	ffa042        	movi	a4, 255
4008306e:	103340        	and	a3, a3, a4
40083071:	2139      	s32i.n	a3, a1, 8
40083073:	2138      	l32i.n	a3, a1, 8
40083075:	040c      	movi.n	a4, 0
40083077:	219347        	bne	a3, a4, 4008309c <L24>
4008307a:	fff761        	l32r	a6, 40083058 <L22+0x4>
4008307d:	570c      	movi.n	a7, 5
4008307f:	ffe2d5        	call4	40082eac <_Out_70D42FFB_p_String>

40083082 <L25>:
40083082:	1138      	l32i.n	a3, a1, 4
40083084:	340c      	movi.n	a4, 3
40083086:	0d2347        	blt	a3, a4, 40083097 <L26>
40083089:	062c      	movi.n	a6, 32
4008308b:	ffdf95        	call4	40082e84 <_Out_70D42FFB_p_Char>
4008308e:	1138      	l32i.n	a3, a1, 4
40083090:	330b      	addi.n	a3, a3, -1
40083092:	1139      	s32i.n	a3, a1, 4
40083094:	fffa86        	j	40083082 <L25>

40083097 <L26>:
40083097:	006d46        	j	40083250 <L27>
	...

4008309c <L24>:
4008309c:	2138      	l32i.n	a3, a1, 8
4008309e:	ffa042        	movi	a4, 255
400830a1:	0f9347        	bne	a3, a4, 400830b4 <L28>
400830a4:	ffed61        	l32r	a6, 40083058 <L22+0x4>
400830a7:	08c662        	addi	a6, a6, 8
400830aa:	06a072        	movi	a7, 6
400830ad:	ffdfd5        	call4	40082eac <_Out_70D42FFB_p_String>
400830b0:	006706        	j	40083250 <L27>
	...

400830b4 <L28>:
400830b4:	062c      	movi.n	a6, 32
400830b6:	ffdcd5        	call4	40082e84 <_Out_70D42FFB_p_Char>

400830b9 <L29>:
400830b9:	1138      	l32i.n	a3, a1, 4
400830bb:	f40c      	movi.n	a4, 15
400830bd:	0f2347        	blt	a3, a4, 400830d0 <L30>
400830c0:	1138      	l32i.n	a3, a1, 4
400830c2:	330b      	addi.n	a3, a3, -1
400830c4:	1139      	s32i.n	a3, a1, 4
400830c6:	20a062        	movi	a6, 32
400830c9:	ffdb95        	call4	40082e84 <_Out_70D42FFB_p_Char>
400830cc:	fffa46        	j	400830b9 <L29>
	...

400830d0 <L30>:
400830d0:	0138      	l32i.n	a3, a1, 0
400830d2:	040c      	movi.n	a4, 0
400830d4:	14a347        	bge	a3, a4, 400830ec <L31>
400830d7:	d62c      	movi.n	a6, 45
400830d9:	ffda95        	call4	40082e84 <_Out_70D42FFB_p_Char>
400830dc:	0138      	l32i.n	a3, a1, 0
400830de:	fa0350        	wfr	f0, a3
400830e1:	fa0060        	neg.s	f0, f0
400830e4:	fa3040        	rfr	a3, f0
400830e7:	0139      	s32i.n	a3, a1, 0
400830e9:	000106        	j	400830f1 <L32>

400830ec <L31>:
400830ec:	062c      	movi.n	a6, 32
400830ee:	ffd955        	call4	40082e84 <_Out_70D42FFB_p_Char>

400830f1 <L32>:
400830f1:	2138      	l32i.n	a3, a1, 8
400830f3:	81c332        	addi	a3, a3, -127
400830f6:	d44c      	movi.n	a4, 77
400830f8:	823340        	mull	a3, a3, a4
400830fb:	213830        	srai	a3, a3, 8
400830fe:	fac332        	addi	a3, a3, -6
40083101:	2139      	s32i.n	a3, a1, 8
40083103:	2138      	l32i.n	a3, a1, 8
40083105:	00a042        	movi	a4, 0
40083108:	282347        	blt	a3, a4, 40083134 <L33>
4008310b:	2168      	l32i.n	a6, a1, 8
4008310d:	ffef55        	call4	40083004 <_Ten>
40083110:	073d      	mov.n	a3, a7
40083112:	0148      	l32i.n	a4, a1, 0
40083114:	fa0450        	wfr	f0, a4
40083117:	fa1350        	wfr	f1, a3
4008311a:	005d      	mov.n	a5, a0
4008311c:	201110        	or	a1, a1, a1
4008311f:	fd2e05        	call0	40080400 <__fdiv32>
40083122:	050d      	mov.n	a0, a5
40083124:	fa3240        	rfr	a3, f2
40083127:	0139      	s32i.n	a3, a1, 0
40083129:	000846        	j	4008314e <L34>
4008312c:	000000        	ill
4008312f:	3f          	.byte 0x3f
40083130:	989680        	lsi	f8, a6, 0x260
	...

40083134 <L33>:
40083134:	2168      	l32i.n	a6, a1, 8
40083136:	606060        	neg	a6, a6
40083139:	ffec95        	call4	40083004 <_Ten>
4008313c:	073d      	mov.n	a3, a7
4008313e:	0148      	l32i.n	a4, a1, 0
40083140:	fa0350        	wfr	f0, a3
40083143:	fa1450        	wfr	f1, a4
40083146:	2a2010        	mul.s	f2, f0, f1
40083149:	fa3240        	rfr	a3, f2
4008314c:	0139      	s32i.n	a3, a1, 0

4008314e <L34>:
4008314e:	0138      	l32i.n	a3, a1, 0
40083150:	fff741        	l32r	a4, 4008312c <L32+0x3b>
40083153:	fa0350        	wfr	f0, a3
40083156:	fa1450        	wfr	f1, a4
40083159:	0a2010        	add.s	f2, f0, f1
4008315c:	fa3240        	rfr	a3, f2
4008315f:	fa0350        	wfr	f0, a3
40083162:	aa3000        	floor.s	a3, f0, 0
40083165:	5139      	s32i.n	a3, a1, 20
40083167:	5138      	l32i.n	a3, a1, 20
40083169:	fff141        	l32r	a4, 40083130 <L32+0x3f>
4008316c:	0e2347        	blt	a3, a4, 4008317e <L35>
4008316f:	2138      	l32i.n	a3, a1, 8
40083171:	331b      	addi.n	a3, a3, 1
40083173:	2139      	s32i.n	a3, a1, 8
40083175:	5138      	l32i.n	a3, a1, 20
40083177:	a40c      	movi.n	a4, 10
40083179:	d23340        	quos	a3, a3, a4
4008317c:	5139      	s32i.n	a3, a1, 20

4008317e <L35>:
4008317e:	030c      	movi.n	a3, 0
40083180:	3139      	s32i.n	a3, a1, 12
40083182:	d30c      	movi.n	a3, 13
40083184:	1148      	l32i.n	a4, a1, 4
40083186:	c03340        	sub	a3, a3, a4
40083189:	046132        	s32i	a3, a1, 16

4008318c <L36>:
4008318c:	3138      	l32i.n	a3, a1, 12
4008318e:	4148      	l32i.n	a4, a1, 16
40083190:	059347        	bne	a3, a4, 40083199 <L37>
40083193:	5138      	l32i.n	a3, a1, 20
40083195:	335b      	addi.n	a3, a3, 5
40083197:	5139      	s32i.n	a3, a1, 20

40083199 <L37>:
40083199:	3138      	l32i.n	a3, a1, 12
4008319b:	313a      	add.n	a3, a1, a3
4008319d:	5148      	l32i.n	a4, a1, 20
4008319f:	a50c      	movi.n	a5, 10
400831a1:	f24450        	rems	a4, a4, a5
400831a4:	30c442        	addi	a4, a4, 48
400831a7:	184342        	s8i	a4, a3, 24
400831aa:	5138      	l32i.n	a3, a1, 20
400831ac:	a40c      	movi.n	a4, 10
400831ae:	d23340        	quos	a3, a3, a4
400831b1:	5139      	s32i.n	a3, a1, 20
400831b3:	3138      	l32i.n	a3, a1, 12
400831b5:	331b      	addi.n	a3, a3, 1
400831b7:	3139      	s32i.n	a3, a1, 12
400831b9:	5138      	l32i.n	a3, a1, 20
400831bb:	040c      	movi.n	a4, 0
400831bd:	cb9347        	bne	a3, a4, 4008318c <L36>
400831c0:	3138      	l32i.n	a3, a1, 12
400831c2:	330b      	addi.n	a3, a3, -1
400831c4:	3139      	s32i.n	a3, a1, 12
400831c6:	3168      	l32i.n	a6, a1, 12
400831c8:	616a      	add.n	a6, a1, a6
400831ca:	180662        	l8ui	a6, a6, 24
400831cd:	ffcb55        	call4	40082e84 <_Out_70D42FFB_p_Char>
400831d0:	e62c      	movi.n	a6, 46
400831d2:	ffcb15        	call4	40082e84 <_Out_70D42FFB_p_Char>
400831d5:	1138      	l32i.n	a3, a1, 4
400831d7:	f9c332        	addi	a3, a3, -7
400831da:	3148      	l32i.n	a4, a1, 12
400831dc:	08a437        	bge	a4, a3, 400831e8 <L38>
400831df:	030c      	movi.n	a3, 0
400831e1:	1139      	s32i.n	a3, a1, 4
400831e3:	000286        	j	400831f1 <L39>
	...

400831e8 <L38>:
400831e8:	e30c      	movi.n	a3, 14
400831ea:	1148      	l32i.n	a4, a1, 4
400831ec:	c03340        	sub	a3, a3, a4
400831ef:	1139      	s32i.n	a3, a1, 4

400831f1 <L39>:
400831f1:	3138      	l32i.n	a3, a1, 12
400831f3:	1148      	l32i.n	a4, a1, 4
400831f5:	13a437        	bge	a4, a3, 4008320c <L41>
400831f8:	3138      	l32i.n	a3, a1, 12
400831fa:	330b      	addi.n	a3, a3, -1
400831fc:	3139      	s32i.n	a3, a1, 12
400831fe:	3168      	l32i.n	a6, a1, 12
40083200:	616a      	add.n	a6, a1, a6
40083202:	180662        	l8ui	a6, a6, 24
40083205:	ffc7d5        	call4	40082e84 <_Out_70D42FFB_p_Char>
40083208:	fff946        	j	400831f1 <L39>
	...

4008320c <L41>:
4008320c:	564c      	movi.n	a6, 69
4008320e:	ffc755        	call4	40082e84 <_Out_70D42FFB_p_Char>
40083211:	2138      	l32i.n	a3, a1, 8
40083213:	336b      	addi.n	a3, a3, 6
40083215:	2139      	s32i.n	a3, a1, 8
40083217:	2138      	l32i.n	a3, a1, 8
40083219:	040c      	movi.n	a4, 0
4008321b:	11a347        	bge	a3, a4, 40083230 <L42>
4008321e:	2da062        	movi	a6, 45
40083221:	ffc615        	call4	40082e84 <_Out_70D42FFB_p_Char>
40083224:	2138      	l32i.n	a3, a1, 8
40083226:	603030        	neg	a3, a3
40083229:	2139      	s32i.n	a3, a1, 8
4008322b:	000186        	j	40083235 <L43>
	...

40083230 <L42>:
40083230:	b62c      	movi.n	a6, 43
40083232:	ffc515        	call4	40082e84 <_Out_70D42FFB_p_Char>

40083235 <L43>:
40083235:	2168      	l32i.n	a6, a1, 8
40083237:	a70c      	movi.n	a7, 10
40083239:	d26670        	quos	a6, a6, a7
4008323c:	30c662        	addi	a6, a6, 48
4008323f:	ffc455        	call4	40082e84 <_Out_70D42FFB_p_Char>
40083242:	2168      	l32i.n	a6, a1, 8
40083244:	0aa072        	movi	a7, 10
40083247:	f26670        	rems	a6, a6, a7
4008324a:	30c662        	addi	a6, a6, 48
4008324d:	ffc355        	call4	40082e84 <_Out_70D42FFB_p_Char>

40083250 <L27>:
40083250:	f01d      	retw.n
	...

40083254 <_Out_70D42FFB_p_RealFix>:
40083254:	008136        	entry	a1, 64
40083257:	0129      	s32i.n	a2, a1, 0
40083259:	1139      	s32i.n	a3, a1, 4
4008325b:	2149      	s32i.n	a4, a1, 8
4008325d:	fef921        	l32r	a2, 40082e44 <_Test_8B10D205_p_Setup+0x14>
40083260:	0138      	l32i.n	a3, a1, 0
40083262:	00a042        	movi	a4, 0
40083265:	0e9347        	bne	a3, a4, 40083277 <L44>
40083268:	ff7c61        	l32r	a6, 40083058 <L22+0x4>
4008326b:	10c662        	addi	a6, a6, 16
4008326e:	04a072        	movi	a7, 4
40083271:	ffc395        	call4	40082eac <_Out_70D42FFB_p_String>
40083274:	0043c6        	j	40083387 <L45>

40083277 <L44>:
40083277:	0138      	l32i.n	a3, a1, 0
40083279:	040c      	movi.n	a4, 0
4008327b:	15a347        	bge	a3, a4, 40083294 <L46>
4008327e:	0138      	l32i.n	a3, a1, 0
40083280:	fa0350        	wfr	f0, a3
40083283:	fa0060        	neg.s	f0, f0
40083286:	fa3040        	rfr	a3, f0
40083289:	0139      	s32i.n	a3, a1, 0
4008328b:	130c      	movi.n	a3, 1
4008328d:	144132        	s8i	a3, a1, 20
40083290:	000146        	j	40083299 <L47>
	...

40083294 <L46>:
40083294:	030c      	movi.n	a3, 0
40083296:	144132        	s8i	a3, a1, 20

40083299 <L47>:
40083299:	2138      	l32i.n	a3, a1, 8
4008329b:	740c      	movi.n	a4, 7
4008329d:	03a437        	bge	a4, a3, 400832a4 <L48>
400832a0:	730c      	movi.n	a3, 7
400832a2:	2139      	s32i.n	a3, a1, 8

400832a4 <L48>:
400832a4:	2168      	l32i.n	a6, a1, 8
400832a6:	ffd5d5        	call4	40083004 <_Ten>
400832a9:	073d      	mov.n	a3, a7
400832ab:	0148      	l32i.n	a4, a1, 0
400832ad:	fa0350        	wfr	f0, a3
400832b0:	fa1450        	wfr	f1, a4
400832b3:	2a2010        	mul.s	f2, f0, f1
400832b6:	fa3240        	rfr	a3, f2
400832b9:	0139      	s32i.n	a3, a1, 0
400832bb:	0138      	l32i.n	a3, a1, 0
400832bd:	ff9b41        	l32r	a4, 4008312c <L32+0x3b>
400832c0:	fa0350        	wfr	f0, a3
400832c3:	fa1450        	wfr	f1, a4
400832c6:	0a2010        	add.s	f2, f0, f1
400832c9:	fa3240        	rfr	a3, f2
400832cc:	fa0350        	wfr	f0, a3
400832cf:	aa3000        	floor.s	a3, f0, 0
400832d2:	4139      	s32i.n	a3, a1, 16
400832d4:	030c      	movi.n	a3, 0
400832d6:	3139      	s32i.n	a3, a1, 12

400832d8 <L49>:
400832d8:	3138      	l32i.n	a3, a1, 12
400832da:	313a      	add.n	a3, a1, a3
400832dc:	4148      	l32i.n	a4, a1, 16
400832de:	a50c      	movi.n	a5, 10
400832e0:	f24450        	rems	a4, a4, a5
400832e3:	30c442        	addi	a4, a4, 48
400832e6:	184342        	s8i	a4, a3, 24
400832e9:	4138      	l32i.n	a3, a1, 16
400832eb:	a40c      	movi.n	a4, 10
400832ed:	d23340        	quos	a3, a3, a4
400832f0:	4139      	s32i.n	a3, a1, 16
400832f2:	3138      	l32i.n	a3, a1, 12
400832f4:	331b      	addi.n	a3, a3, 1
400832f6:	3139      	s32i.n	a3, a1, 12
400832f8:	4138      	l32i.n	a3, a1, 16
400832fa:	040c      	movi.n	a4, 0
400832fc:	d89347        	bne	a3, a4, 400832d8 <L49>
400832ff:	062c      	movi.n	a6, 32
40083301:	ffb815        	call4	40082e84 <_Out_70D42FFB_p_Char>

40083304 <L50>:
40083304:	3138      	l32i.n	a3, a1, 12
40083306:	333b      	addi.n	a3, a3, 3
40083308:	1148      	l32i.n	a4, a1, 4
4008330a:	0ea347        	bge	a3, a4, 4008331c <L51>
4008330d:	062c      	movi.n	a6, 32
4008330f:	ffb755        	call4	40082e84 <_Out_70D42FFB_p_Char>
40083312:	1138      	l32i.n	a3, a1, 4
40083314:	330b      	addi.n	a3, a3, -1
40083316:	1139      	s32i.n	a3, a1, 4
40083318:	fffa06        	j	40083304 <L50>
	...

4008331c <L51>:
4008331c:	140132        	l8ui	a3, a1, 20
4008331f:	d38c      	beqz.n	a3, 40083330 <L52>
40083321:	d62c      	movi.n	a6, 45
40083323:	ffb615        	call4	40082e84 <_Out_70D42FFB_p_Char>
40083326:	1138      	l32i.n	a3, a1, 4
40083328:	330b      	addi.n	a3, a3, -1
4008332a:	1139      	s32i.n	a3, a1, 4
4008332c:	000146        	j	40083335 <L53>
	...

40083330 <L52>:
40083330:	062c      	movi.n	a6, 32
40083332:	ffb515        	call4	40082e84 <_Out_70D42FFB_p_Char>

40083335 <L53>:
40083335:	3138      	l32i.n	a3, a1, 12
40083337:	2148      	l32i.n	a4, a1, 8
40083339:	13a437        	bge	a4, a3, 40083350 <L55>
4008333c:	3138      	l32i.n	a3, a1, 12
4008333e:	330b      	addi.n	a3, a3, -1
40083340:	3139      	s32i.n	a3, a1, 12
40083342:	3168      	l32i.n	a6, a1, 12
40083344:	616a      	add.n	a6, a1, a6
40083346:	180662        	l8ui	a6, a6, 24
40083349:	ffb395        	call4	40082e84 <_Out_70D42FFB_p_Char>
4008334c:	fff946        	j	40083335 <L53>
	...

40083350 <L55>:
40083350:	e62c      	movi.n	a6, 46
40083352:	ffb315        	call4	40082e84 <_Out_70D42FFB_p_Char>

40083355 <L56>:
40083355:	2138      	l32i.n	a3, a1, 8
40083357:	3148      	l32i.n	a4, a1, 12
40083359:	0fa437        	bge	a4, a3, 4008336c <L57>
4008335c:	2138      	l32i.n	a3, a1, 8
4008335e:	330b      	addi.n	a3, a3, -1
40083360:	2139      	s32i.n	a3, a1, 8
40083362:	30a062        	movi	a6, 48
40083365:	ffb1d5        	call4	40082e84 <_Out_70D42FFB_p_Char>
40083368:	fffa46        	j	40083355 <L56>
	...

4008336c <L57>:
4008336c:	3138      	l32i.n	a3, a1, 12
4008336e:	040c      	movi.n	a4, 0
40083370:	13a437        	bge	a4, a3, 40083387 <L45>
40083373:	3138      	l32i.n	a3, a1, 12
40083375:	330b      	addi.n	a3, a3, -1
40083377:	3139      	s32i.n	a3, a1, 12
40083379:	3168      	l32i.n	a6, a1, 12
4008337b:	806160        	add	a6, a1, a6
4008337e:	180662        	l8ui	a6, a6, 24
40083381:	ffb015        	call4	40082e84 <_Out_70D42FFB_p_Char>
40083384:	fff906        	j	4008336c <L57>

40083387 <L45>:
40083387:	f01d      	retw.n
40083389:	000000        	ill

4008338c <_Out_70D42FFB_p_Ln>:
4008338c:	002136        	entry	a1, 16
4008338f:	fead21        	l32r	a2, 40082e44 <_Test_8B10D205_p_Setup+0x14>
40083392:	0da062        	movi	a6, 13
40083395:	ffaed5        	call4	40082e84 <_Out_70D42FFB_p_Char>
40083398:	a60c      	movi.n	a6, 10
4008339a:	ffae95        	call4	40082e84 <_Out_70D42FFB_p_Char>
4008339d:	f01d      	retw.n
4008339f:	001400        	movsp	a0, a4
400833a2:	        	lsi	f15, a15, 216

400833a4 <_Out_70D42FFB_p_SetBaudRate>:
400833a4:	004136        	entry	a1, 32
400833a7:	0129      	s32i.n	a2, a1, 0
400833a9:	fea621        	l32r	a2, 40082e44 <_Test_8B10D205_p_Setup+0x14>
400833ac:	fffd31        	l32r	a3, 400833a0 <_Out_70D42FFB_p_Ln+0x14>
400833af:	0148      	l32i.n	a4, a1, 0
400833b1:	0349      	s32i.n	a4, a3, 0
400833b3:	f01d      	retw.n
400833b5:	000000        	ill

400833b8 <_Out_70D42FFB_p_Open>:
400833b8:	002136        	entry	a1, 16
400833bb:	fea221        	l32r	a2, 40082e44 <_Test_8B10D205_p_Setup+0x14>
400833be:	b6a262        	movi	a6, 0x2b6
400833c1:	fffe15        	call4	400833a4 <_Out_70D42FFB_p_SetBaudRate>
400833c4:	f01d      	retw.n
400833c6:	740000        	extui	a0, a0, 0, 8
400833c9:	3ffb15        	call4	400c337c <_etext+0x3f6e8>

400833cc <_Kernel_551E92D8_s_text>:
400833cc:	006136        	entry	a1, 48
400833cf:	0129      	s32i.n	a2, a1, 0
400833d1:	1139      	s32i.n	a3, a1, 4
400833d3:	fffd21        	l32r	a2, 400833c8 <_Out_70D42FFB_p_Open+0x10>
400833d6:	030c      	movi.n	a3, 0
400833d8:	2139      	s32i.n	a3, a1, 8
400833da:	0238      	l32i.n	a3, a2, 0
400833dc:	3139      	s32i.n	a3, a1, 12
400833de:	030c      	movi.n	a3, 0
400833e0:	184132        	s8i	a3, a1, 24

400833e3 <L1>:
400833e3:	180132        	l8ui	a3, a1, 24
400833e6:	09b356        	bnez	a3, 40083485 <L2>
400833e9:	3138      	l32i.n	a3, a1, 12
400833eb:	040c      	movi.n	a4, 0
400833ed:	029347        	bne	a3, a4, 400833f3 <L3>
400833f0:	002446        	j	40083485 <L2>

400833f3 <L3>:
400833f3:	3138      	l32i.n	a3, a1, 12
400833f5:	0338      	l32i.n	a3, a3, 0
400833f7:	5139      	s32i.n	a3, a1, 20
400833f9:	3138      	l32i.n	a3, a1, 12
400833fb:	338b      	addi.n	a3, a3, 8
400833fd:	0338      	l32i.n	a3, a3, 0
400833ff:	4139      	s32i.n	a3, a1, 16
40083401:	5138      	l32i.n	a3, a1, 20
40083403:	1148      	l32i.n	a4, a1, 4
40083405:	0aa347        	bge	a3, a4, 40083413 <L4>
40083408:	3138      	l32i.n	a3, a1, 12
4008340a:	2139      	s32i.n	a3, a1, 8
4008340c:	4138      	l32i.n	a3, a1, 16
4008340e:	3139      	s32i.n	a3, a1, 12
40083410:	001b86        	j	40083482 <L10>

40083413 <L4>:
40083413:	5138      	l32i.n	a3, a1, 20
40083415:	1148      	l32i.n	a4, a1, 4
40083417:	239347        	bne	a3, a4, 4008343e <L6>
4008341a:	130c      	movi.n	a3, 1
4008341c:	184132        	s8i	a3, a1, 24
4008341f:	3138      	l32i.n	a3, a1, 12
40083421:	0148      	l32i.n	a4, a1, 0
40083423:	0439      	s32i.n	a3, a4, 0
40083425:	2138      	l32i.n	a3, a1, 8
40083427:	040c      	movi.n	a4, 0
40083429:	0a1347        	beq	a3, a4, 40083437 <L7>
4008342c:	2138      	l32i.n	a3, a1, 8
4008342e:	338b      	addi.n	a3, a3, 8
40083430:	4148      	l32i.n	a4, a1, 16
40083432:	0349      	s32i.n	a4, a3, 0
40083434:	0000c6        	j	4008343b <L8>

40083437 <L7>:
40083437:	4138      	l32i.n	a3, a1, 16
40083439:	0239      	s32i.n	a3, a2, 0

4008343b <L8>:
4008343b:	0010c6        	j	40083482 <L10>

4008343e <L6>:
4008343e:	130c      	movi.n	a3, 1
40083440:	184132        	s8i	a3, a1, 24
40083443:	3138      	l32i.n	a3, a1, 12
40083445:	0148      	l32i.n	a4, a1, 0
40083447:	0439      	s32i.n	a3, a4, 0
40083449:	3138      	l32i.n	a3, a1, 12
4008344b:	1148      	l32i.n	a4, a1, 4
4008344d:	334a      	add.n	a3, a3, a4
4008344f:	3139      	s32i.n	a3, a1, 12
40083451:	5138      	l32i.n	a3, a1, 20
40083453:	1148      	l32i.n	a4, a1, 4
40083455:	c03340        	sub	a3, a3, a4
40083458:	3148      	l32i.n	a4, a1, 12
4008345a:	0439      	s32i.n	a3, a4, 0
4008345c:	3138      	l32i.n	a3, a1, 12
4008345e:	334b      	addi.n	a3, a3, 4
40083460:	f47c      	movi.n	a4, -1
40083462:	0349      	s32i.n	a4, a3, 0
40083464:	3138      	l32i.n	a3, a1, 12
40083466:	338b      	addi.n	a3, a3, 8
40083468:	4148      	l32i.n	a4, a1, 16
4008346a:	0349      	s32i.n	a4, a3, 0
4008346c:	2138      	l32i.n	a3, a1, 8
4008346e:	040c      	movi.n	a4, 0
40083470:	0a1347        	beq	a3, a4, 4008347e <L9>
40083473:	2138      	l32i.n	a3, a1, 8
40083475:	338b      	addi.n	a3, a3, 8
40083477:	3148      	l32i.n	a4, a1, 12
40083479:	0349      	s32i.n	a4, a3, 0
4008347b:	0000c6        	j	40083482 <L10>

4008347e <L9>:
4008347e:	3138      	l32i.n	a3, a1, 12
40083480:	0239      	s32i.n	a3, a2, 0

40083482 <L10>:
40083482:	ffd746        	j	400833e3 <L1>

40083485 <L2>:
40083485:	180132        	l8ui	a3, a1, 24
40083488:	43cc      	bnez.n	a3, 40083490 <L11>
4008348a:	030c      	movi.n	a3, 0
4008348c:	0148      	l32i.n	a4, a1, 0
4008348e:	0439      	s32i.n	a3, a4, 0

40083490 <L11>:
40083490:	f01d      	retw.n
	...

40083494 <_GetBlock128>:
40083494:	004136        	entry	a1, 32
40083497:	0129      	s32i.n	a2, a1, 0
40083499:	ffcb21        	l32r	a2, 400833c8 <_Out_70D42FFB_p_Open+0x10>
4008349c:	1238      	l32i.n	a3, a2, 4
4008349e:	040c      	movi.n	a4, 0
400834a0:	101347        	beq	a3, a4, 400834b4 <L12>
400834a3:	1238      	l32i.n	a3, a2, 4
400834a5:	0148      	l32i.n	a4, a1, 0
400834a7:	0439      	s32i.n	a3, a4, 0
400834a9:	1238      	l32i.n	a3, a2, 4
400834ab:	338b      	addi.n	a3, a3, 8
400834ad:	0338      	l32i.n	a3, a3, 0
400834af:	1239      	s32i.n	a3, a2, 4
400834b1:	000e06        	j	400834ed <L13>

400834b4 <L12>:
400834b4:	614b      	addi.n	a6, a1, 4
400834b6:	00a172        	movi	a7, 0x100
400834b9:	fff115        	call4	400833cc <_Kernel_551E92D8_s_text>
400834bc:	1138      	l32i.n	a3, a1, 4
400834be:	80a042        	movi	a4, 128
400834c1:	334a      	add.n	a3, a3, a4
400834c3:	80a042        	movi	a4, 128
400834c6:	0349      	s32i.n	a4, a3, 0
400834c8:	1138      	l32i.n	a3, a1, 4
400834ca:	84a042        	movi	a4, 132
400834cd:	334a      	add.n	a3, a3, a4
400834cf:	f47c      	movi.n	a4, -1
400834d1:	0349      	s32i.n	a4, a3, 0
400834d3:	1138      	l32i.n	a3, a1, 4
400834d5:	88a042        	movi	a4, 136
400834d8:	334a      	add.n	a3, a3, a4
400834da:	1248      	l32i.n	a4, a2, 4
400834dc:	0349      	s32i.n	a4, a3, 0
400834de:	1138      	l32i.n	a3, a1, 4
400834e0:	80a042        	movi	a4, 128
400834e3:	334a      	add.n	a3, a3, a4
400834e5:	1239      	s32i.n	a3, a2, 4
400834e7:	1138      	l32i.n	a3, a1, 4
400834e9:	0148      	l32i.n	a4, a1, 0
400834eb:	0439      	s32i.n	a3, a4, 0

400834ed <L13>:
400834ed:	f01d      	retw.n
	...

400834f0 <_GetBlock64>:
400834f0:	004136        	entry	a1, 32
400834f3:	0129      	s32i.n	a2, a1, 0
400834f5:	ffb421        	l32r	a2, 400833c8 <_Out_70D42FFB_p_Open+0x10>
400834f8:	2238      	l32i.n	a3, a2, 8
400834fa:	040c      	movi.n	a4, 0
400834fc:	101347        	beq	a3, a4, 40083510 <L14>
400834ff:	2238      	l32i.n	a3, a2, 8
40083501:	0148      	l32i.n	a4, a1, 0
40083503:	0439      	s32i.n	a3, a4, 0
40083505:	2238      	l32i.n	a3, a2, 8
40083507:	338b      	addi.n	a3, a3, 8
40083509:	0338      	l32i.n	a3, a3, 0
4008350b:	2239      	s32i.n	a3, a2, 8
4008350d:	000b06        	j	4008353d <L15>

40083510 <L14>:
40083510:	614b      	addi.n	a6, a1, 4
40083512:	fff815        	call4	40083494 <_GetBlock128>
40083515:	1138      	l32i.n	a3, a1, 4
40083517:	40c332        	addi	a3, a3, 64
4008351a:	044c      	movi.n	a4, 64
4008351c:	0349      	s32i.n	a4, a3, 0
4008351e:	1138      	l32i.n	a3, a1, 4
40083520:	44c332        	addi	a3, a3, 68
40083523:	f47c      	movi.n	a4, -1
40083525:	0349      	s32i.n	a4, a3, 0
40083527:	1138      	l32i.n	a3, a1, 4
40083529:	48c332        	addi	a3, a3, 72
4008352c:	2248      	l32i.n	a4, a2, 8
4008352e:	0349      	s32i.n	a4, a3, 0
40083530:	1138      	l32i.n	a3, a1, 4
40083532:	40c332        	addi	a3, a3, 64
40083535:	2239      	s32i.n	a3, a2, 8
40083537:	1138      	l32i.n	a3, a1, 4
40083539:	0148      	l32i.n	a4, a1, 0
4008353b:	0439      	s32i.n	a3, a4, 0

4008353d <L15>:
4008353d:	f01d      	retw.n
	...

40083540 <_GetBlock32>:
40083540:	004136        	entry	a1, 32
40083543:	0129      	s32i.n	a2, a1, 0
40083545:	ffa021        	l32r	a2, 400833c8 <_Out_70D42FFB_p_Open+0x10>
40083548:	3238      	l32i.n	a3, a2, 12
4008354a:	040c      	movi.n	a4, 0
4008354c:	101347        	beq	a3, a4, 40083560 <L16>
4008354f:	3238      	l32i.n	a3, a2, 12
40083551:	0148      	l32i.n	a4, a1, 0
40083553:	0439      	s32i.n	a3, a4, 0
40083555:	3238      	l32i.n	a3, a2, 12
40083557:	338b      	addi.n	a3, a3, 8
40083559:	0338      	l32i.n	a3, a3, 0
4008355b:	3239      	s32i.n	a3, a2, 12
4008355d:	000b06        	j	4008358d <L17>

40083560 <L16>:
40083560:	614b      	addi.n	a6, a1, 4
40083562:	fff8d5        	call4	400834f0 <_GetBlock64>
40083565:	1138      	l32i.n	a3, a1, 4
40083567:	20c332        	addi	a3, a3, 32
4008356a:	042c      	movi.n	a4, 32
4008356c:	0349      	s32i.n	a4, a3, 0
4008356e:	1138      	l32i.n	a3, a1, 4
40083570:	24c332        	addi	a3, a3, 36
40083573:	f47c      	movi.n	a4, -1
40083575:	0349      	s32i.n	a4, a3, 0
40083577:	1138      	l32i.n	a3, a1, 4
40083579:	28c332        	addi	a3, a3, 40
4008357c:	3248      	l32i.n	a4, a2, 12
4008357e:	0349      	s32i.n	a4, a3, 0
40083580:	1138      	l32i.n	a3, a1, 4
40083582:	20c332        	addi	a3, a3, 32
40083585:	3239      	s32i.n	a3, a2, 12
40083587:	1138      	l32i.n	a3, a1, 4
40083589:	0148      	l32i.n	a4, a1, 0
4008358b:	0439      	s32i.n	a3, a4, 0

4008358d <L17>:
4008358d:	f01d      	retw.n
	...

40083590 <_Kernel_551E92D8_p_New>:
40083590:	006136        	entry	a1, 48
40083593:	0129      	s32i.n	a2, a1, 0
40083595:	1139      	s32i.n	a3, a1, 4
40083597:	ff8c21        	l32r	a2, 400833c8 <_Out_70D42FFB_p_Open+0x10>
4008359a:	1138      	l32i.n	a3, a1, 4
4008359c:	0338      	l32i.n	a3, a3, 0
4008359e:	3139      	s32i.n	a3, a1, 12
400835a0:	3138      	l32i.n	a3, a1, 12
400835a2:	042c      	movi.n	a4, 32
400835a4:	089347        	bne	a3, a4, 400835b0 <L18>
400835a7:	618b      	addi.n	a6, a1, 8
400835a9:	fff955        	call4	40083540 <_GetBlock32>
400835ac:	000c86        	j	400835e2 <L19>
	...

400835b0 <L18>:
400835b0:	3138      	l32i.n	a3, a1, 12
400835b2:	044c      	movi.n	a4, 64
400835b4:	089347        	bne	a3, a4, 400835c0 <L20>
400835b7:	618b      	addi.n	a6, a1, 8
400835b9:	fff355        	call4	400834f0 <_GetBlock64>
400835bc:	000886        	j	400835e2 <L19>
	...

400835c0 <L20>:
400835c0:	3138      	l32i.n	a3, a1, 12
400835c2:	80a042        	movi	a4, 128
400835c5:	079347        	bne	a3, a4, 400835d0 <L21>
400835c8:	618b      	addi.n	a6, a1, 8
400835ca:	ffec95        	call4	40083494 <_GetBlock128>
400835cd:	000446        	j	400835e2 <L19>

400835d0 <L21>:
400835d0:	618b      	addi.n	a6, a1, 8
400835d2:	3178      	l32i.n	a7, a1, 12
400835d4:	ffa082        	movi	a8, 255
400835d7:	778a      	add.n	a7, a7, a8
400835d9:	217870        	srai	a7, a7, 8
400835dc:	117780        	slli	a7, a7, 8
400835df:	ffded5        	call4	400833cc <_Kernel_551E92D8_s_text>

400835e2 <L19>:
400835e2:	2138      	l32i.n	a3, a1, 8
400835e4:	040c      	movi.n	a4, 0
400835e6:	089347        	bne	a3, a4, 400835f2 <L22>
400835e9:	030c      	movi.n	a3, 0
400835eb:	0148      	l32i.n	a4, a1, 0
400835ed:	0439      	s32i.n	a3, a4, 0
400835ef:	000f06        	j	4008362f <L23>

400835f2 <L22>:
400835f2:	2138      	l32i.n	a3, a1, 8
400835f4:	338b      	addi.n	a3, a3, 8
400835f6:	0148      	l32i.n	a4, a1, 0
400835f8:	0439      	s32i.n	a3, a4, 0
400835fa:	2138      	l32i.n	a3, a1, 8
400835fc:	1148      	l32i.n	a4, a1, 4
400835fe:	0349      	s32i.n	a4, a3, 0
40083600:	2138      	l32i.n	a3, a1, 8
40083602:	3148      	l32i.n	a4, a1, 12
40083604:	334a      	add.n	a3, a3, a4
40083606:	4139      	s32i.n	a3, a1, 16
40083608:	2138      	l32i.n	a3, a1, 8
4008360a:	334b      	addi.n	a3, a3, 4
4008360c:	2139      	s32i.n	a3, a1, 8
4008360e:	18c232        	addi	a3, a2, 24
40083611:	0348      	l32i.n	a4, a3, 0
40083613:	3158      	l32i.n	a5, a1, 12
40083615:	445a      	add.n	a4, a4, a5
40083617:	0349      	s32i.n	a4, a3, 0

40083619 <L24>:
40083619:	2138      	l32i.n	a3, a1, 8
4008361b:	4148      	l32i.n	a4, a1, 16
4008361d:	0ea347        	bge	a3, a4, 4008362f <L23>
40083620:	2138      	l32i.n	a3, a1, 8
40083622:	040c      	movi.n	a4, 0
40083624:	0349      	s32i.n	a4, a3, 0
40083626:	2138      	l32i.n	a3, a1, 8
40083628:	334b      	addi.n	a3, a3, 4
4008362a:	2139      	s32i.n	a3, a1, 8
4008362c:	fffa46        	j	40083619 <L24>

4008362f <L23>:
4008362f:	f01d      	retw.n
40083631:	000000        	ill

40083634 <_Kernel_551E92D8_p_Mark>:
40083634:	008136        	entry	a1, 64
40083637:	0129      	s32i.n	a2, a1, 0
40083639:	1139      	s32i.n	a3, a1, 4
4008363b:	ff6321        	l32r	a2, 400833c8 <_Out_70D42FFB_p_Open+0x10>

4008363e <L26>:
4008363e:	1138      	l32i.n	a3, a1, 4
40083640:	040c      	movi.n	a4, 0
40083642:	022437        	blt	a4, a3, 40083648 <L26+0xa>
40083645:	003dc6        	j	40083740 <L27>
40083648:	0138      	l32i.n	a3, a1, 0
4008364a:	0338      	l32i.n	a3, a3, 0
4008364c:	2139      	s32i.n	a3, a1, 8
4008364e:	2138      	l32i.n	a3, a1, 8
40083650:	0338      	l32i.n	a3, a3, 0
40083652:	6139      	s32i.n	a3, a1, 24
40083654:	6138      	l32i.n	a3, a1, 24
40083656:	fcc332        	addi	a3, a3, -4
40083659:	0338      	l32i.n	a3, a3, 0
4008365b:	3139      	s32i.n	a3, a1, 12
4008365d:	6138      	l32i.n	a3, a1, 24
4008365f:	4248      	l32i.n	a4, a2, 16
40083661:	02a347        	bge	a3, a4, 40083667 <L26+0x29>
40083664:	003246        	j	40083731 <L28>
40083667:	3138      	l32i.n	a3, a1, 12
40083669:	040c      	movi.n	a4, 0
4008366b:	021347        	beq	a3, a4, 40083671 <L29>
4008366e:	002fc6        	j	40083731 <L28>

40083671 <L29>:
40083671:	6138      	l32i.n	a3, a1, 24
40083673:	7139      	s32i.n	a3, a1, 28

40083675 <L30>:
40083675:	6138      	l32i.n	a3, a1, 24
40083677:	fcc332        	addi	a3, a3, -4
4008367a:	0338      	l32i.n	a3, a3, 0
4008367c:	3139      	s32i.n	a3, a1, 12
4008367e:	3138      	l32i.n	a3, a1, 12
40083680:	040c      	movi.n	a4, 0
40083682:	129347        	bne	a3, a4, 40083698 <L31>
40083685:	6138      	l32i.n	a3, a1, 24
40083687:	f8c332        	addi	a3, a3, -8
4008368a:	0338      	l32i.n	a3, a3, 0
4008368c:	5139      	s32i.n	a3, a1, 20
4008368e:	5138      	l32i.n	a3, a1, 20
40083690:	10c332        	addi	a3, a3, 16
40083693:	3139      	s32i.n	a3, a1, 12
40083695:	000146        	j	4008369e <L32>

40083698 <L31>:
40083698:	3138      	l32i.n	a3, a1, 12
4008369a:	334b      	addi.n	a3, a3, 4
4008369c:	3139      	s32i.n	a3, a1, 12

4008369e <L32>:
4008369e:	6138      	l32i.n	a3, a1, 24
400836a0:	fcc332        	addi	a3, a3, -4
400836a3:	3148      	l32i.n	a4, a1, 12
400836a5:	0349      	s32i.n	a4, a3, 0
400836a7:	3138      	l32i.n	a3, a1, 12
400836a9:	0338      	l32i.n	a3, a3, 0
400836ab:	4139      	s32i.n	a3, a1, 16
400836ad:	4138      	l32i.n	a3, a1, 16
400836af:	f47c      	movi.n	a4, -1
400836b1:	361347        	beq	a3, a4, 400836eb <L33>
400836b4:	6138      	l32i.n	a3, a1, 24
400836b6:	4148      	l32i.n	a4, a1, 16
400836b8:	334a      	add.n	a3, a3, a4
400836ba:	0338      	l32i.n	a3, a3, 0
400836bc:	8139      	s32i.n	a3, a1, 32
400836be:	8138      	l32i.n	a3, a1, 32
400836c0:	fcc332        	addi	a3, a3, -4
400836c3:	0338      	l32i.n	a3, a3, 0
400836c5:	3139      	s32i.n	a3, a1, 12
400836c7:	8138      	l32i.n	a3, a1, 32
400836c9:	4248      	l32i.n	a4, a2, 16
400836cb:	192347        	blt	a3, a4, 400836e8 <L34>
400836ce:	3138      	l32i.n	a3, a1, 12
400836d0:	040c      	movi.n	a4, 0
400836d2:	129347        	bne	a3, a4, 400836e8 <L34>

400836d5 <L35>:
400836d5:	6138      	l32i.n	a3, a1, 24
400836d7:	4148      	l32i.n	a4, a1, 16
400836d9:	334a      	add.n	a3, a3, a4
400836db:	7148      	l32i.n	a4, a1, 28
400836dd:	0349      	s32i.n	a4, a3, 0
400836df:	6138      	l32i.n	a3, a1, 24
400836e1:	7139      	s32i.n	a3, a1, 28
400836e3:	8138      	l32i.n	a3, a1, 32
400836e5:	066132        	s32i	a3, a1, 24

400836e8 <L34>:
400836e8:	000c46        	j	4008371d <L36>

400836eb <L33>:
400836eb:	7138      	l32i.n	a3, a1, 28
400836ed:	fcc332        	addi	a3, a3, -4
400836f0:	0338      	l32i.n	a3, a3, 0
400836f2:	3139      	s32i.n	a3, a1, 12
400836f4:	3138      	l32i.n	a3, a1, 12
400836f6:	0338      	l32i.n	a3, a3, 0
400836f8:	4139      	s32i.n	a3, a1, 16
400836fa:	6138      	l32i.n	a3, a1, 24
400836fc:	7148      	l32i.n	a4, a1, 28
400836fe:	1b1347        	beq	a3, a4, 4008371d <L36>
40083701:	7138      	l32i.n	a3, a1, 28
40083703:	4148      	l32i.n	a4, a1, 16
40083705:	334a      	add.n	a3, a3, a4
40083707:	0338      	l32i.n	a3, a3, 0
40083709:	8139      	s32i.n	a3, a1, 32
4008370b:	7138      	l32i.n	a3, a1, 28
4008370d:	4148      	l32i.n	a4, a1, 16
4008370f:	334a      	add.n	a3, a3, a4
40083711:	6148      	l32i.n	a4, a1, 24
40083713:	0349      	s32i.n	a4, a3, 0
40083715:	7138      	l32i.n	a3, a1, 28
40083717:	6139      	s32i.n	a3, a1, 24
40083719:	8138      	l32i.n	a3, a1, 32
4008371b:	7139      	s32i.n	a3, a1, 28

4008371d <L36>:
4008371d:	6138      	l32i.n	a3, a1, 24
4008371f:	7148      	l32i.n	a4, a1, 28
40083721:	021347        	beq	a3, a4, 40083727 <L36+0xa>
40083724:	ffd346        	j	40083675 <L30>
40083727:	4138      	l32i.n	a3, a1, 16
40083729:	f47c      	movi.n	a4, -1
4008372b:	021347        	beq	a3, a4, 40083731 <L28>
4008372e:	ffd0c6        	j	40083675 <L30>

40083731 <L28>:
40083731:	0138      	l32i.n	a3, a1, 0
40083733:	334b      	addi.n	a3, a3, 4
40083735:	0139      	s32i.n	a3, a1, 0
40083737:	1138      	l32i.n	a3, a1, 4
40083739:	330b      	addi.n	a3, a3, -1
4008373b:	1139      	s32i.n	a3, a1, 4
4008373d:	ffbf46        	j	4008363e <L26>

40083740 <L27>:
40083740:	f01d      	retw.n
	...

40083744 <_Kernel_551E92D8_p_Scan>:
40083744:	006136        	entry	a1, 48
40083747:	ff2021        	l32r	a2, 400833c8 <_Out_70D42FFB_p_Open+0x10>
4008374a:	4238      	l32i.n	a3, a2, 16
4008374c:	0139      	s32i.n	a3, a1, 0

4008374e <L39>:
4008374e:	0138      	l32i.n	a3, a1, 0
40083750:	334b      	addi.n	a3, a3, 4
40083752:	0338      	l32i.n	a3, a3, 0
40083754:	2139      	s32i.n	a3, a1, 8
40083756:	0138      	l32i.n	a3, a1, 0
40083758:	1139      	s32i.n	a3, a1, 4

4008375a <L40>:
4008375a:	2138      	l32i.n	a3, a1, 8
4008375c:	040c      	movi.n	a4, 0
4008375e:	1e9347        	bne	a3, a4, 40083780 <L41>
40083761:	0138      	l32i.n	a3, a1, 0
40083763:	0338      	l32i.n	a3, a3, 0
40083765:	3139      	s32i.n	a3, a1, 12
40083767:	3138      	l32i.n	a3, a1, 12
40083769:	0338      	l32i.n	a3, a3, 0
4008376b:	4139      	s32i.n	a3, a1, 16
4008376d:	0138      	l32i.n	a3, a1, 0
4008376f:	4148      	l32i.n	a4, a1, 16
40083771:	334a      	add.n	a3, a3, a4
40083773:	0139      	s32i.n	a3, a1, 0
40083775:	0138      	l32i.n	a3, a1, 0
40083777:	334b      	addi.n	a3, a3, 4
40083779:	0338      	l32i.n	a3, a3, 0
4008377b:	2139      	s32i.n	a3, a1, 8
4008377d:	fff646        	j	4008375a <L40>

40083780 <L41>:
40083780:	0138      	l32i.n	a3, a1, 0
40083782:	1148      	l32i.n	a4, a1, 4
40083784:	c03340        	sub	a3, a3, a4
40083787:	4139      	s32i.n	a3, a1, 16
40083789:	18c232        	addi	a3, a2, 24
4008378c:	0348      	l32i.n	a4, a3, 0
4008378e:	4158      	l32i.n	a5, a1, 16
40083790:	605050        	neg	a5, a5
40083793:	445a      	add.n	a4, a4, a5
40083795:	0349      	s32i.n	a4, a3, 0
40083797:	4138      	l32i.n	a3, a1, 16
40083799:	040c      	movi.n	a4, 0
4008379b:	022437        	blt	a4, a3, 400837a1 <L41+0x21>
4008379e:	003286        	j	4008386c <L42>
400837a1:	4138      	l32i.n	a3, a1, 16
400837a3:	f43c      	movi.n	a4, 63
400837a5:	103340        	and	a3, a3, a4
400837a8:	040c      	movi.n	a4, 0
400837aa:	271347        	beq	a3, a4, 400837d5 <L43>
400837ad:	1138      	l32i.n	a3, a1, 4
400837af:	042c      	movi.n	a4, 32
400837b1:	0349      	s32i.n	a4, a3, 0
400837b3:	1138      	l32i.n	a3, a1, 4
400837b5:	334b      	addi.n	a3, a3, 4
400837b7:	f47c      	movi.n	a4, -1
400837b9:	0349      	s32i.n	a4, a3, 0
400837bb:	1138      	l32i.n	a3, a1, 4
400837bd:	338b      	addi.n	a3, a3, 8
400837bf:	3248      	l32i.n	a4, a2, 12
400837c1:	0349      	s32i.n	a4, a3, 0
400837c3:	1138      	l32i.n	a3, a1, 4
400837c5:	3239      	s32i.n	a3, a2, 12
400837c7:	1138      	l32i.n	a3, a1, 4
400837c9:	20c332        	addi	a3, a3, 32
400837cc:	1139      	s32i.n	a3, a1, 4
400837ce:	4138      	l32i.n	a3, a1, 16
400837d0:	e0c332        	addi	a3, a3, -32
400837d3:	4139      	s32i.n	a3, a1, 16

400837d5 <L43>:
400837d5:	4138      	l32i.n	a3, a1, 16
400837d7:	7fa042        	movi	a4, 127
400837da:	103340        	and	a3, a3, a4
400837dd:	040c      	movi.n	a4, 0
400837df:	271347        	beq	a3, a4, 4008380a <L44>
400837e2:	1138      	l32i.n	a3, a1, 4
400837e4:	044c      	movi.n	a4, 64
400837e6:	0349      	s32i.n	a4, a3, 0
400837e8:	1138      	l32i.n	a3, a1, 4
400837ea:	334b      	addi.n	a3, a3, 4
400837ec:	f47c      	movi.n	a4, -1
400837ee:	0349      	s32i.n	a4, a3, 0
400837f0:	1138      	l32i.n	a3, a1, 4
400837f2:	338b      	addi.n	a3, a3, 8
400837f4:	2248      	l32i.n	a4, a2, 8
400837f6:	0349      	s32i.n	a4, a3, 0
400837f8:	1138      	l32i.n	a3, a1, 4
400837fa:	2239      	s32i.n	a3, a2, 8
400837fc:	1138      	l32i.n	a3, a1, 4
400837fe:	40c332        	addi	a3, a3, 64
40083801:	1139      	s32i.n	a3, a1, 4
40083803:	4138      	l32i.n	a3, a1, 16
40083805:	c0c332        	addi	a3, a3, -64
40083808:	4139      	s32i.n	a3, a1, 16

4008380a <L44>:
4008380a:	4138      	l32i.n	a3, a1, 16
4008380c:	ffa042        	movi	a4, 255
4008380f:	103340        	and	a3, a3, a4
40083812:	040c      	movi.n	a4, 0
40083814:	2a1347        	beq	a3, a4, 40083842 <L45>
40083817:	1138      	l32i.n	a3, a1, 4
40083819:	80a042        	movi	a4, 128
4008381c:	0349      	s32i.n	a4, a3, 0
4008381e:	1138      	l32i.n	a3, a1, 4
40083820:	334b      	addi.n	a3, a3, 4
40083822:	f47c      	movi.n	a4, -1
40083824:	0349      	s32i.n	a4, a3, 0
40083826:	1138      	l32i.n	a3, a1, 4
40083828:	338b      	addi.n	a3, a3, 8
4008382a:	1248      	l32i.n	a4, a2, 4
4008382c:	0349      	s32i.n	a4, a3, 0
4008382e:	1138      	l32i.n	a3, a1, 4
40083830:	1239      	s32i.n	a3, a2, 4
40083832:	1138      	l32i.n	a3, a1, 4
40083834:	80a042        	movi	a4, 128
40083837:	334a      	add.n	a3, a3, a4
40083839:	1139      	s32i.n	a3, a1, 4
4008383b:	4138      	l32i.n	a3, a1, 16
4008383d:	80c332        	addi	a3, a3, -128
40083840:	4139      	s32i.n	a3, a1, 16

40083842 <L45>:
40083842:	4138      	l32i.n	a3, a1, 16
40083844:	040c      	movi.n	a4, 0
40083846:	22a437        	bge	a4, a3, 4008386c <L42>
40083849:	1138      	l32i.n	a3, a1, 4
4008384b:	4148      	l32i.n	a4, a1, 16
4008384d:	0349      	s32i.n	a4, a3, 0
4008384f:	1138      	l32i.n	a3, a1, 4
40083851:	334b      	addi.n	a3, a3, 4
40083853:	f47c      	movi.n	a4, -1
40083855:	0349      	s32i.n	a4, a3, 0
40083857:	1138      	l32i.n	a3, a1, 4
40083859:	338b      	addi.n	a3, a3, 8
4008385b:	0248      	l32i.n	a4, a2, 0
4008385d:	0349      	s32i.n	a4, a3, 0
4008385f:	1138      	l32i.n	a3, a1, 4
40083861:	0239      	s32i.n	a3, a2, 0
40083863:	1138      	l32i.n	a3, a1, 4
40083865:	4148      	l32i.n	a4, a1, 16
40083867:	334a      	add.n	a3, a3, a4
40083869:	016132        	s32i	a3, a1, 4

4008386c <L42>:
4008386c:	2138      	l32i.n	a3, a1, 8
4008386e:	040c      	movi.n	a4, 0
40083870:	1ea437        	bge	a4, a3, 40083892 <L47>
40083873:	0138      	l32i.n	a3, a1, 0
40083875:	0338      	l32i.n	a3, a3, 0
40083877:	3139      	s32i.n	a3, a1, 12
40083879:	3138      	l32i.n	a3, a1, 12
4008387b:	0338      	l32i.n	a3, a3, 0
4008387d:	4139      	s32i.n	a3, a1, 16
4008387f:	0138      	l32i.n	a3, a1, 0
40083881:	334b      	addi.n	a3, a3, 4
40083883:	040c      	movi.n	a4, 0
40083885:	0349      	s32i.n	a4, a3, 0
40083887:	0138      	l32i.n	a3, a1, 0
40083889:	4148      	l32i.n	a4, a1, 16
4008388b:	334a      	add.n	a3, a3, a4
4008388d:	0139      	s32i.n	a3, a1, 0
4008388f:	000346        	j	400838a0 <L48>

40083892 <L47>:
40083892:	0138      	l32i.n	a3, a1, 0
40083894:	0338      	l32i.n	a3, a3, 0
40083896:	4139      	s32i.n	a3, a1, 16
40083898:	0138      	l32i.n	a3, a1, 0
4008389a:	4148      	l32i.n	a4, a1, 16
4008389c:	334a      	add.n	a3, a3, a4
4008389e:	0139      	s32i.n	a3, a1, 0

400838a0 <L48>:
400838a0:	0138      	l32i.n	a3, a1, 0
400838a2:	5248      	l32i.n	a4, a2, 20
400838a4:	02a347        	bge	a3, a4, 400838aa <L48+0xa>
400838a7:	ffa8c6        	j	4008374e <L39>
400838aa:	f01d      	retw.n

400838ac <_Kernel_551E92D8_p_EnableWatchDog>:
400838ac:	002136        	entry	a1, 16
400838af:	fec621        	l32r	a2, 400833c8 <_Out_70D42FFB_p_Open+0x10>
400838b2:	f01d      	retw.n

400838b4 <_Kernel_551E92D8_p_DisableWatchDog>:
400838b4:	002136        	entry	a1, 16
400838b7:	fec421        	l32r	a2, 400833c8 <_Out_70D42FFB_p_Open+0x10>
400838ba:	f01d      	retw.n

400838bc <_Kernel_551E92D8_p_PingWatchDog>:
400838bc:	002136        	entry	a1, 16
400838bf:	fec221        	l32r	a2, 400833c8 <_Out_70D42FFB_p_Open+0x10>
400838c2:	f01d      	retw.n
400838c4:	f00c      	movi.n	a0, 15
400838c6:	043ff5        	call12	40087cc4 <_etext+0x4030>
400838c9:	3ff5f0        	f64cmph	a15, a5, a15, 3
400838cc:	f008      	l32i.n	a0, a0, 60
400838ce:	        	call12	400b9ccc <_etext+0x36038>

400838d0 <_Kernel_551E92D8_p_GetTime>:
400838d0:	004136        	entry	a1, 32
400838d3:	0129      	s32i.n	a2, a1, 0
400838d5:	1139      	s32i.n	a3, a1, 4
400838d7:	febc21        	l32r	a2, 400833c8 <_Out_70D42FFB_p_Open+0x10>
400838da:	fffa31        	l32r	a3, 400838c4 <_Kernel_551E92D8_p_PingWatchDog+0x8>
400838dd:	040c      	movi.n	a4, 0
400838df:	0349      	s32i.n	a4, a3, 0
400838e1:	fff931        	l32r	a3, 400838c8 <_Kernel_551E92D8_p_PingWatchDog+0xc>
400838e4:	0338      	l32i.n	a3, a3, 0
400838e6:	0148      	l32i.n	a4, a1, 0
400838e8:	0439      	s32i.n	a3, a4, 0
400838ea:	fff831        	l32r	a3, 400838cc <_Kernel_551E92D8_p_PingWatchDog+0x10>
400838ed:	0338      	l32i.n	a3, a3, 0
400838ef:	0148      	l32i.n	a4, a1, 0
400838f1:	1439      	s32i.n	a3, a4, 4
400838f3:	f01d      	retw.n
400838f5:	000000        	ill
400838f8:	fb0d40        	f64addc	a4, a13, 0, 0
400838fb:	3f          	.byte 0x3f

400838fc <_Kernel_551E92D8_p_GetElapseTime>:
400838fc:	006136        	entry	a1, 48
400838ff:	0129      	s32i.n	a2, a1, 0
40083901:	1139      	s32i.n	a3, a1, 4
40083903:	feb121        	l32r	a2, 400833c8 <_Out_70D42FFB_p_Open+0x10>
40083906:	618b      	addi.n	a6, a1, 8
40083908:	fffc71        	l32r	a7, 400838f8 <_Kernel_551E92D8_p_GetTime+0x28>
4008390b:	fffc55        	call4	400838d0 <_Kernel_551E92D8_p_GetTime>
4008390e:	0138      	l32i.n	a3, a1, 0
40083910:	3148      	l32i.n	a4, a1, 12
40083912:	2158      	l32i.n	a5, a1, 8
40083914:	0368      	l32i.n	a6, a3, 0
40083916:	c07560        	sub	a7, a5, a6
40083919:	01b577        	bgeu	a5, a7, 4008391e <_Kernel_551E92D8_p_GetElapseTime+0x22>
4008391c:	440b      	addi.n	a4, a4, -1
4008391e:	1358      	l32i.n	a5, a3, 4
40083920:	011457        	beq	a4, a5, 40083925 <_Kernel_551E92D8_p_GetElapseTime+0x29>
40083923:	f77c      	movi.n	a7, -1
40083925:	4179      	s32i.n	a7, a1, 16
40083927:	4138      	l32i.n	a3, a1, 16
40083929:	f01d      	retw.n
	...

4008392c <_Kernel_551E92D8_p_Wait>:
4008392c:	006136        	entry	a1, 48
4008392f:	0129      	s32i.n	a2, a1, 0
40083931:	fea521        	l32r	a2, 400833c8 <_Out_70D42FFB_p_Open+0x10>
40083934:	030c      	movi.n	a3, 0
40083936:	144132        	s8i	a3, a1, 20
40083939:	61cb      	addi.n	a6, a1, 12
4008393b:	ffef71        	l32r	a7, 400838f8 <_Kernel_551E92D8_p_GetTime+0x28>
4008393e:	fff915        	call4	400838d0 <_Kernel_551E92D8_p_GetTime>
40083941:	3138      	l32i.n	a3, a1, 12
40083943:	4148      	l32i.n	a4, a1, 16
40083945:	0158      	l32i.n	a5, a1, 0
40083947:	635a      	add.n	a6, a3, a5
40083949:	01b637        	bgeu	a6, a3, 4008394e <_Kernel_551E92D8_p_Wait+0x22>
4008394c:	441b      	addi.n	a4, a4, 1
4008394e:	3169      	s32i.n	a6, a1, 12
40083950:	4149      	s32i.n	a4, a1, 16

40083952 <L49>:
40083952:	614b      	addi.n	a6, a1, 4
40083954:	ffe971        	l32r	a7, 400838f8 <_Kernel_551E92D8_p_GetTime+0x28>
40083957:	fff795        	call4	400838d0 <_Kernel_551E92D8_p_GetTime>
4008395a:	2138      	l32i.n	a3, a1, 8
4008395c:	4148      	l32i.n	a4, a1, 16
4008395e:	0b3347        	bltu	a3, a4, 4008396d <L49+0x1b>
40083961:	1138      	l32i.n	a3, a1, 4
40083963:	3148      	l32i.n	a4, a1, 12
40083965:	043347        	bltu	a3, a4, 4008396d <L49+0x1b>
40083968:	130c      	movi.n	a3, 1
4008396a:	144132        	s8i	a3, a1, 20
4008396d:	140132        	l8ui	a3, a1, 20
40083970:	fde316        	beqz	a3, 40083952 <L49>
40083973:	f01d      	retw.n
40083975:	000000        	ill
40083978:	f5f000        	extui	a15, a0, 16, 16
4008397b:	3f          	.byte 0x3f
4008397c:	ff          	.byte 0xff
4008397d:	ff          	.byte 0xff
4008397e:	ff          	.byte 0xff
4008397f:	7f          	.byte 0x7f
40083980:	0a0000        	add.s	f0, f0, f0
40083983:	f01880        	subx8	a1, a8, a8
40083986:	1c3ff5        	call12	4009fd84 <_etext+0x1c0f0>
40083989:	3ff5f0        	f64cmph	a15, a5, a15, 3
4008398c:	f5f020        	extui	a15, a2, 16, 16
4008398f:	3f          	.byte 0x3f

40083990 <_InitTimer>:
40083990:	004136        	entry	a1, 32
40083993:	fe8d21        	l32r	a2, 400833c8 <_Out_70D42FFB_p_Open+0x10>
40083996:	fff831        	l32r	a3, 40083978 <L49+0x26>
40083999:	0338      	l32i.n	a3, a3, 0
4008399b:	0139      	s32i.n	a3, a1, 0
4008399d:	0138      	l32i.n	a3, a1, 0
4008399f:	fff741        	l32r	a4, 4008397c <L49+0x2a>
400839a2:	103340        	and	a3, a3, a4
400839a5:	0139      	s32i.n	a3, a1, 0
400839a7:	fff431        	l32r	a3, 40083978 <L49+0x26>
400839aa:	0148      	l32i.n	a4, a1, 0
400839ac:	0349      	s32i.n	a4, a3, 0
400839ae:	0138      	l32i.n	a3, a1, 0
400839b0:	fff441        	l32r	a4, 40083980 <L49+0x2e>
400839b3:	203340        	or	a3, a3, a4
400839b6:	0139      	s32i.n	a3, a1, 0
400839b8:	fff031        	l32r	a3, 40083978 <L49+0x26>
400839bb:	0148      	l32i.n	a4, a1, 0
400839bd:	0349      	s32i.n	a4, a3, 0
400839bf:	fff131        	l32r	a3, 40083984 <L49+0x32>
400839c2:	040c      	movi.n	a4, 0
400839c4:	0349      	s32i.n	a4, a3, 0
400839c6:	fff031        	l32r	a3, 40083988 <L49+0x36>
400839c9:	040c      	movi.n	a4, 0
400839cb:	0349      	s32i.n	a4, a3, 0
400839cd:	ffef31        	l32r	a3, 4008398c <L49+0x3a>
400839d0:	040c      	movi.n	a4, 0
400839d2:	0349      	s32i.n	a4, a3, 0
400839d4:	f01d      	retw.n
400839d6:	ff0000        	f64cmph	a0, a0, a0, 15
400839d9:	ff          	.byte 0xff
400839da:	ff          	.byte 0xff
400839db:	0000e7        	bnone	a0, a14, 400839df <_InitTimer+0x4f>
400839de:	        	lsi	f0, a8, 216

400839e0 <_Kernel_551E92D8_p_SetCPUSpeed160Mhz>:
400839e0:	004136        	entry	a1, 32
400839e3:	fe7921        	l32r	a2, 400833c8 <_Out_70D42FFB_p_Open+0x10>
400839e6:	f2de31        	l32r	a3, 40080560 <_stop_watchdog+0x14>
400839e9:	0338      	l32i.n	a3, a3, 0
400839eb:	0139      	s32i.n	a3, a1, 0
400839ed:	0138      	l32i.n	a3, a1, 0
400839ef:	fffa41        	l32r	a4, 400839d8 <_InitTimer+0x48>
400839f2:	103340        	and	a3, a3, a4
400839f5:	fff941        	l32r	a4, 400839dc <_InitTimer+0x4c>
400839f8:	203340        	or	a3, a3, a4
400839fb:	0139      	s32i.n	a3, a1, 0
400839fd:	f2d831        	l32r	a3, 40080560 <_stop_watchdog+0x14>
40083a00:	0148      	l32i.n	a4, a1, 0
40083a02:	0349      	s32i.n	a4, a3, 0
40083a04:	f2d931        	l32r	a3, 40080568 <_stop_watchdog+0x1c>
40083a07:	140c      	movi.n	a4, 1
40083a09:	0349      	s32i.n	a4, a3, 0
40083a0b:	f01d      	retw.n
40083a0d:	000000        	ill

40083a10 <_Kernel_551E92D8_p_SetCPUSpeed80Mhz>:
40083a10:	004136        	entry	a1, 32
40083a13:	fe6d21        	l32r	a2, 400833c8 <_Out_70D42FFB_p_Open+0x10>
40083a16:	f2d231        	l32r	a3, 40080560 <_stop_watchdog+0x14>
40083a19:	0338      	l32i.n	a3, a3, 0
40083a1b:	0139      	s32i.n	a3, a1, 0
40083a1d:	0138      	l32i.n	a3, a1, 0
40083a1f:	ffee41        	l32r	a4, 400839d8 <_InitTimer+0x48>
40083a22:	103340        	and	a3, a3, a4
40083a25:	ffed41        	l32r	a4, 400839dc <_InitTimer+0x4c>
40083a28:	203340        	or	a3, a3, a4
40083a2b:	0139      	s32i.n	a3, a1, 0
40083a2d:	f2cc31        	l32r	a3, 40080560 <_stop_watchdog+0x14>
40083a30:	0148      	l32i.n	a4, a1, 0
40083a32:	0349      	s32i.n	a4, a3, 0
40083a34:	f2cd31        	l32r	a3, 40080568 <_stop_watchdog+0x1c>
40083a37:	040c      	movi.n	a4, 0
40083a39:	0349      	s32i.n	a4, a3, 0
40083a3b:	f01d      	retw.n
40083a3d:	000000        	ill

40083a40 <_OberonSyscallHandler>:
40083a40:	004136        	entry	a1, 32
40083a43:	0129      	s32i.n	a2, a1, 0
40083a45:	1139      	s32i.n	a3, a1, 4
40083a47:	2149      	s32i.n	a4, a1, 8
40083a49:	fe5f21        	l32r	a2, 400833c8 <_Out_70D42FFB_p_Open+0x10>
40083a4c:	0138      	l32i.n	a3, a1, 0
40083a4e:	140c      	movi.n	a4, 1
40083a50:	109347        	bne	a3, a4, 40083a64 <L50>
40083a53:	04c162        	addi	a6, a1, 4
40083a56:	022172        	l32i	a7, a1, 8
40083a59:	ffb355        	call4	40083590 <_Kernel_551E92D8_p_New>
40083a5c:	000dc6        	j	40083a97 <L51>
40083a5f:	0d5400        	lsi	f0, a4, 52
40083a62:	3ffb      	addi.n	a3, a15, 15

40083a64 <L50>:
40083a64:	0138      	l32i.n	a3, a1, 0
40083a66:	240c      	movi.n	a4, 2
40083a68:	2b9347        	bne	a3, a4, 40083a97 <L51>
40083a6b:	201110        	or	a1, a1, a1
40083a6e:	ff91d5        	call4	4008338c <_Out_70D42FFB_p_Ln>
40083a71:	fffb61        	l32r	a6, 40083a60 <_OberonSyscallHandler+0x20>
40083a74:	171c      	movi.n	a7, 17
40083a76:	201110        	or	a1, a1, a1
40083a79:	ff4315        	call4	40082eac <_Out_70D42FFB_p_String>
40083a7c:	012162        	l32i	a6, a1, 4
40083a7f:	00a072        	movi	a7, 0
40083a82:	201110        	or	a1, a1, a1
40083a85:	ff4615        	call4	40082ee8 <_Out_70D42FFB_p_Int>
40083a88:	201110        	or	a1, a1, a1
40083a8b:	ff9015        	call4	4008338c <_Out_70D42FFB_p_Ln>
40083a8e:	201110        	or	a1, a1, a1
40083a91:	ff3d95        	call4	40082e6c <_Out_70D42FFB_p_Flush>
40083a94:	f29806        	j	400804f8 <_call_start_cpu0>

40083a97 <L51>:
40083a97:	f01d      	retw.n
40083a99:	000000        	ill
40083a9c:	fe0000        	f64iter	a0, a0, a0, 3, 1
40083a9f:	3f          	.byte 0x3f

40083aa0 <_Kernel_551E92D8_p_Init>:
40083aa0:	004136        	entry	a1, 32
40083aa3:	fe4921        	l32r	a2, 400833c8 <_Out_70D42FFB_p_Open+0x10>
40083aa6:	fff395        	call4	400839e0 <_Kernel_551E92D8_p_SetCPUSpeed160Mhz>
40083aa9:	ffee55        	call4	40083990 <_InitTimer>
40083aac:	f28f31        	l32r	a3, 400804e8 <_eptable+0x4>
40083aaf:	0139      	s32i.n	a3, a1, 0
40083ab1:	fffa31        	l32r	a3, 40083a9c <L51+0x5>
40083ab4:	1139      	s32i.n	a3, a1, 4
40083ab6:	0138      	l32i.n	a3, a1, 0
40083ab8:	4239      	s32i.n	a3, a2, 16
40083aba:	1138      	l32i.n	a3, a1, 4
40083abc:	5239      	s32i.n	a3, a2, 20
40083abe:	030c      	movi.n	a3, 0
40083ac0:	1239      	s32i.n	a3, a2, 4
40083ac2:	030c      	movi.n	a3, 0
40083ac4:	2239      	s32i.n	a3, a2, 8
40083ac6:	030c      	movi.n	a3, 0
40083ac8:	3239      	s32i.n	a3, a2, 12
40083aca:	4238      	l32i.n	a3, a2, 16
40083acc:	0239      	s32i.n	a3, a2, 0
40083ace:	5238      	l32i.n	a3, a2, 20
40083ad0:	4248      	l32i.n	a4, a2, 16
40083ad2:	c03340        	sub	a3, a3, a4
40083ad5:	0248      	l32i.n	a4, a2, 0
40083ad7:	0439      	s32i.n	a3, a4, 0
40083ad9:	0238      	l32i.n	a3, a2, 0
40083adb:	334b      	addi.n	a3, a3, 4
40083add:	f47c      	movi.n	a4, -1
40083adf:	0349      	s32i.n	a4, a3, 0
40083ae1:	0238      	l32i.n	a3, a2, 0
40083ae3:	338b      	addi.n	a3, a3, 8
40083ae5:	040c      	movi.n	a4, 0
40083ae7:	0349      	s32i.n	a4, a3, 0
40083ae9:	00a032        	movi	a3, 0
40083aec:	066232        	s32i	a3, a2, 24
40083aef:	ffdc61        	l32r	a6, 40083a60 <_OberonSyscallHandler+0x20>
40083af2:	14c662        	addi	a6, a6, 20
40083af5:	0ba072        	movi	a7, 11
40083af8:	201110        	or	a1, a1, a1
40083afb:	ff3b15        	call4	40082eac <_Out_70D42FFB_p_String>
40083afe:	1168      	l32i.n	a6, a1, 4
40083b00:	070c      	movi.n	a7, 0
40083b02:	201110        	or	a1, a1, a1
40083b05:	ff4755        	call4	40082f7c <_Out_70D42FFB_p_Hex>
40083b08:	201110        	or	a1, a1, a1
40083b0b:	ff8815        	call4	4008338c <_Out_70D42FFB_p_Ln>
40083b0e:	f01d      	retw.n
40083b10:	0186a0        	slli	a8, a6, 22
	...

40083b14 <_Main_init>:
40083b14:	002136        	entry	a1, 16
40083b17:	f29a21        	l32r	a2, 40080580 <_set_160mhz+0x14>
40083b1a:	201110        	or	a1, a1, a1
40083b1d:	fff815        	call4	40083aa0 <_Kernel_551E92D8_p_Init>
40083b20:	030c      	movi.n	a3, 0

40083b22 <L1>:
40083b22:	fffb41        	l32r	a4, 40083b10 <_Kernel_551E92D8_p_Init+0x70>
40083b25:	0b2437        	blt	a4, a3, 40083b34 <L2>
40083b28:	0239      	s32i.n	a3, a2, 0
40083b2a:	0238      	l32i.n	a3, a2, 0
40083b2c:	331b      	addi.n	a3, a3, 1
40083b2e:	fffc06        	j	40083b22 <L1>
40083b31:	000000        	ill

40083b34 <L2>:
40083b34:	201110        	or	a1, a1, a1
40083b37:	fca515        	call4	40080588 <_ShowStackAdr>
40083b3a:	201110        	or	a1, a1, a1
40083b3d:	ff84d5        	call4	4008338c <_Out_70D42FFB_p_Ln>
40083b40:	f29161        	l32r	a6, 40080584 <_set_160mhz+0x18>
40083b43:	10c662        	addi	a6, a6, 16
40083b46:	272c      	movi.n	a7, 34
40083b48:	201110        	or	a1, a1, a1
40083b4b:	ff3615        	call4	40082eac <_Out_70D42FFB_p_String>
40083b4e:	201110        	or	a1, a1, a1
40083b51:	ff8395        	call4	4008338c <_Out_70D42FFB_p_Ln>
40083b54:	201110        	or	a1, a1, a1
40083b57:	ff17d5        	call4	40082cd4 <_Test_8B10D205_p_Exec>
40083b5a:	203770        	or	a3, a7, a7
40083b5d:	006232        	s32i	a3, a2, 0
40083b60:	201110        	or	a1, a1, a1
40083b63:	ff2155        	call4	40082d78 <_Test_8B10D205_p_Completed>
40083b66:	073d      	mov.n	a3, a7
40083b68:	0239      	s32i.n	a3, a2, 0
40083b6a:	201110        	or	a1, a1, a1
40083b6d:	ff81d5        	call4	4008338c <_Out_70D42FFB_p_Ln>
40083b70:	201110        	or	a1, a1, a1
40083b73:	ff8195        	call4	4008338c <_Out_70D42FFB_p_Ln>
40083b76:	f28361        	l32r	a6, 40080584 <_set_160mhz+0x18>
40083b79:	34c662        	addi	a6, a6, 52
40083b7c:	a70c      	movi.n	a7, 10
40083b7e:	201110        	or	a1, a1, a1
40083b81:	ff3295        	call4	40082eac <_Out_70D42FFB_p_String>
40083b84:	201110        	or	a1, a1, a1
40083b87:	ff8055        	call4	4008338c <_Out_70D42FFB_p_Ln>

40083b8a <L3>:
40083b8a:	130c      	movi.n	a3, 1
40083b8c:	a39c      	beqz.n	a3, 40083baa <L4>
40083b8e:	a65c      	movi.n	a6, 90
40083b90:	201110        	or	a1, a1, a1
40083b93:	ff2f15        	call4	40082e84 <_Out_70D42FFB_p_Char>
40083b96:	030c      	movi.n	a3, 0

40083b98 <L5>:
40083b98:	fd6641        	l32r	a4, 40083130 <L32+0x3f>
40083b9b:	082437        	blt	a4, a3, 40083ba7 <L6>
40083b9e:	0239      	s32i.n	a3, a2, 0
40083ba0:	0238      	l32i.n	a3, a2, 0
40083ba2:	331b      	addi.n	a3, a3, 1
40083ba4:	fffc06        	j	40083b98 <L5>

40083ba7 <L6>:
40083ba7:	fff7c6        	j	40083b8a <L3>

40083baa <L4>:
40083baa:	f01d      	retw.n
40083bac:	091c      	movi.n	a9, 16
40083bae:	4008      	l32i.n	a0, a0, 16

40083bb0 <_Case_init>:
40083bb0:	002136        	entry	a1, 16
40083bb3:	f28121        	l32r	a2, 400805b8 <_ShowStackAdr+0x30>
40083bb6:	fffd61        	l32r	a6, 40083bac <L4+0x2>
40083bb9:	201110        	or	a1, a1, a1
40083bbc:	ff0e55        	call4	40082ca4 <_Test_8B10D205_p_Register>
40083bbf:	f01d      	retw.n
40083bc1:	000000        	ill
40083bc4:	0810a4        	lsi	f10, a0, 32
40083bc7:	        	srai	a3, a4, 6

40083bc8 <_BitFunc_init>:
40083bc8:	002136        	entry	a1, 16
40083bcb:	f4cd21        	l32r	a2, 40080f00 <L125+0x32>
40083bce:	fffd61        	l32r	a6, 40083bc4 <_Case_init+0x14>
40083bd1:	201110        	or	a1, a1, a1
40083bd4:	ff0cd5        	call4	40082ca4 <_Test_8B10D205_p_Register>
40083bd7:	f01d      	retw.n
40083bd9:	000000        	ill
40083bdc:	15d8      	l32i.n	a13, a5, 4
40083bde:	4008      	l32i.n	a0, a0, 16

40083be0 <_ArrayAssignments_init>:
40083be0:	002136        	entry	a1, 16
40083be3:	f58d21        	l32r	a2, 40081218 <L19+0x1c>
40083be6:	fffd61        	l32r	a6, 40083bdc <_BitFunc_init+0x14>
40083be9:	201110        	or	a1, a1, a1
40083bec:	ff0b55        	call4	40082ca4 <_Test_8B10D205_p_Register>
40083bef:	f01d      	retw.n
40083bf1:	000000        	ill
40083bf4:	081b24        	lsi	f2, a11, 32
40083bf7:	        	srai	a3, a4, 6

40083bf8 <_Byte_init>:
40083bf8:	002136        	entry	a1, 16
40083bfb:	f71e21        	l32r	a2, 40081874 <L91+0x32>
40083bfe:	fffd61        	l32r	a6, 40083bf4 <_ArrayAssignments_init+0x14>
40083c01:	201110        	or	a1, a1, a1
40083c04:	ff09d5        	call4	40082ca4 <_Test_8B10D205_p_Register>
40083c07:	f01d      	retw.n
40083c09:	000000        	ill
40083c0c:	1dc8      	l32i.n	a12, a13, 4
40083c0e:	4008      	l32i.n	a0, a0, 16

40083c10 <_DefFunc_init>:
40083c10:	002136        	entry	a1, 16
40083c13:	f85d21        	l32r	a2, 40081d88 <L56+0x36>
40083c16:	fffd61        	l32r	a6, 40083c0c <_Byte_init+0x14>
40083c19:	201110        	or	a1, a1, a1
40083c1c:	ff0855        	call4	40082ca4 <_Test_8B10D205_p_Register>
40083c1f:	f01d      	retw.n
40083c21:	000000        	ill
40083c24:	240c      	movi.n	a4, 2
40083c26:	4008      	l32i.n	a0, a0, 16

40083c28 <_SimpleReal_init>:
40083c28:	002136        	entry	a1, 16
40083c2b:	f9e921        	l32r	a2, 400823d0 <L68+0x32>
40083c2e:	fffd61        	l32r	a6, 40083c24 <_DefFunc_init+0x14>
40083c31:	201110        	or	a1, a1, a1
40083c34:	ff06d5        	call4	40082ca4 <_Test_8B10D205_p_Register>
40083c37:	f01d      	retw.n
40083c39:	000000        	ill
40083c3c:	26a8      	l32i.n	a10, a6, 8
40083c3e:	4008      	l32i.n	a0, a0, 16

40083c40 <_SimpleMath_init>:
40083c40:	002136        	entry	a1, 16
40083c43:	fa9721        	l32r	a2, 400826a0 <L24+0x32>
40083c46:	fffd61        	l32r	a6, 40083c3c <_SimpleReal_init+0x14>
40083c49:	201110        	or	a1, a1, a1
40083c4c:	ff0555        	call4	40082ca4 <_Test_8B10D205_p_Register>
40083c4f:	f01d      	retw.n
40083c51:	000000        	ill
40083c54:	294c      	movi.n	a9, 66
40083c56:	4008      	l32i.n	a0, a0, 16

40083c58 <_Assignments_init>:
40083c58:	002136        	entry	a1, 16
40083c5b:	fb3021        	l32r	a2, 4008291c <L30+0x32>
40083c5e:	fffd61        	l32r	a6, 40083c54 <_SimpleMath_init+0x14>
40083c61:	201110        	or	a1, a1, a1
40083c64:	ff03d5        	call4	40082ca4 <_Test_8B10D205_p_Register>
40083c67:	f01d      	retw.n
40083c69:	000000        	ill

40083c6c <_Test_init>:
40083c6c:	002136        	entry	a1, 16
40083c6f:	fbe521        	l32r	a2, 40082c04 <L27+0x52>
40083c72:	201110        	or	a1, a1, a1
40083c75:	ff1b95        	call4	40082e30 <_Test_8B10D205_p_Setup>
40083c78:	f01d      	retw.n
	...

40083c7c <_Out_init>:
40083c7c:	002136        	entry	a1, 16
40083c7f:	fc7121        	l32r	a2, 40082e44 <_Test_8B10D205_p_Setup+0x14>
40083c82:	201110        	or	a1, a1, a1
40083c85:	ff7315        	call4	400833b8 <_Out_70D42FFB_p_Open>
40083c88:	f01d      	retw.n
	...

40083c8c <_Kernel_init>:
40083c8c:	002136        	entry	a1, 16
40083c8f:	fdce21        	l32r	a2, 400833c8 <_Out_70D42FFB_p_Open+0x10>
40083c92:	f01d      	retw.n

Disassembly of section .data:

3ffb0000 <_sdata>:
3ffb0000:	617453        	lsi	f5, a4, 0x184
3ffb0003:	206b63        	lsi	f6, a11, 128
3ffb0006:	646441        	l32r	a4, 3ff89198 <TIMG0_T0_WDTCONFIG0_REG+0x2a150>
3ffb0009:	736572        	s32i	a7, a5, 0x1cc
3ffb000c:	203a73        	lsi	f7, a10, 128
3ffb000f:	534500        	max	a4, a5, a0
3ffb0012:	323350        	orbc	b3, b3, b5
3ffb0015:	624f20        	lsi	f2, a15, 0x188
3ffb0018:	6f7265        	call8	4001f740 <_heap_end+0x3f740>
3ffb001b:	6e          	.byte 0x6e
3ffb001c:	6f4320        	f64cmph	a4, a3, a2, 6
3ffb001f:	706d      	lsi	f6, a0, 0
3ffb0021:	6c69      	s32i.n	a6, a12, 24
3ffb0023:	207265        	call8	3ffd0748 <_ebss+0x1b1b8>
3ffb0026:	736554        	lsi	f5, a5, 0x1cc
3ffb0029:	532074        	lsi	f7, a0, 0x14c
3ffb002c:	746975        	call12	400246c4 <_heap_end+0x446c4>
3ffb002f:	002e65        	call8	3ffb0314 <_ArrayAssignments_s_str+0x150>
3ffb0032:	5b0000        	ult.s	b0, f0, f0
3ffb0035:	656854        	lsi	f5, a8, 0x194
3ffb0038:	6e4520        	f64rnd	a4, a5, a2, 2
3ffb003b:	005d64        	lsi	f6, a13, 0
	...

3ffb0040 <_Case_65736243_s_data_types>:
3ffb0040:	000020        	lsi	f2, a0, 0
3ffb0043:	ffff00        	f64cmph	a15, a15, a0, 15
3ffb0046:	ff          	.byte 0xff
3ffb0047:	ff          	.byte 0xff
3ffb0048:	ff          	.byte 0xff
3ffb0049:	ff          	.byte 0xff
3ffb004a:	ff          	.byte 0xff
3ffb004b:	ff          	.byte 0xff
3ffb004c:	ff          	.byte 0xff
3ffb004d:	ff          	.byte 0xff
3ffb004e:	ff          	.byte 0xff
3ffb004f:	ff          	.byte 0xff
3ffb0050:	ff          	.byte 0xff
3ffb0051:	ff          	.byte 0xff
3ffb0052:	ff          	.byte 0xff
3ffb0053:	ff          	.byte 0xff
3ffb0054:	000020        	lsi	f2, a0, 0
3ffb0057:	400600        	ssr	a6
3ffb005a:	ff0001        	l32r	a0, 3ffafc5c <TIMG0_T0_WDTCONFIG0_REG+0x50c14>
3ffb005d:	ff          	.byte 0xff
3ffb005e:	ff          	.byte 0xff
3ffb005f:	ff          	.byte 0xff
3ffb0060:	ff          	.byte 0xff
3ffb0061:	ff          	.byte 0xff
3ffb0062:	ff          	.byte 0xff
3ffb0063:	ff          	.byte 0xff
3ffb0064:	ff          	.byte 0xff
3ffb0065:	ff          	.byte 0xff
3ffb0066:	ff          	.byte 0xff
3ffb0067:	ff          	.byte 0xff
3ffb0068:	000020        	lsi	f2, a0, 0
3ffb006b:	800500        	add	a0, a5, a0
3ffb006e:	ff0002        	l8ui	a0, a0, 255
3ffb0071:	ff          	.byte 0xff
3ffb0072:	ff          	.byte 0xff
3ffb0073:	ff          	.byte 0xff
3ffb0074:	ff          	.byte 0xff
3ffb0075:	ff          	.byte 0xff
3ffb0076:	ff          	.byte 0xff
3ffb0077:	ff          	.byte 0xff
3ffb0078:	ff          	.byte 0xff
3ffb0079:	ff          	.byte 0xff
3ffb007a:	ff          	.byte 0xff
3ffb007b:	ff          	.byte 0xff
3ffb007c:	000020        	lsi	f2, a0, 0
3ffb007f:	c00500        	sub	a0, a5, a0
3ffb0082:	ff0003        	lsi	f0, a0, 0x3fc
3ffb0085:	ff          	.byte 0xff
3ffb0086:	ff          	.byte 0xff
3ffb0087:	ff          	.byte 0xff
3ffb0088:	ff          	.byte 0xff
3ffb0089:	ff          	.byte 0xff
3ffb008a:	ff          	.byte 0xff
3ffb008b:	ff          	.byte 0xff
3ffb008c:	ff          	.byte 0xff
3ffb008d:	ff          	.byte 0xff
3ffb008e:	ff          	.byte 0xff
3ffb008f:	ff          	.byte 0xff

3ffb0090 <_Case_s_str>:
3ffb0090:	534143        	ssi	f4, a1, 0x14c
3ffb0093:	732045        	call0	40023298 <_heap_end+0x43298>
3ffb0096:	746174        	lsi	f7, a1, 0x1d0
3ffb0099:	656d65        	call8	40015770 <_heap_end+0x35770>
3ffb009c:	6e          	.byte 0x6e
3ffb009d:	203a74        	lsi	f7, a10, 128
3ffb00a0:	000000        	ill
3ffb00a3:	614300        	lsi	f0, a3, 0x184
3ffb00a6:	436573        	lsi	f7, a5, 0x10c
3ffb00a9:	6168      	l32i.n	a6, a1, 24
3ffb00ab:	312072        	l32i	a7, a0, 196
3ffb00ae:	430000        	min	a0, a0, a0
3ffb00b1:	657361        	l32r	a6, 3ff89680 <TIMG0_T0_WDTCONFIG0_REG+0x2a638>
3ffb00b4:	616843        	lsi	f4, a8, 0x184
3ffb00b7:	322072        	l32i	a7, a0, 200
3ffb00ba:	430000        	min	a0, a0, a0
3ffb00bd:	657361        	l32r	a6, 3ff8968c <TIMG0_T0_WDTCONFIG0_REG+0x2a644>
3ffb00c0:	4e          	.byte 0x4e
3ffb00c1:	206d75        	call12	3ffd0798 <_ebss+0x1b208>
3ffb00c4:	003120        	lsi	f2, a1, 0
3ffb00c7:	614300        	lsi	f0, a3, 0x184
3ffb00ca:	4e6573        	lsi	f7, a5, 0x138
3ffb00cd:	206d75        	call12	3ffd07a4 <_ebss+0x1b214>
3ffb00d0:	003220        	lsi	f2, a2, 0
3ffb00d3:	614300        	lsi	f0, a3, 0x184
3ffb00d6:	4e6573        	lsi	f7, a5, 0x138
3ffb00d9:	206d75        	call12	3ffd07b0 <_ebss+0x1b220>
3ffb00dc:	003320        	lsi	f2, a3, 0
3ffb00df:	614300        	lsi	f0, a3, 0x184
3ffb00e2:	4e6573        	lsi	f7, a5, 0x138
3ffb00e5:	206d75        	call12	3ffd07bc <_ebss+0x1b22c>
3ffb00e8:	003420        	lsi	f2, a4, 0
3ffb00eb:	614300        	lsi	f0, a3, 0x184
3ffb00ee:	4e6573        	lsi	f7, a5, 0x138
3ffb00f1:	206d75        	call12	3ffd07c8 <_ebss+0x1b238>
3ffb00f4:	003520        	lsi	f2, a5, 0
3ffb00f7:	614300        	lsi	f0, a3, 0x184
3ffb00fa:	4e6573        	lsi	f7, a5, 0x138
3ffb00fd:	206d75        	call12	3ffd07d4 <_ebss+0x1b244>
3ffb0100:	003620        	lsi	f2, a6, 0
3ffb0103:	614300        	lsi	f0, a3, 0x184
3ffb0106:	4e6573        	lsi	f7, a5, 0x138
3ffb0109:	206d75        	call12	3ffd07e0 <_ebss+0x1b250>
3ffb010c:	003720        	lsi	f2, a7, 0
3ffb010f:	614300        	lsi	f0, a3, 0x184
3ffb0112:	4e6573        	lsi	f7, a5, 0x138
3ffb0115:	206d75        	call12	3ffd07ec <_ebss+0x1b25c>
3ffb0118:	003820        	lsi	f2, a8, 0
3ffb011b:	614300        	lsi	f0, a3, 0x184
3ffb011e:	4e6573        	lsi	f7, a5, 0x138
3ffb0121:	206d75        	call12	3ffd07f8 <_ebss+0x1b268>
3ffb0124:	003920        	lsi	f2, a9, 0
3ffb0127:	614300        	lsi	f0, a3, 0x184
3ffb012a:	4e6573        	lsi	f7, a5, 0x138
3ffb012d:	206d75        	call12	3ffd0804 <_ebss+0x1b274>
3ffb0130:	003031        	l32r	a3, 3ff701f0 <TIMG0_T0_WDTCONFIG0_REG+0x111a8>
3ffb0133:	614300        	lsi	f0, a3, 0x184
3ffb0136:	4e6573        	lsi	f7, a5, 0x138
3ffb0139:	206d75        	call12	3ffd0810 <_ebss+0x1b280>
3ffb013c:	003131        	l32r	a3, 3ff70200 <TIMG0_T0_WDTCONFIG0_REG+0x111b8>
3ffb013f:	614300        	lsi	f0, a3, 0x184
3ffb0142:	4e6573        	lsi	f7, a5, 0x138
3ffb0145:	206d75        	call12	3ffd081c <_ebss+0x1b28c>
3ffb0148:	003231        	l32r	a3, 3ff70210 <TIMG0_T0_WDTCONFIG0_REG+0x111c8>
3ffb014b:	614300        	lsi	f0, a3, 0x184
3ffb014e:	4e6573        	lsi	f7, a5, 0x138
3ffb0151:	206d75        	call12	3ffd0828 <_ebss+0x1b298>
3ffb0154:	003331        	l32r	a3, 3ff70220 <TIMG0_T0_WDTCONFIG0_REG+0x111d8>
3ffb0157:	614300        	lsi	f0, a3, 0x184
3ffb015a:	4e6573        	lsi	f7, a5, 0x138
3ffb015d:	206d75        	call12	3ffd0834 <_ebss+0x1b2a4>
3ffb0160:	003431        	l32r	a3, 3ff70230 <TIMG0_T0_WDTCONFIG0_REG+0x111e8>
3ffb0163:	614300        	lsi	f0, a3, 0x184
3ffb0166:	4e6573        	lsi	f7, a5, 0x138
3ffb0169:	316d75        	call12	3ffe1840 <_heap_end+0x1840>
3ffb016c:	000035        	call12	3ffb0170 <_Case_s_str+0xe0>
3ffb016f:	452000        	extui	a2, a0, 16, 5
3ffb0172:	6e          	.byte 0x6e
3ffb0173:	000064        	lsi	f6, a0, 0
	...

3ffb0178 <_BitFunc_s_str>:
3ffb0178:	746942        	s32i	a4, a9, 0x1d0
3ffb017b:	754620        	extui	a4, a2, 22, 8
3ffb017e:	6e          	.byte 0x6e
3ffb017f:	697463        	lsi	f6, a4, 0x1a4
3ffb0182:	6f          	.byte 0x6f
3ffb0183:	6e          	.byte 0x6e
3ffb0184:	203a73        	lsi	f7, a10, 128
3ffb0187:	725000        	lsi	f0, a0, 0x1c8
3ffb018a:	6f          	.byte 0x6f
3ffb018b:	656c62        	s32i	a6, a12, 0x194
3ffb018e:	3a6d      	lsi	f6, a10, 40
3ffb0190:	000020        	lsi	f2, a0, 0
3ffb0193:	784500        	lsi	f0, a5, 0x1e0
3ffb0196:	636570        	minu	a6, a5, a7
3ffb0199:	646574        	lsi	f7, a5, 0x190
3ffb019c:	203a      	add.n	a2, a0, a3
3ffb019e:	200000        	or	a0, a0, a0
3ffb01a1:	746f47        	bbci	a15, 4, 3ffb0219 <_ArrayAssignments_s_str+0x55>
3ffb01a4:	203a      	add.n	a2, a0, a3
3ffb01a6:	200000        	or	a0, a0, a0
3ffb01a9:	646e45        	call0	40014890 <_heap_end+0x34890>
3ffb01ac:	000000        	ill
	...

3ffb01b0 <_ArrayAssignments_B5C88A88_s_data_types>:
3ffb01b0:	000020        	lsi	f2, a0, 0
3ffb01b3:	ffff00        	f64cmph	a15, a15, a0, 15
3ffb01b6:	ff          	.byte 0xff
3ffb01b7:	ff          	.byte 0xff
3ffb01b8:	ff          	.byte 0xff
3ffb01b9:	ff          	.byte 0xff
3ffb01ba:	ff          	.byte 0xff
3ffb01bb:	ff          	.byte 0xff
3ffb01bc:	ff          	.byte 0xff
3ffb01bd:	ff          	.byte 0xff
3ffb01be:	ff          	.byte 0xff
3ffb01bf:	ff          	.byte 0xff
3ffb01c0:	ff          	.byte 0xff
3ffb01c1:	ff          	.byte 0xff
3ffb01c2:	ff          	.byte 0xff
3ffb01c3:	ff          	.byte 0xff

3ffb01c4 <_ArrayAssignments_s_str>:
3ffb01c4:	727241        	l32r	a4, 3ff8cb8c <TIMG0_T0_WDTCONFIG0_REG+0x2db44>
3ffb01c7:	207961        	l32r	a6, 3ff783ac <TIMG0_T0_WDTCONFIG0_REG+0x19364>
3ffb01ca:	4f          	.byte 0x4f
3ffb01cb:	207370        	or	a7, a3, a7
3ffb01ce:	6f          	.byte 0x6f
3ffb01cf:	6e          	.byte 0x6e
3ffb01d0:	6f6c20        	f64cmph	a6, a12, a2, 6
3ffb01d3:	6c6163        	lsi	f6, a1, 0x1b0
3ffb01d6:	617620        	lsi	f2, a6, 0x184
3ffb01d9:	616972        	s32i	a7, a9, 0x184
3ffb01dc:	656c62        	s32i	a6, a12, 0x194
3ffb01df:	203a73        	lsi	f7, a10, 128
3ffb01e2:	620000        	lsi	f0, a0, 0x188
3ffb01e5:	305b32        	s16i	a3, a11, 96
3ffb01e8:	205d      	lsi	f5, a0, 0
3ffb01ea:	3d3a      	add.n	a3, a13, a3
3ffb01ec:	3b3520        	ueq.s	b3, f5, f2
3ffb01ef:	326120        	orbc	b6, b1, b2
3ffb01f2:	3d3a20        	lsi	f2, a10, 244
3ffb01f5:	326220        	orbc	b6, b2, b2
3ffb01f8:	003b      	addi.n	a0, a0, 3
3ffb01fa:	610000        	xsr.lbeg	a0
3ffb01fd:	305b32        	s16i	a3, a11, 96
3ffb0200:	205d      	lsi	f5, a0, 0
3ffb0202:	3d3a      	add.n	a3, a13, a3
3ffb0204:	3b3620        	ueq.s	b3, f6, f2
3ffb0207:	326100        	orbc	b6, b1, b0
3ffb020a:	3d3a20        	lsi	f2, a10, 244
3ffb020d:	326320        	orbc	b6, b3, b2
3ffb0210:	003b      	addi.n	a0, a0, 3
3ffb0212:	610000        	xsr.lbeg	a0
3ffb0215:	3a2032        	l32i	a3, a0, 232
3ffb0218:	203d      	lsi	f3, a0, 0
3ffb021a:	003b36        	entry	a11, 24
3ffb021d:	000000        	ill
3ffb0220:	203263        	lsi	f6, a2, 128
3ffb0223:	3d3a      	add.n	a3, a13, a3
3ffb0225:	326120        	orbc	b6, b1, b2
3ffb0228:	203b      	addi.n	a2, a0, 3
3ffb022a:	5b3261        	l32r	a6, 3ff86ef4 <TIMG0_T0_WDTCONFIG0_REG+0x27eac>
3ffb022d:	205d30        	or	a5, a13, a3
3ffb0230:	3d3a      	add.n	a3, a13, a3
3ffb0232:	3b3820        	ueq.s	b3, f8, f2
3ffb0235:	000000        	ill
3ffb0238:	5b3264        	mula.da.hh.lddec	m3, a2, m0, a6
3ffb023b:	2e5d31        	l32r	a3, 3ff7bbb0 <TIMG0_T0_WDTCONFIG0_REG+0x1cb68>
3ffb023e:	2078      	l32i.n	a7, a0, 8
3ffb0240:	3d3a      	add.n	a3, a13, a3
3ffb0242:	326220        	orbc	b6, b2, b2
3ffb0245:	003b      	addi.n	a0, a0, 3
3ffb0247:	326400        	orbc	b6, b4, b0
3ffb024a:	315b      	addi.n	a3, a1, 5
3ffb024c:	2e5d      	lsi	f5, a14, 56
3ffb024e:	2078      	l32i.n	a7, a0, 8
3ffb0250:	3d3a      	add.n	a3, a13, a3
3ffb0252:	303120        	xor	a3, a1, a2
3ffb0255:	003b      	addi.n	a0, a0, 3
3ffb0257:	326100        	orbc	b6, b1, b0
3ffb025a:	3d3a20        	lsi	f2, a10, 244
3ffb025d:	326420        	orbc	b6, b4, b2
3ffb0260:	315b      	addi.n	a3, a1, 5
3ffb0262:	2e5d      	lsi	f5, a14, 56
3ffb0264:	3b78      	l32i.n	a7, a11, 12
3ffb0266:	640000        	extui	a0, a0, 0, 7
3ffb0269:	305b32        	s16i	a3, a11, 96
3ffb026c:	2e5d      	lsi	f5, a14, 56
3ffb026e:	5b79      	s32i.n	a7, a11, 20
3ffb0270:	5b5d31        	l32r	a3, 3ff86fe4 <TIMG0_T0_WDTCONFIG0_REG+0x27f9c>
3ffb0273:	205d30        	or	a5, a13, a3
3ffb0276:	3d3a      	add.n	a3, a13, a3
3ffb0278:	313120        	srai	a3, a2, 17
3ffb027b:	203b      	addi.n	a2, a0, 3
3ffb027d:	5b3264        	mula.da.hh.lddec	m3, a2, m0, a6
3ffb0280:	2e5d30        	f64norm	a5, a13, a3, 0
3ffb0283:	5b79      	s32i.n	a7, a11, 20
3ffb0285:	205d30        	or	a5, a13, a3
3ffb0288:	3d3a      	add.n	a3, a13, a3
3ffb028a:	326420        	orbc	b6, b4, b2
3ffb028d:	305b      	addi.n	a3, a0, 5
3ffb028f:	2e5d      	lsi	f5, a14, 56
3ffb0291:	5b79      	s32i.n	a7, a11, 20
3ffb0293:	3b5d31        	l32r	a3, 3ff7f008 <TIMG0_T0_WDTCONFIG0_REG+0x1ffc0>
3ffb0296:	640000        	extui	a0, a0, 0, 7
3ffb0299:	305b32        	s16i	a3, a11, 96
3ffb029c:	2e5d      	lsi	f5, a14, 56
3ffb029e:	5b79      	s32i.n	a7, a11, 20
3ffb02a0:	5b5d30        	ult.s	b5, f13, f3
3ffb02a3:	205d30        	or	a5, a13, a3
3ffb02a6:	3d3a      	add.n	a3, a13, a3
3ffb02a8:	323120        	orbc	b3, b1, b2
3ffb02ab:	003b      	addi.n	a0, a0, 3
3ffb02ad:	000000        	ill
3ffb02b0:	5b3364        	mula.da.hh.lddec	m3, a3, m0, a6
3ffb02b3:	2e5d30        	f64norm	a5, a13, a3, 0
3ffb02b6:	5b78      	l32i.n	a7, a11, 20
3ffb02b8:	205d31        	l32r	a3, 3ff7842c <TIMG0_T0_WDTCONFIG0_REG+0x193e4>
3ffb02bb:	3d3a      	add.n	a3, a13, a3
3ffb02bd:	353120        	extui	a3, a2, 17, 4
3ffb02c0:	203b      	addi.n	a2, a0, 3
3ffb02c2:	203264        	lsi	f6, a2, 128
3ffb02c5:	3d3a      	add.n	a3, a13, a3
3ffb02c7:	336420        	clamps	a6, a4, 9
3ffb02ca:	003b      	addi.n	a0, a0, 3
3ffb02cc:	5b3264        	mula.da.hh.lddec	m3, a2, m0, a6
3ffb02cf:	2e5d30        	f64norm	a5, a13, a3, 0
3ffb02d2:	5b78      	l32i.n	a7, a11, 20
3ffb02d4:	205d31        	l32r	a3, 3ff78448 <TIMG0_T0_WDTCONFIG0_REG+0x19400>
3ffb02d7:	3d3a      	add.n	a3, a13, a3
3ffb02d9:	363120        	lsi	f2, a1, 216
3ffb02dc:	003b      	addi.n	a0, a0, 3
3ffb02de:	650000        	extui	a0, a0, 16, 7
3ffb02e1:	305b33        	lsi	f3, a11, 192
3ffb02e4:	5b5d      	lsi	f5, a11, 44
3ffb02e6:	5d38      	l32i.n	a3, a13, 20
3ffb02e8:	2e          	.byte 0x2e
3ffb02e9:	5b78      	l32i.n	a7, a11, 20
3ffb02eb:	205d31        	l32r	a3, 3ff78460 <TIMG0_T0_WDTCONFIG0_REG+0x19418>
3ffb02ee:	3d3a      	add.n	a3, a13, a3
3ffb02f0:	353220        	extui	a3, a2, 18, 4
3ffb02f3:	203b      	addi.n	a2, a0, 3
3ffb02f5:	203265        	call8	3ffd061c <_ebss+0x1b08c>
3ffb02f8:	3d3a      	add.n	a3, a13, a3
3ffb02fa:	336520        	clamps	a6, a5, 9
3ffb02fd:	003b      	addi.n	a0, a0, 3
3ffb02ff:	326500        	orbc	b6, b5, b0
3ffb0302:	305b      	addi.n	a3, a0, 5
3ffb0304:	5b5d      	lsi	f5, a11, 44
3ffb0306:	5d38      	l32i.n	a3, a13, 20
3ffb0308:	2e          	.byte 0x2e
3ffb0309:	5b78      	l32i.n	a7, a11, 20
3ffb030b:	205d31        	l32r	a3, 3ff78480 <TIMG0_T0_WDTCONFIG0_REG+0x19438>
3ffb030e:	3d3a      	add.n	a3, a13, a3
3ffb0310:	363220        	lsi	f2, a2, 216
3ffb0313:	003b      	addi.n	a0, a0, 3
3ffb0315:	000000        	ill
3ffb0318:	326d      	lsi	f6, a2, 8
3ffb031a:	3d3a20        	lsi	f2, a10, 244
3ffb031d:	327a20        	orbc	b7, b10, b2
3ffb0320:	003b      	addi.n	a0, a0, 3
3ffb0322:	6d0000        	lsi	f0, a0, 0x1b4
3ffb0325:	305b32        	s16i	a3, a11, 96
3ffb0328:	5b5d      	lsi	f5, a11, 44
3ffb032a:	205d31        	l32r	a3, 3ff784a0 <TIMG0_T0_WDTCONFIG0_REG+0x19458>
3ffb032d:	3d3a      	add.n	a3, a13, a3
3ffb032f:	363620        	lsi	f2, a6, 216
3ffb0332:	003b      	addi.n	a0, a0, 3
3ffb0334:	327a      	add.n	a3, a2, a7
3ffb0336:	3d3a20        	lsi	f2, a10, 244
3ffb0339:	326d20        	orbc	b6, b13, b2
3ffb033c:	203b      	addi.n	a2, a0, 3
3ffb033e:	326d      	lsi	f6, a2, 8
3ffb0340:	305b      	addi.n	a3, a0, 5
3ffb0342:	5b5d      	lsi	f5, a11, 44
3ffb0344:	205d31        	l32r	a3, 3ff784b8 <TIMG0_T0_WDTCONFIG0_REG+0x19470>
3ffb0347:	3d3a      	add.n	a3, a13, a3
3ffb0349:	383820        	lsi	f2, a8, 224
3ffb034c:	003b      	addi.n	a0, a0, 3
3ffb034e:	200000        	or	a0, a0, a0
3ffb0351:	727241        	l32r	a4, 3ff8cd1c <TIMG0_T0_WDTCONFIG0_REG+0x2dcd4>
3ffb0354:	207961        	l32r	a6, 3ff78538 <TIMG0_T0_WDTCONFIG0_REG+0x194f0>
3ffb0357:	4f          	.byte 0x4f
3ffb0358:	207370        	or	a7, a3, a7
3ffb035b:	6f          	.byte 0x6f
3ffb035c:	6e          	.byte 0x6e
3ffb035d:	6f6d20        	f64cmph	a6, a13, a2, 6
3ffb0360:	6c7564        	lsi	f6, a5, 0x1b0
3ffb0363:	762065        	call8	40026568 <_heap_end+0x46568>
3ffb0366:	697261        	l32r	a6, 3ff8a930 <TIMG0_T0_WDTCONFIG0_REG+0x2b8e8>
3ffb0369:	6c6261        	l32r	a6, 3ff8b4f4 <TIMG0_T0_WDTCONFIG0_REG+0x2c4ac>
3ffb036c:	3a7365        	call8	3ffeaaa4 <_heap_end+0xaaa4>
3ffb036f:	000020        	lsi	f2, a0, 0
3ffb0372:	620000        	lsi	f0, a0, 0x188
3ffb0375:	305b      	addi.n	a3, a0, 5
3ffb0377:	205d      	lsi	f5, a0, 0
3ffb0379:	3d3a      	add.n	a3, a13, a3
3ffb037b:	3b3520        	ueq.s	b3, f5, f2
3ffb037e:	206120        	or	a6, a1, a2
3ffb0381:	3d3a      	add.n	a3, a13, a3
3ffb0383:	3b6220        	ueq.s	b6, f2, f2
3ffb0386:	610000        	xsr.lbeg	a0
3ffb0389:	305b      	addi.n	a3, a0, 5
3ffb038b:	205d      	lsi	f5, a0, 0
3ffb038d:	3d3a      	add.n	a3, a13, a3
3ffb038f:	3b3620        	ueq.s	b3, f6, f2
3ffb0392:	640000        	extui	a0, a0, 0, 7
3ffb0395:	315b30        	srai	a5, a3, 27
3ffb0398:	2e5d      	lsi	f5, a14, 56
3ffb039a:	2078      	l32i.n	a7, a0, 8
3ffb039c:	3d3a      	add.n	a3, a13, a3
3ffb039e:	3b6220        	ueq.s	b6, f2, f2
3ffb03a1:	000000        	ill
3ffb03a4:	5b3064        	mula.da.hh.lddec	m3, a0, m0, a6
3ffb03a7:	2e5d31        	l32r	a3, 3ff7bd1c <TIMG0_T0_WDTCONFIG0_REG+0x1ccd4>
3ffb03aa:	2078      	l32i.n	a7, a0, 8
3ffb03ac:	3d3a      	add.n	a3, a13, a3
3ffb03ae:	303120        	xor	a3, a1, a2
3ffb03b1:	003b      	addi.n	a0, a0, 3
3ffb03b3:	206100        	or	a6, a1, a0
3ffb03b6:	3d3a      	add.n	a3, a13, a3
3ffb03b8:	306420        	xor	a6, a4, a2
3ffb03bb:	315b      	addi.n	a3, a1, 5
3ffb03bd:	2e5d      	lsi	f5, a14, 56
3ffb03bf:	3b78      	l32i.n	a7, a11, 12
3ffb03c1:	000000        	ill
3ffb03c4:	5b3064        	mula.da.hh.lddec	m3, a0, m0, a6
3ffb03c7:	2e5d30        	f64norm	a5, a13, a3, 0
3ffb03ca:	5b79      	s32i.n	a7, a11, 20
3ffb03cc:	5b5d31        	l32r	a3, 3ff87140 <TIMG0_T0_WDTCONFIG0_REG+0x280f8>
3ffb03cf:	205d30        	or	a5, a13, a3
3ffb03d2:	3d3a      	add.n	a3, a13, a3
3ffb03d4:	313120        	srai	a3, a2, 17
3ffb03d7:	203b      	addi.n	a2, a0, 3
3ffb03d9:	5b3064        	mula.da.hh.lddec	m3, a0, m0, a6
3ffb03dc:	2e5d30        	f64norm	a5, a13, a3, 0
3ffb03df:	5b79      	s32i.n	a7, a11, 20
3ffb03e1:	205d30        	or	a5, a13, a3
3ffb03e4:	3d3a      	add.n	a3, a13, a3
3ffb03e6:	306420        	xor	a6, a4, a2
3ffb03e9:	305b      	addi.n	a3, a0, 5
3ffb03eb:	2e5d      	lsi	f5, a14, 56
3ffb03ed:	5b79      	s32i.n	a7, a11, 20
3ffb03ef:	3b5d31        	l32r	a3, 3ff7f164 <TIMG0_T0_WDTCONFIG0_REG+0x2011c>
3ffb03f2:	640000        	extui	a0, a0, 0, 7
3ffb03f5:	305b30        	xor	a5, a11, a3
3ffb03f8:	2e5d      	lsi	f5, a14, 56
3ffb03fa:	5b79      	s32i.n	a7, a11, 20
3ffb03fc:	5b5d30        	ult.s	b5, f13, f3
3ffb03ff:	205d30        	or	a5, a13, a3
3ffb0402:	3d3a      	add.n	a3, a13, a3
3ffb0404:	323120        	orbc	b3, b1, b2
3ffb0407:	003b      	addi.n	a0, a0, 3
3ffb0409:	000000        	ill
3ffb040c:	5b3164        	mula.da.hh.lddec	m3, a1, m0, a6
3ffb040f:	2e5d30        	f64norm	a5, a13, a3, 0
3ffb0412:	5b78      	l32i.n	a7, a11, 20
3ffb0414:	205d31        	l32r	a3, 3ff78588 <TIMG0_T0_WDTCONFIG0_REG+0x19540>
3ffb0417:	3d3a      	add.n	a3, a13, a3
3ffb0419:	353120        	extui	a3, a2, 17, 4
3ffb041c:	203b      	addi.n	a2, a0, 3
3ffb041e:	203064        	lsi	f6, a0, 128
3ffb0421:	3d3a      	add.n	a3, a13, a3
3ffb0423:	316420        	srai	a6, a2, 20
3ffb0426:	003b      	addi.n	a0, a0, 3
3ffb0428:	5b3064        	mula.da.hh.lddec	m3, a0, m0, a6
3ffb042b:	2e5d30        	f64norm	a5, a13, a3, 0
3ffb042e:	5b78      	l32i.n	a7, a11, 20
3ffb0430:	205d31        	l32r	a3, 3ff785a4 <TIMG0_T0_WDTCONFIG0_REG+0x1955c>
3ffb0433:	3d3a      	add.n	a3, a13, a3
3ffb0435:	363120        	lsi	f2, a1, 216
3ffb0438:	003b      	addi.n	a0, a0, 3
3ffb043a:	650000        	extui	a0, a0, 16, 7
3ffb043d:	305b31        	l32r	a3, 3ff7c5ac <TIMG0_T0_WDTCONFIG0_REG+0x1d564>
3ffb0440:	5b5d      	lsi	f5, a11, 44
3ffb0442:	5d38      	l32i.n	a3, a13, 20
3ffb0444:	2e          	.byte 0x2e
3ffb0445:	5b78      	l32i.n	a7, a11, 20
3ffb0447:	205d31        	l32r	a3, 3ff785bc <TIMG0_T0_WDTCONFIG0_REG+0x19574>
3ffb044a:	3d3a      	add.n	a3, a13, a3
3ffb044c:	353220        	extui	a3, a2, 18, 4
3ffb044f:	203b      	addi.n	a2, a0, 3
3ffb0451:	203065        	call8	3ffd0758 <_ebss+0x1b1c8>
3ffb0454:	3d3a      	add.n	a3, a13, a3
3ffb0456:	316520        	srai	a6, a2, 21
3ffb0459:	003b      	addi.n	a0, a0, 3
3ffb045b:	306500        	xor	a6, a5, a0
3ffb045e:	305b      	addi.n	a3, a0, 5
3ffb0460:	5b5d      	lsi	f5, a11, 44
3ffb0462:	5d38      	l32i.n	a3, a13, 20
3ffb0464:	2e          	.byte 0x2e
3ffb0465:	5b78      	l32i.n	a7, a11, 20
3ffb0467:	205d31        	l32r	a3, 3ff785dc <TIMG0_T0_WDTCONFIG0_REG+0x19594>
3ffb046a:	3d3a      	add.n	a3, a13, a3
3ffb046c:	363220        	lsi	f2, a2, 216
3ffb046f:	003b      	addi.n	a0, a0, 3
3ffb0471:	000000        	ill
3ffb0474:	6e4520        	f64rnd	a4, a5, a2, 2
3ffb0477:	000064        	lsi	f6, a0, 0
	...

3ffb047c <_Byte_s_str>:
3ffb047c:	747942        	lsi	f4, a9, 0x1d0
3ffb047f:	702065        	call8	40020684 <_heap_end+0x40684>
3ffb0482:	617261        	l32r	a6, 3ff88a4c <TIMG0_T0_WDTCONFIG0_REG+0x29a04>
3ffb0485:	656d      	lsi	f6, a5, 20
3ffb0487:	726574        	lsi	f7, a5, 0x1c8
3ffb048a:	420000        	xorb	b0, b0, b0
3ffb048d:	5459      	s32i.n	a5, a4, 20
3ffb048f:	6f2045        	call0	4001f694 <_heap_end+0x3f694>
3ffb0492:	726570        	lsi	f7, a5, 0x1c8
3ffb0495:	697461        	l32r	a6, 3ff8aa68 <TIMG0_T0_WDTCONFIG0_REG+0x2ba20>
3ffb0498:	6f          	.byte 0x6f
3ffb0499:	6e          	.byte 0x6e
3ffb049a:	6f2073        	lsi	f7, a0, 0x1bc
3ffb049d:	6e          	.byte 0x6e
3ffb049e:	6f6c20        	f64cmph	a6, a12, a2, 6
3ffb04a1:	6c6163        	lsi	f6, a1, 0x1b0
3ffb04a4:	617620        	lsi	f2, a6, 0x184
3ffb04a7:	616972        	s32i	a7, a9, 0x184
3ffb04aa:	656c62        	s32i	a6, a12, 0x194
3ffb04ad:	203a73        	lsi	f7, a10, 128
3ffb04b0:	000000        	ill
3ffb04b3:	794200        	lsi	f0, a2, 0x1e4
3ffb04b6:	206574        	lsi	f7, a5, 128
3ffb04b9:	726170        	lsi	f7, a1, 0x1c8
3ffb04bc:	656d61        	l32r	a6, 3ff89a70 <TIMG0_T0_WDTCONFIG0_REG+0x2aa28>
3ffb04bf:	726574        	lsi	f7, a5, 0x1c8
3ffb04c2:	6f7420        	f64cmph	a7, a4, a2, 6
3ffb04c5:	6e6920        	f64rnd	a6, a9, a2, 2
3ffb04c8:	676574        	lsi	f7, a5, 0x19c
3ffb04cb:	207265        	call8	3ffd0bf0 <_ebss+0x1b660>
3ffb04ce:	746572        	s32i	a7, a5, 0x1d0
3ffb04d1:	6e7275        	call12	4001ebf8 <_heap_end+0x3ebf8>
3ffb04d4:	000000        	ill
3ffb04d7:	6e4900        	f64rnd	a4, a9, a0, 2
3ffb04da:	676574        	lsi	f7, a5, 0x19c
3ffb04dd:	207265        	call8	3ffd0c04 <_ebss+0x1b674>
3ffb04e0:	206f74        	lsi	f7, a15, 128
3ffb04e3:	747962        	lsi	f6, a9, 0x1d0
3ffb04e6:	742065        	call8	400246ec <_heap_end+0x446ec>
3ffb04e9:	6e6172        	s32i	a7, a1, 0x1b8
3ffb04ec:	6f6673        	lsi	f7, a6, 0x1bc
3ffb04ef:	006d72        	s32i	a7, a13, 0
3ffb04f2:	420000        	xorb	b0, b0, b0
3ffb04f5:	7479      	s32i.n	a7, a4, 28
3ffb04f7:	432065        	call8	3fff36fc <_heap_end+0x136fc>
3ffb04fa:	6f          	.byte 0x6f
3ffb04fb:	6e          	.byte 0x6e
3ffb04fc:	207473        	lsi	f7, a4, 128
3ffb04ff:	737341        	l32r	a4, 3ff8d2cc <TIMG0_T0_WDTCONFIG0_REG+0x2e284>
3ffb0502:	6769      	s32i.n	a6, a7, 24
3ffb0504:	6e          	.byte 0x6e
3ffb0505:	656d      	lsi	f6, a5, 20
3ffb0507:	6e          	.byte 0x6e
3ffb0508:	007374        	lsi	f7, a3, 0
3ffb050b:	794200        	lsi	f0, a2, 0x1e4
3ffb050e:	206574        	lsi	f7, a5, 128
3ffb0511:	206f74        	lsi	f7, a15, 128
3ffb0514:	6e69      	s32i.n	a6, a14, 24
3ffb0516:	676574        	lsi	f7, a5, 0x19c
3ffb0519:	207265        	call8	3ffd0c40 <_ebss+0x1b6b0>
3ffb051c:	746977        	bbci	a9, 7, 3ffb0594 <_Byte_s_str+0x118>
3ffb051f:	2068      	l32i.n	a6, a0, 8
3ffb0521:	697261        	l32r	a6, 3ff8aaec <TIMG0_T0_WDTCONFIG0_REG+0x2baa4>
3ffb0524:	6d6874        	lsi	f7, a8, 0x1b4
3ffb0527:	697465        	call8	40019c6c <_heap_end+0x39c6c>
3ffb052a:	420063        	lsi	f6, a0, 0x108
3ffb052d:	7479      	s32i.n	a7, a4, 28
3ffb052f:	562065        	call8	40006734 <_heap_end+0x26734>
3ffb0532:	697261        	l32r	a6, 3ff8aafc <TIMG0_T0_WDTCONFIG0_REG+0x2bab4>
3ffb0535:	6c6261        	l32r	a6, 3ff8b6c0 <TIMG0_T0_WDTCONFIG0_REG+0x2c678>
3ffb0538:	612065        	call8	40011740 <_heap_end+0x31740>
3ffb053b:	697373        	lsi	f7, a3, 0x1a4
3ffb053e:	6d6e67        	bbci	a14, 6, 3ffb05af <_Byte_s_str+0x133>
3ffb0541:	746e65        	call8	40024c28 <_heap_end+0x44c28>
3ffb0544:	000000        	ill
3ffb0547:	794200        	lsi	f0, a2, 0x1e4
3ffb054a:	206574        	lsi	f7, a5, 128
3ffb054d:	656966        	bnei	a9, 6, 3ffb05b6 <_Byte_s_str+0x13a>
3ffb0550:	646c      	movi.n	a4, -26
3ffb0552:	6f4320        	f64cmph	a4, a3, a2, 6
3ffb0555:	6e          	.byte 0x6e
3ffb0556:	207473        	lsi	f7, a4, 128
3ffb0559:	737341        	l32r	a4, 3ff8d328 <TIMG0_T0_WDTCONFIG0_REG+0x2e2e0>
3ffb055c:	6769      	s32i.n	a6, a7, 24
3ffb055e:	6e          	.byte 0x6e
3ffb055f:	656d      	lsi	f6, a5, 20
3ffb0561:	6e          	.byte 0x6e
3ffb0562:	420074        	lsi	f7, a0, 0x108
3ffb0565:	7479      	s32i.n	a7, a4, 28
3ffb0567:	662065        	call8	4001676c <_heap_end+0x3676c>
3ffb056a:	6569      	s32i.n	a6, a5, 24
3ffb056c:	646c      	movi.n	a4, -26
3ffb056e:	617620        	lsi	f2, a6, 0x184
3ffb0571:	616972        	s32i	a7, a9, 0x184
3ffb0574:	656c62        	s32i	a6, a12, 0x194
3ffb0577:	736120        	maxu	a6, a1, a2
3ffb057a:	676973        	lsi	f7, a9, 0x19c
3ffb057d:	6e          	.byte 0x6e
3ffb057e:	656d      	lsi	f6, a5, 20
3ffb0580:	6e          	.byte 0x6e
3ffb0581:	000074        	lsi	f7, a0, 0
3ffb0584:	747942        	lsi	f4, a9, 0x1d0
3ffb0587:	662065        	call8	4001678c <_heap_end+0x3678c>
3ffb058a:	6569      	s32i.n	a6, a5, 24
3ffb058c:	646c      	movi.n	a4, -26
3ffb058e:	697320        	lsi	f2, a3, 0x1a4
3ffb0591:	706d      	lsi	f6, a0, 0
3ffb0593:	656c      	movi.n	a5, -26
3ffb0595:	726120        	lsi	f2, a1, 0x1c8
3ffb0598:	746974        	lsi	f7, a9, 0x1d0
3ffb059b:	6d68      	l32i.n	a6, a13, 24
3ffb059d:	697465        	call8	40019ce4 <_heap_end+0x39ce4>
3ffb05a0:	000063        	lsi	f6, a0, 0
3ffb05a3:	6f5400        	f64cmph	a5, a4, a0, 6
3ffb05a6:	794220        	lsi	f2, a2, 0x1e4
3ffb05a9:	206574        	lsi	f7, a5, 128
3ffb05ac:	727261        	l32r	a6, 3ff8cf74 <TIMG0_T0_WDTCONFIG0_REG+0x2df2c>
3ffb05af:	207961        	l32r	a6, 3ff78794 <TIMG0_T0_WDTCONFIG0_REG+0x1974c>
3ffb05b2:	746e65        	call8	40024c98 <_heap_end+0x44c98>
3ffb05b5:	207972        	lsi	f7, a9, 128
3ffb05b8:	737361        	l32r	a6, 3ff8d384 <TIMG0_T0_WDTCONFIG0_REG+0x2e33c>
3ffb05bb:	6769      	s32i.n	a6, a7, 24
3ffb05bd:	6e          	.byte 0x6e
3ffb05be:	656d      	lsi	f6, a5, 20
3ffb05c0:	6e          	.byte 0x6e
3ffb05c1:	000074        	lsi	f7, a0, 0
3ffb05c4:	747942        	lsi	f4, a9, 0x1d0
3ffb05c7:	612065        	call8	400117cc <_heap_end+0x317cc>
3ffb05ca:	617272        	lsi	f7, a2, 0x184
3ffb05cd:	2079      	s32i.n	a7, a0, 8
3ffb05cf:	6d6973        	lsi	f7, a9, 0x1b4
3ffb05d2:	656c70        	extui	a6, a7, 28, 7
3ffb05d5:	726120        	lsi	f2, a1, 0x1c8
3ffb05d8:	7469      	s32i.n	a6, a4, 28
3ffb05da:	6d68      	l32i.n	a6, a13, 24
3ffb05dc:	697465        	call8	40019d24 <_heap_end+0x39d24>
3ffb05df:	612063        	lsi	f6, a0, 0x184
3ffb05e2:	6e          	.byte 0x6e
3ffb05e3:	612064        	lsi	f6, a0, 0x184
3ffb05e6:	697373        	lsi	f7, a3, 0x1a4
3ffb05e9:	6d6e67        	bbci	a14, 6, 3ffb065a <_Byte_s_str+0x1de>
3ffb05ec:	746e65        	call8	40024cd4 <_heap_end+0x44cd4>
3ffb05ef:	794200        	lsi	f0, a2, 0x1e4
3ffb05f2:	206574        	lsi	f7, a5, 128
3ffb05f5:	727261        	l32r	a6, 3ff8cfc0 <TIMG0_T0_WDTCONFIG0_REG+0x2df78>
3ffb05f8:	207961        	l32r	a6, 3ff787dc <TIMG0_T0_WDTCONFIG0_REG+0x19794>
3ffb05fb:	746e65        	call8	40024ce0 <_heap_end+0x44ce0>
3ffb05fe:	207972        	lsi	f7, a9, 128
3ffb0601:	206f74        	lsi	f7, a15, 128
3ffb0604:	726176        	lsi	f7, a1, 0x1c8
3ffb0607:	6169      	s32i.n	a6, a1, 24
3ffb0609:	656c62        	s32i	a6, a12, 0x194
3ffb060c:	736120        	maxu	a6, a1, a2
3ffb060f:	676973        	lsi	f7, a9, 0x19c
3ffb0612:	6e          	.byte 0x6e
3ffb0613:	656d      	lsi	f6, a5, 20
3ffb0615:	6e          	.byte 0x6e
3ffb0616:	420074        	lsi	f7, a0, 0x108
3ffb0619:	7479      	s32i.n	a7, a4, 28
3ffb061b:	652065        	call8	40015820 <_heap_end+0x35820>
3ffb061e:	617571        	l32r	a7, 3ff88bf4 <TIMG0_T0_WDTCONFIG0_REG+0x29bac>
3ffb0621:	696c      	movi.n	a9, -26
3ffb0623:	007974        	lsi	f7, a9, 0
3ffb0626:	420000        	xorb	b0, b0, b0
3ffb0629:	7479      	s32i.n	a7, a4, 28
3ffb062b:	722065        	call8	40022830 <_heap_end+0x42830>
3ffb062e:	757465        	call8	40025d74 <_heap_end+0x45d74>
3ffb0631:	206e72        	s32i	a7, a14, 128
3ffb0634:	6c6176        	lsi	f7, a1, 0x1b0
3ffb0637:	006575        	call12	3ffb0c8c <_Test_s_str+0x10>
3ffb063a:	200000        	or	a0, a0, a0
3ffb063d:	545942        	s16i	a4, a9, 168
3ffb0640:	6f2045        	call0	4001f848 <_heap_end+0x3f848>
3ffb0643:	726570        	lsi	f7, a5, 0x1c8
3ffb0646:	697461        	l32r	a6, 3ff8ac18 <TIMG0_T0_WDTCONFIG0_REG+0x2bbd0>
3ffb0649:	6f          	.byte 0x6f
3ffb064a:	6e          	.byte 0x6e
3ffb064b:	203a73        	lsi	f7, a10, 128
3ffb064e:	420000        	xorb	b0, b0, b0
3ffb0651:	7479      	s32i.n	a7, a4, 28
3ffb0653:	702065        	call8	40020858 <_heap_end+0x40858>
3ffb0656:	617261        	l32r	a6, 3ff88c20 <TIMG0_T0_WDTCONFIG0_REG+0x29bd8>
3ffb0659:	656d      	lsi	f6, a5, 20
3ffb065b:	726574        	lsi	f7, a5, 0x1c8
3ffb065e:	6f7420        	f64cmph	a7, a4, a2, 6
3ffb0661:	6e6920        	f64rnd	a6, a9, a2, 2
3ffb0664:	676574        	lsi	f7, a5, 0x19c
3ffb0667:	207265        	call8	3ffd0d8c <_ebss+0x1b7fc>
3ffb066a:	746572        	s32i	a7, a5, 0x1d0
3ffb066d:	6e7275        	call12	4001ed94 <_heap_end+0x3ed94>
3ffb0670:	000000        	ill
3ffb0673:	6e4900        	f64rnd	a4, a9, a0, 2
3ffb0676:	676574        	lsi	f7, a5, 0x19c
3ffb0679:	207265        	call8	3ffd0da0 <_ebss+0x1b810>
3ffb067c:	206f74        	lsi	f7, a15, 128
3ffb067f:	747962        	lsi	f6, a9, 0x1d0
3ffb0682:	742065        	call8	40024888 <_heap_end+0x44888>
3ffb0685:	6e6172        	s32i	a7, a1, 0x1b8
3ffb0688:	6f6673        	lsi	f7, a6, 0x1bc
3ffb068b:	006d72        	s32i	a7, a13, 0
3ffb068e:	420000        	xorb	b0, b0, b0
3ffb0691:	7479      	s32i.n	a7, a4, 28
3ffb0693:	432065        	call8	3fff3898 <_heap_end+0x13898>
3ffb0696:	6f          	.byte 0x6f
3ffb0697:	6e          	.byte 0x6e
3ffb0698:	207473        	lsi	f7, a4, 128
3ffb069b:	737341        	l32r	a4, 3ff8d468 <TIMG0_T0_WDTCONFIG0_REG+0x2e420>
3ffb069e:	6769      	s32i.n	a6, a7, 24
3ffb06a0:	6e          	.byte 0x6e
3ffb06a1:	656d      	lsi	f6, a5, 20
3ffb06a3:	6e          	.byte 0x6e
3ffb06a4:	007374        	lsi	f7, a3, 0
3ffb06a7:	794200        	lsi	f0, a2, 0x1e4
3ffb06aa:	206574        	lsi	f7, a5, 128
3ffb06ad:	206f74        	lsi	f7, a15, 128
3ffb06b0:	6e69      	s32i.n	a6, a14, 24
3ffb06b2:	676574        	lsi	f7, a5, 0x19c
3ffb06b5:	207265        	call8	3ffd0ddc <_ebss+0x1b84c>
3ffb06b8:	746977        	bbci	a9, 7, 3ffb0730 <_Byte_s_str+0x2b4>
3ffb06bb:	2068      	l32i.n	a6, a0, 8
3ffb06bd:	697261        	l32r	a6, 3ff8ac88 <TIMG0_T0_WDTCONFIG0_REG+0x2bc40>
3ffb06c0:	6d6874        	lsi	f7, a8, 0x1b4
3ffb06c3:	697465        	call8	40019e08 <_heap_end+0x39e08>
3ffb06c6:	420063        	lsi	f6, a0, 0x108
3ffb06c9:	7479      	s32i.n	a7, a4, 28
3ffb06cb:	562065        	call8	400068d0 <_heap_end+0x268d0>
3ffb06ce:	697261        	l32r	a6, 3ff8ac98 <TIMG0_T0_WDTCONFIG0_REG+0x2bc50>
3ffb06d1:	6c6261        	l32r	a6, 3ff8b85c <TIMG0_T0_WDTCONFIG0_REG+0x2c814>
3ffb06d4:	612065        	call8	400118dc <_heap_end+0x318dc>
3ffb06d7:	697373        	lsi	f7, a3, 0x1a4
3ffb06da:	6d6e67        	bbci	a14, 6, 3ffb074b <_Byte_s_str+0x2cf>
3ffb06dd:	746e65        	call8	40024dc4 <_heap_end+0x44dc4>
3ffb06e0:	000000        	ill
3ffb06e3:	794200        	lsi	f0, a2, 0x1e4
3ffb06e6:	206574        	lsi	f7, a5, 128
3ffb06e9:	656966        	bnei	a9, 6, 3ffb0752 <_Byte_s_str+0x2d6>
3ffb06ec:	646c      	movi.n	a4, -26
3ffb06ee:	6f4320        	f64cmph	a4, a3, a2, 6
3ffb06f1:	6e          	.byte 0x6e
3ffb06f2:	207473        	lsi	f7, a4, 128
3ffb06f5:	737341        	l32r	a4, 3ff8d4c4 <TIMG0_T0_WDTCONFIG0_REG+0x2e47c>
3ffb06f8:	6769      	s32i.n	a6, a7, 24
3ffb06fa:	6e          	.byte 0x6e
3ffb06fb:	656d      	lsi	f6, a5, 20
3ffb06fd:	6e          	.byte 0x6e
3ffb06fe:	420074        	lsi	f7, a0, 0x108
3ffb0701:	7479      	s32i.n	a7, a4, 28
3ffb0703:	662065        	call8	40016908 <_heap_end+0x36908>
3ffb0706:	6569      	s32i.n	a6, a5, 24
3ffb0708:	646c      	movi.n	a4, -26
3ffb070a:	617620        	lsi	f2, a6, 0x184
3ffb070d:	616972        	s32i	a7, a9, 0x184
3ffb0710:	656c62        	s32i	a6, a12, 0x194
3ffb0713:	736120        	maxu	a6, a1, a2
3ffb0716:	676973        	lsi	f7, a9, 0x19c
3ffb0719:	6e          	.byte 0x6e
3ffb071a:	656d      	lsi	f6, a5, 20
3ffb071c:	6e          	.byte 0x6e
3ffb071d:	000074        	lsi	f7, a0, 0
3ffb0720:	747942        	lsi	f4, a9, 0x1d0
3ffb0723:	662065        	call8	40016928 <_heap_end+0x36928>
3ffb0726:	6569      	s32i.n	a6, a5, 24
3ffb0728:	646c      	movi.n	a4, -26
3ffb072a:	697320        	lsi	f2, a3, 0x1a4
3ffb072d:	706d      	lsi	f6, a0, 0
3ffb072f:	656c      	movi.n	a5, -26
3ffb0731:	726120        	lsi	f2, a1, 0x1c8
3ffb0734:	746974        	lsi	f7, a9, 0x1d0
3ffb0737:	6d68      	l32i.n	a6, a13, 24
3ffb0739:	697465        	call8	40019e80 <_heap_end+0x39e80>
3ffb073c:	000063        	lsi	f6, a0, 0
3ffb073f:	6f5400        	f64cmph	a5, a4, a0, 6
3ffb0742:	794220        	lsi	f2, a2, 0x1e4
3ffb0745:	206574        	lsi	f7, a5, 128
3ffb0748:	727261        	l32r	a6, 3ff8d110 <TIMG0_T0_WDTCONFIG0_REG+0x2e0c8>
3ffb074b:	207961        	l32r	a6, 3ff78930 <TIMG0_T0_WDTCONFIG0_REG+0x198e8>
3ffb074e:	746e65        	call8	40024e34 <_heap_end+0x44e34>
3ffb0751:	207972        	lsi	f7, a9, 128
3ffb0754:	737361        	l32r	a6, 3ff8d520 <TIMG0_T0_WDTCONFIG0_REG+0x2e4d8>
3ffb0757:	6769      	s32i.n	a6, a7, 24
3ffb0759:	6e          	.byte 0x6e
3ffb075a:	656d      	lsi	f6, a5, 20
3ffb075c:	6e          	.byte 0x6e
3ffb075d:	000074        	lsi	f7, a0, 0
3ffb0760:	747942        	lsi	f4, a9, 0x1d0
3ffb0763:	612065        	call8	40011968 <_heap_end+0x31968>
3ffb0766:	617272        	lsi	f7, a2, 0x184
3ffb0769:	2079      	s32i.n	a7, a0, 8
3ffb076b:	6d6973        	lsi	f7, a9, 0x1b4
3ffb076e:	656c70        	extui	a6, a7, 28, 7
3ffb0771:	726120        	lsi	f2, a1, 0x1c8
3ffb0774:	7469      	s32i.n	a6, a4, 28
3ffb0776:	6d68      	l32i.n	a6, a13, 24
3ffb0778:	697465        	call8	40019ec0 <_heap_end+0x39ec0>
3ffb077b:	612063        	lsi	f6, a0, 0x184
3ffb077e:	6e          	.byte 0x6e
3ffb077f:	612064        	lsi	f6, a0, 0x184
3ffb0782:	697373        	lsi	f7, a3, 0x1a4
3ffb0785:	6d6e67        	bbci	a14, 6, 3ffb07f6 <_DefFunc_s_str+0x16>
3ffb0788:	746e65        	call8	40024e70 <_heap_end+0x44e70>
3ffb078b:	794200        	lsi	f0, a2, 0x1e4
3ffb078e:	206574        	lsi	f7, a5, 128
3ffb0791:	727261        	l32r	a6, 3ff8d15c <TIMG0_T0_WDTCONFIG0_REG+0x2e114>
3ffb0794:	207961        	l32r	a6, 3ff78978 <TIMG0_T0_WDTCONFIG0_REG+0x19930>
3ffb0797:	746e65        	call8	40024e7c <_heap_end+0x44e7c>
3ffb079a:	207972        	lsi	f7, a9, 128
3ffb079d:	206f74        	lsi	f7, a15, 128
3ffb07a0:	726176        	lsi	f7, a1, 0x1c8
3ffb07a3:	6169      	s32i.n	a6, a1, 24
3ffb07a5:	656c62        	s32i	a6, a12, 0x194
3ffb07a8:	736120        	maxu	a6, a1, a2
3ffb07ab:	676973        	lsi	f7, a9, 0x19c
3ffb07ae:	6e          	.byte 0x6e
3ffb07af:	656d      	lsi	f6, a5, 20
3ffb07b1:	6e          	.byte 0x6e
3ffb07b2:	420074        	lsi	f7, a0, 0x108
3ffb07b5:	7479      	s32i.n	a7, a4, 28
3ffb07b7:	652065        	call8	400159bc <_heap_end+0x359bc>
3ffb07ba:	617571        	l32r	a7, 3ff88d90 <TIMG0_T0_WDTCONFIG0_REG+0x29d48>
3ffb07bd:	696c      	movi.n	a9, -26
3ffb07bf:	007974        	lsi	f7, a9, 0
3ffb07c2:	420000        	xorb	b0, b0, b0
3ffb07c5:	7479      	s32i.n	a7, a4, 28
3ffb07c7:	722065        	call8	400229cc <_heap_end+0x429cc>
3ffb07ca:	757465        	call8	40025f10 <_heap_end+0x45f10>
3ffb07cd:	206e72        	s32i	a7, a14, 128
3ffb07d0:	6c6176        	lsi	f7, a1, 0x1b0
3ffb07d3:	006575        	call12	3ffb0e28 <_ArrayAssignments_B5C88A88_s_bss+0x54>
3ffb07d6:	200000        	or	a0, a0, a0
3ffb07d9:	646e45        	call0	40014ec0 <_heap_end+0x34ec0>
3ffb07dc:	000000        	ill
	...

3ffb07e0 <_DefFunc_s_str>:
3ffb07e0:	666544        	lsi	f4, a5, 0x198
3ffb07e3:	6e69      	s32i.n	a6, a14, 24
3ffb07e5:	206465        	call8	3ffd0e2c <_ebss+0x1b89c>
3ffb07e8:	6e7546        	j	3ffcc1c1 <_ebss+0x16c31>
3ffb07eb:	697463        	lsi	f6, a4, 0x1a4
3ffb07ee:	6f          	.byte 0x6f
3ffb07ef:	6e          	.byte 0x6e
3ffb07f0:	203a73        	lsi	f7, a10, 128
3ffb07f3:	6e4900        	f64rnd	a4, a9, a0, 2
3ffb07f6:	676574        	lsi	f7, a5, 0x19c
3ffb07f9:	207265        	call8	3ffd0f20 <_ebss+0x1b990>
3ffb07fc:	534241        	l32r	a4, 3ff85504 <TIMG0_T0_WDTCONFIG0_REG+0x264bc>
3ffb07ff:	6b28      	l32i.n	a2, a11, 24
3ffb0801:	0029      	s32i.n	a2, a0, 0
3ffb0803:	6e4900        	f64rnd	a4, a9, a0, 2
3ffb0806:	676574        	lsi	f7, a5, 0x19c
3ffb0809:	207265        	call8	3ffd0f30 <_ebss+0x1b9a0>
3ffb080c:	534241        	l32r	a4, 3ff85514 <TIMG0_T0_WDTCONFIG0_REG+0x264cc>
3ffb080f:	7628      	l32i.n	a2, a6, 28
3ffb0811:	0029      	s32i.n	a2, a0, 0
3ffb0813:	655200        	extui	a5, a0, 18, 7
3ffb0816:	206c61        	l32r	a6, 3ff789c8 <TIMG0_T0_WDTCONFIG0_REG+0x19980>
3ffb0819:	534241        	l32r	a4, 3ff85524 <TIMG0_T0_WDTCONFIG0_REG+0x264dc>
3ffb081c:	6b28      	l32i.n	a2, a11, 24
3ffb081e:	0029      	s32i.n	a2, a0, 0
3ffb0820:	616552        	s32i	a5, a5, 0x184
3ffb0823:	206c      	movi.n	a0, -30
3ffb0825:	534241        	l32r	a4, 3ff85530 <TIMG0_T0_WDTCONFIG0_REG+0x264e8>
3ffb0828:	7628      	l32i.n	a2, a6, 28
3ffb082a:	0029      	s32i.n	a2, a0, 0
3ffb082c:	4f          	.byte 0x4f
3ffb082d:	284444        	lsi	f4, a4, 160
3ffb0830:	002976        	lsi	f7, a9, 0
3ffb0833:	444f00        	extui	a4, a0, 15, 5
3ffb0836:	6b2844        	lsi	f4, a8, 0x1ac
3ffb0839:	0029      	s32i.n	a2, a0, 0
3ffb083b:	454c00        	extui	a4, a0, 28, 5
3ffb083e:	4e          	.byte 0x4e
3ffb083f:	6128      	l32i.n	a2, a1, 24
3ffb0841:	617272        	lsi	f7, a2, 0x184
3ffb0844:	2979      	s32i.n	a7, a9, 8
3ffb0846:	4c0000        	lsi	f0, a0, 0x130
3ffb0849:	284e45        	call0	3ffd8d30 <_ebss+0x237a0>
3ffb084c:	726170        	lsi	f7, a1, 0x1c8
3ffb084f:	206d61        	l32r	a6, 3ff78a04 <TIMG0_T0_WDTCONFIG0_REG+0x199bc>
3ffb0852:	727261        	l32r	a6, 3ff8d21c <TIMG0_T0_WDTCONFIG0_REG+0x2e1d4>
3ffb0855:	297961        	l32r	a6, 3ff7ae3c <TIMG0_T0_WDTCONFIG0_REG+0x1bdf4>
3ffb0858:	000000        	ill
3ffb085b:	534c00        	max	a4, a12, a0
3ffb085e:	284c      	movi.n	a8, 66
3ffb0860:	2c6b      	addi.n	a2, a12, 6
3ffb0862:	296b20        	lsi	f2, a11, 164
3ffb0865:	000000        	ill
3ffb0868:	525341        	l32r	a4, 3ff851b4 <TIMG0_T0_WDTCONFIG0_REG+0x2616c>
3ffb086b:	2d28      	l32i.n	a2, a13, 8
3ffb086d:	2c6b      	addi.n	a2, a12, 6
3ffb086f:	296b20        	lsi	f2, a11, 164
3ffb0872:	520000        	lsi	f0, a0, 0x148
3ffb0875:	4f          	.byte 0x4f
3ffb0876:	6b2852        	l32i	a5, a8, 0x1ac
3ffb0879:	202c      	movi.n	a0, 34
3ffb087b:	006b      	addi.n	a0, a0, 6
3ffb087d:	000000        	ill
3ffb0880:	4f4c46        	j	3ffc45b5 <_ebss+0xf025>
3ffb0883:	4f          	.byte 0x4f
3ffb0884:	6b2852        	l32i	a5, a8, 0x1ac
3ffb0887:	0029      	s32i.n	a2, a0, 0
3ffb0889:	000000        	ill
3ffb088c:	544c46        	j	3ffc59c1 <_ebss+0x10431>
3ffb088f:	6b28      	l32i.n	a2, a11, 24
3ffb0891:	0029      	s32i.n	a2, a0, 0
3ffb0893:	524f00        	lsi	f0, a15, 0x148
3ffb0896:	632844        	lsi	f4, a8, 0x18c
3ffb0899:	0029      	s32i.n	a2, a0, 0
3ffb089b:	524f00        	lsi	f0, a15, 0x148
3ffb089e:	622844        	lsi	f4, a8, 0x188
3ffb08a1:	6f          	.byte 0x6f
3ffb08a2:	6f          	.byte 0x6f
3ffb08a3:	296c      	movi.n	a9, -30
3ffb08a5:	000000        	ill
3ffb08a8:	4f          	.byte 0x4f
3ffb08a9:	284452        	s8i	a5, a4, 40
3ffb08ac:	746573        	lsi	f7, a5, 0x1d0
3ffb08af:	0029      	s32i.n	a2, a0, 0
3ffb08b1:	000000        	ill
3ffb08b4:	524843        	ssi	f4, a8, 0x148
3ffb08b7:	6b28      	l32i.n	a2, a11, 24
3ffb08b9:	0029      	s32i.n	a2, a0, 0
3ffb08bb:	4e4900        	f64rnd	a4, a9, a0, 0
3ffb08be:	762843        	lsi	f4, a8, 0x1d8
3ffb08c1:	0029      	s32i.n	a2, a0, 0
3ffb08c3:	4e4900        	f64rnd	a4, a9, a0, 0
3ffb08c6:	762843        	lsi	f4, a8, 0x1d8
3ffb08c9:	202c      	movi.n	a0, 34
3ffb08cb:	296b      	addi.n	a2, a9, 6
3ffb08cd:	000000        	ill
3ffb08d0:	434544        	lsi	f4, a5, 0x10c
3ffb08d3:	7628      	l32i.n	a2, a6, 28
3ffb08d5:	0029      	s32i.n	a2, a0, 0
3ffb08d7:	454400        	extui	a4, a0, 20, 5
3ffb08da:	762843        	lsi	f4, a8, 0x1d8
3ffb08dd:	202c      	movi.n	a0, 34
3ffb08df:	296b      	addi.n	a2, a9, 6
3ffb08e1:	000000        	ill
3ffb08e4:	4e49      	s32i.n	a4, a14, 16
3ffb08e6:	284c43        	ssi	f4, a12, 160
3ffb08e9:	202c76        	lsi	f7, a12, 128
3ffb08ec:	296b      	addi.n	a2, a9, 6
3ffb08ee:	450000        	extui	a0, a0, 16, 5
3ffb08f1:	4358      	l32i.n	a5, a3, 16
3ffb08f3:	284c      	movi.n	a8, 66
3ffb08f5:	202c76        	lsi	f7, a12, 128
3ffb08f8:	296b      	addi.n	a2, a9, 6
3ffb08fa:	490000        	s32e	a0, a0, -64
3ffb08fd:	4e          	.byte 0x4e
3ffb08fe:	284c43        	ssi	f4, a12, 160
3ffb0901:	202c76        	lsi	f7, a12, 128
3ffb0904:	002976        	lsi	f7, a9, 0
3ffb0907:	584500        	ssxp	f4, a5, a0
3ffb090a:	284c43        	ssi	f4, a12, 160
3ffb090d:	202c76        	lsi	f7, a12, 128
3ffb0910:	002976        	lsi	f7, a9, 0
3ffb0913:	4f4e00        	f64cmph	a4, a14, a0, 4
3ffb0916:	6b2854        	lsi	f5, a8, 0x1ac
3ffb0919:	0029      	s32i.n	a2, a0, 0
3ffb091b:	4e4100        	f64rnd	a4, a1, a0, 0
3ffb091e:	6b2844        	lsi	f4, a8, 0x1ac
3ffb0921:	6b2c      	movi.n	a11, 38
3ffb0923:	0029      	s32i.n	a2, a0, 0
3ffb0925:	000000        	ill
3ffb0928:	524f42        	s8i	a4, a15, 82
3ffb092b:	6b28      	l32i.n	a2, a11, 24
3ffb092d:	6b2c      	movi.n	a11, 38
3ffb092f:	0029      	s32i.n	a2, a0, 0
3ffb0931:	000000        	ill
3ffb0934:	4f58      	l32i.n	a5, a15, 16
3ffb0936:	6b2852        	l32i	a5, a8, 0x1ac
3ffb0939:	6b2c      	movi.n	a11, 38
3ffb093b:	0029      	s32i.n	a2, a0, 0
3ffb093d:	000000        	ill
3ffb0940:	494d      	lsi	f4, a9, 36
3ffb0942:	4e          	.byte 0x4e
3ffb0943:	6b28      	l32i.n	a2, a11, 24
3ffb0945:	6b2c      	movi.n	a11, 38
3ffb0947:	0029      	s32i.n	a2, a0, 0
3ffb0949:	000000        	ill
3ffb094c:	414d      	lsi	f4, a1, 4
3ffb094e:	2858      	l32i.n	a5, a8, 8
3ffb0950:	2c6b      	addi.n	a2, a12, 6
3ffb0952:	296b      	addi.n	a2, a9, 6
3ffb0954:	000000        	ill
3ffb0957:	494d00        	s32e	a0, a13, -48
3ffb095a:	4e          	.byte 0x4e
3ffb095b:	7228      	l32i.n	a2, a2, 28
3ffb095d:	722c      	movi.n	a2, 39
3ffb095f:	0029      	s32i.n	a2, a0, 0
3ffb0961:	000000        	ill
3ffb0964:	414d      	lsi	f4, a1, 4
3ffb0966:	2858      	l32i.n	a5, a8, 8
3ffb0968:	722c72        	l32i	a7, a12, 0x1c8
3ffb096b:	0029      	s32i.n	a2, a0, 0
3ffb096d:	000000        	ill
3ffb0970:	525153        	lsi	f5, a1, 0x148
3ffb0973:	722854        	lsi	f5, a8, 0x1c8
3ffb0976:	0029      	s32i.n	a2, a0, 0
3ffb0978:	6e4520        	f64rnd	a4, a5, a2, 2
3ffb097b:	000064        	lsi	f6, a0, 0
	...

3ffb0980 <_SimpleReal_s_str>:
3ffb0980:	6d6953        	lsi	f5, a9, 0x1b4
3ffb0983:	656c70        	extui	a6, a7, 28, 7
3ffb0986:	616552        	s32i	a5, a5, 0x184
3ffb0989:	3a6c      	movi.n	a10, -29
3ffb098b:	000020        	lsi	f2, a0, 0
3ffb098e:	520000        	lsi	f0, a0, 0x148
3ffb0991:	6c6165        	call8	4001cfa8 <_heap_end+0x3cfa8>
3ffb0994:	206b20        	or	a6, a11, a2
3ffb0997:	202b      	addi.n	a2, a0, 2
3ffb0999:	006b      	addi.n	a0, a0, 6
3ffb099b:	655200        	extui	a5, a0, 18, 7
3ffb099e:	206c61        	l32r	a6, 3ff78b50 <TIMG0_T0_WDTCONFIG0_REG+0x19b08>
3ffb09a1:	206b      	addi.n	a2, a0, 6
3ffb09a3:	202b      	addi.n	a2, a0, 2
3ffb09a5:	000076        	bf	b0, 3ffb09a9 <_SimpleReal_s_str+0x29>
3ffb09a8:	616552        	s32i	a5, a5, 0x184
3ffb09ab:	206c      	movi.n	a0, -30
3ffb09ad:	2b2076        	lsi	f7, a0, 172
3ffb09b0:	006b20        	rsil	a2, 11
3ffb09b3:	655200        	extui	a5, a0, 18, 7
3ffb09b6:	206c61        	l32r	a6, 3ff78b68 <TIMG0_T0_WDTCONFIG0_REG+0x19b20>
3ffb09b9:	206b      	addi.n	a2, a0, 6
3ffb09bb:	202d      	lsi	f2, a0, 0
3ffb09bd:	006b      	addi.n	a0, a0, 6
3ffb09bf:	655200        	extui	a5, a0, 18, 7
3ffb09c2:	206c61        	l32r	a6, 3ff78b74 <TIMG0_T0_WDTCONFIG0_REG+0x19b2c>
3ffb09c5:	206b      	addi.n	a2, a0, 6
3ffb09c7:	202d      	lsi	f2, a0, 0
3ffb09c9:	000076        	bf	b0, 3ffb09cd <_SimpleReal_s_str+0x4d>
3ffb09cc:	616552        	s32i	a5, a5, 0x184
3ffb09cf:	206c      	movi.n	a0, -30
3ffb09d1:	2d2076        	lsi	f7, a0, 180
3ffb09d4:	006b20        	rsil	a2, 11
3ffb09d7:	655200        	extui	a5, a0, 18, 7
3ffb09da:	206c61        	l32r	a6, 3ff78b8c <TIMG0_T0_WDTCONFIG0_REG+0x19b44>
3ffb09dd:	206b      	addi.n	a2, a0, 6
3ffb09df:	202a      	add.n	a2, a0, a2
3ffb09e1:	006b      	addi.n	a0, a0, 6
3ffb09e3:	655200        	extui	a5, a0, 18, 7
3ffb09e6:	206c61        	l32r	a6, 3ff78b98 <TIMG0_T0_WDTCONFIG0_REG+0x19b50>
3ffb09e9:	206b      	addi.n	a2, a0, 6
3ffb09eb:	202a      	add.n	a2, a0, a2
3ffb09ed:	000076        	bf	b0, 3ffb09f1 <_SimpleReal_s_str+0x71>
3ffb09f0:	616552        	s32i	a5, a5, 0x184
3ffb09f3:	206c      	movi.n	a0, -30
3ffb09f5:	2a2076        	lsi	f7, a0, 168
3ffb09f8:	006b20        	rsil	a2, 11
3ffb09fb:	655200        	extui	a5, a0, 18, 7
3ffb09fe:	206c61        	l32r	a6, 3ff78bb0 <TIMG0_T0_WDTCONFIG0_REG+0x19b68>
3ffb0a01:	206b      	addi.n	a2, a0, 6
3ffb0a03:	2f          	.byte 0x2f
3ffb0a04:	006b20        	rsil	a2, 11
3ffb0a07:	655200        	extui	a5, a0, 18, 7
3ffb0a0a:	206c61        	l32r	a6, 3ff78bbc <TIMG0_T0_WDTCONFIG0_REG+0x19b74>
3ffb0a0d:	206b      	addi.n	a2, a0, 6
3ffb0a0f:	2f          	.byte 0x2f
3ffb0a10:	007620        	lsi	f2, a6, 0
3ffb0a13:	655200        	extui	a5, a0, 18, 7
3ffb0a16:	206c61        	l32r	a6, 3ff78bc8 <TIMG0_T0_WDTCONFIG0_REG+0x19b80>
3ffb0a19:	2f2076        	lsi	f7, a0, 188
3ffb0a1c:	006b20        	rsil	a2, 11
3ffb0a1f:	452000        	extui	a2, a0, 16, 5
3ffb0a22:	6e          	.byte 0x6e
3ffb0a23:	000064        	lsi	f6, a0, 0
	...

3ffb0a28 <_SimpleMath_s_str>:
3ffb0a28:	6d6953        	lsi	f5, a9, 0x1b4
3ffb0a2b:	656c70        	extui	a6, a7, 28, 7
3ffb0a2e:	614d      	lsi	f4, a1, 4
3ffb0a30:	3a6874        	lsi	f7, a8, 232
3ffb0a33:	000020        	lsi	f2, a0, 0
3ffb0a36:	490000        	s32e	a0, a0, -64
3ffb0a39:	6e          	.byte 0x6e
3ffb0a3a:	676574        	lsi	f7, a5, 0x19c
3ffb0a3d:	207265        	call8	3ffd1164 <_ebss+0x1bbd4>
3ffb0a40:	206b      	addi.n	a2, a0, 6
3ffb0a42:	202b      	addi.n	a2, a0, 2
3ffb0a44:	006b      	addi.n	a0, a0, 6
3ffb0a46:	490000        	s32e	a0, a0, -64
3ffb0a49:	6e          	.byte 0x6e
3ffb0a4a:	676574        	lsi	f7, a5, 0x19c
3ffb0a4d:	207265        	call8	3ffd1174 <_ebss+0x1bbe4>
3ffb0a50:	206b      	addi.n	a2, a0, 6
3ffb0a52:	202b      	addi.n	a2, a0, 2
3ffb0a54:	000076        	bf	b0, 3ffb0a58 <_SimpleMath_s_str+0x30>
3ffb0a57:	6e4900        	f64rnd	a4, a9, a0, 2
3ffb0a5a:	676574        	lsi	f7, a5, 0x19c
3ffb0a5d:	207265        	call8	3ffd1184 <_ebss+0x1bbf4>
3ffb0a60:	2b2076        	lsi	f7, a0, 172
3ffb0a63:	006b20        	rsil	a2, 11
3ffb0a66:	490000        	s32e	a0, a0, -64
3ffb0a69:	6e          	.byte 0x6e
3ffb0a6a:	676574        	lsi	f7, a5, 0x19c
3ffb0a6d:	207265        	call8	3ffd1194 <_ebss+0x1bc04>
3ffb0a70:	206b      	addi.n	a2, a0, 6
3ffb0a72:	202d      	lsi	f2, a0, 0
3ffb0a74:	006b      	addi.n	a0, a0, 6
3ffb0a76:	490000        	s32e	a0, a0, -64
3ffb0a79:	6e          	.byte 0x6e
3ffb0a7a:	676574        	lsi	f7, a5, 0x19c
3ffb0a7d:	207265        	call8	3ffd11a4 <_ebss+0x1bc14>
3ffb0a80:	206b      	addi.n	a2, a0, 6
3ffb0a82:	202d      	lsi	f2, a0, 0
3ffb0a84:	000076        	bf	b0, 3ffb0a88 <_SimpleMath_s_str+0x60>
3ffb0a87:	6e4900        	f64rnd	a4, a9, a0, 2
3ffb0a8a:	676574        	lsi	f7, a5, 0x19c
3ffb0a8d:	207265        	call8	3ffd11b4 <_ebss+0x1bc24>
3ffb0a90:	2d2076        	lsi	f7, a0, 180
3ffb0a93:	006b20        	rsil	a2, 11
3ffb0a96:	490000        	s32e	a0, a0, -64
3ffb0a99:	6e          	.byte 0x6e
3ffb0a9a:	676574        	lsi	f7, a5, 0x19c
3ffb0a9d:	207265        	call8	3ffd11c4 <_ebss+0x1bc34>
3ffb0aa0:	206b      	addi.n	a2, a0, 6
3ffb0aa2:	202a      	add.n	a2, a0, a2
3ffb0aa4:	006b      	addi.n	a0, a0, 6
3ffb0aa6:	490000        	s32e	a0, a0, -64
3ffb0aa9:	6e          	.byte 0x6e
3ffb0aaa:	676574        	lsi	f7, a5, 0x19c
3ffb0aad:	207265        	call8	3ffd11d4 <_ebss+0x1bc44>
3ffb0ab0:	206b      	addi.n	a2, a0, 6
3ffb0ab2:	202a      	add.n	a2, a0, a2
3ffb0ab4:	000076        	bf	b0, 3ffb0ab8 <_SimpleMath_s_str+0x90>
3ffb0ab7:	6e4900        	f64rnd	a4, a9, a0, 2
3ffb0aba:	676574        	lsi	f7, a5, 0x19c
3ffb0abd:	207265        	call8	3ffd11e4 <_ebss+0x1bc54>
3ffb0ac0:	2a2076        	lsi	f7, a0, 168
3ffb0ac3:	006b20        	rsil	a2, 11
3ffb0ac6:	490000        	s32e	a0, a0, -64
3ffb0ac9:	6e          	.byte 0x6e
3ffb0aca:	676574        	lsi	f7, a5, 0x19c
3ffb0acd:	207265        	call8	3ffd11f4 <_ebss+0x1bc64>
3ffb0ad0:	206b      	addi.n	a2, a0, 6
3ffb0ad2:	564944        	lsi	f4, a9, 0x158
3ffb0ad5:	006b20        	rsil	a2, 11
3ffb0ad8:	6e49      	s32i.n	a4, a14, 24
3ffb0ada:	676574        	lsi	f7, a5, 0x19c
3ffb0add:	207265        	call8	3ffd1204 <_ebss+0x1bc74>
3ffb0ae0:	206b      	addi.n	a2, a0, 6
3ffb0ae2:	564944        	lsi	f4, a9, 0x158
3ffb0ae5:	007620        	lsi	f2, a6, 0
3ffb0ae8:	6e49      	s32i.n	a4, a14, 24
3ffb0aea:	676574        	lsi	f7, a5, 0x19c
3ffb0aed:	207265        	call8	3ffd1214 <_ebss+0x1bc84>
3ffb0af0:	442076        	lsi	f7, a0, 0x110
3ffb0af3:	5649      	s32i.n	a4, a6, 20
3ffb0af5:	006b20        	rsil	a2, 11
3ffb0af8:	6e49      	s32i.n	a4, a14, 24
3ffb0afa:	676574        	lsi	f7, a5, 0x19c
3ffb0afd:	207265        	call8	3ffd1224 <_ebss+0x1bc94>
3ffb0b00:	206b      	addi.n	a2, a0, 6
3ffb0b02:	4f4d      	lsi	f4, a15, 60
3ffb0b04:	6b2044        	lsi	f4, a0, 0x1ac
3ffb0b07:	6e4900        	f64rnd	a4, a9, a0, 2
3ffb0b0a:	676574        	lsi	f7, a5, 0x19c
3ffb0b0d:	207265        	call8	3ffd1234 <_ebss+0x1bca4>
3ffb0b10:	206b      	addi.n	a2, a0, 6
3ffb0b12:	4f4d      	lsi	f4, a15, 60
3ffb0b14:	762044        	lsi	f4, a0, 0x1d8
3ffb0b17:	6e4900        	f64rnd	a4, a9, a0, 2
3ffb0b1a:	676574        	lsi	f7, a5, 0x19c
3ffb0b1d:	207265        	call8	3ffd1244 <_ebss+0x1bcb4>
3ffb0b20:	4d2076        	lsi	f7, a0, 0x134
3ffb0b23:	4f          	.byte 0x4f
3ffb0b24:	006b20        	rsil	a2, 11
3ffb0b27:	452000        	extui	a2, a0, 16, 5
3ffb0b2a:	6e          	.byte 0x6e
3ffb0b2b:	000064        	lsi	f6, a0, 0
	...

3ffb0b30 <_Assignments_s_str>:
3ffb0b30:	737341        	l32r	a4, 3ff8d8fc <TIMG0_T0_WDTCONFIG0_REG+0x2e8b4>
3ffb0b33:	6769      	s32i.n	a6, a7, 24
3ffb0b35:	6e          	.byte 0x6e
3ffb0b36:	656d      	lsi	f6, a5, 20
3ffb0b38:	6e          	.byte 0x6e
3ffb0b39:	3a7374        	lsi	f7, a3, 232
3ffb0b3c:	000020        	lsi	f2, a0, 0
3ffb0b3f:	685400        	lsi	f0, a4, 0x1a0
3ffb0b42:	7369      	s32i.n	a6, a3, 28
3ffb0b44:	736920        	maxu	a6, a9, a2
3ffb0b47:	206120        	or	a6, a1, a2
3ffb0b4a:	736574        	lsi	f7, a5, 0x1cc
3ffb0b4d:	000074        	lsi	f7, a0, 0
3ffb0b50:	6e49      	s32i.n	a4, a14, 24
3ffb0b52:	676574        	lsi	f7, a5, 0x19c
3ffb0b55:	207265        	call8	3ffd127c <_ebss+0x1bcec>
3ffb0b58:	737341        	l32r	a4, 3ff8d924 <TIMG0_T0_WDTCONFIG0_REG+0x2e8dc>
3ffb0b5b:	6769      	s32i.n	a6, a7, 24
3ffb0b5d:	6e          	.byte 0x6e
3ffb0b5e:	656d      	lsi	f6, a5, 20
3ffb0b60:	6e          	.byte 0x6e
3ffb0b61:	000074        	lsi	f7, a0, 0
3ffb0b64:	616552        	s32i	a5, a5, 0x184
3ffb0b67:	206c      	movi.n	a0, -30
3ffb0b69:	737341        	l32r	a4, 3ff8d938 <TIMG0_T0_WDTCONFIG0_REG+0x2e8f0>
3ffb0b6c:	6769      	s32i.n	a6, a7, 24
3ffb0b6e:	6e          	.byte 0x6e
3ffb0b6f:	656d      	lsi	f6, a5, 20
3ffb0b71:	6e          	.byte 0x6e
3ffb0b72:	530074        	lsi	f7, a0, 0x14c
3ffb0b75:	207465        	call8	3ffd12bc <_ebss+0x1bd2c>
3ffb0b78:	737341        	l32r	a4, 3ff8d944 <TIMG0_T0_WDTCONFIG0_REG+0x2e8fc>
3ffb0b7b:	6769      	s32i.n	a6, a7, 24
3ffb0b7d:	6e          	.byte 0x6e
3ffb0b7e:	656d      	lsi	f6, a5, 20
3ffb0b80:	6e          	.byte 0x6e
3ffb0b81:	000074        	lsi	f7, a0, 0
3ffb0b84:	727241        	l32r	a4, 3ff8d54c <TIMG0_T0_WDTCONFIG0_REG+0x2e504>
3ffb0b87:	207961        	l32r	a6, 3ff78d6c <TIMG0_T0_WDTCONFIG0_REG+0x19d24>
3ffb0b8a:	737341        	l32r	a4, 3ff8d958 <TIMG0_T0_WDTCONFIG0_REG+0x2e910>
3ffb0b8d:	6769      	s32i.n	a6, a7, 24
3ffb0b8f:	6e          	.byte 0x6e
3ffb0b90:	656d      	lsi	f6, a5, 20
3ffb0b92:	6e          	.byte 0x6e
3ffb0b93:	000074        	lsi	f7, a0, 0
3ffb0b96:	540000        	extui	a0, a0, 0, 6
3ffb0b99:	6968      	l32i.n	a6, a9, 24
3ffb0b9b:	692073        	lsi	f7, a0, 0x1a4
3ffb0b9e:	612073        	lsi	f7, a0, 0x184
3ffb0ba1:	657420        	extui	a7, a2, 20, 7
3ffb0ba4:	007473        	lsi	f7, a4, 0
3ffb0ba7:	745300        	extui	a5, a0, 3, 8
3ffb0baa:	6e6972        	s32i	a7, a9, 0x1b8
3ffb0bad:	412067        	blt	a0, a6, 3ffb0bf2 <_Assignments_s_str+0xc2>
3ffb0bb0:	697373        	lsi	f7, a3, 0x1a4
3ffb0bb3:	6d6e67        	bbci	a14, 6, 3ffb0c24 <_Assignments_s_str+0xf4>
3ffb0bb6:	746e65        	call8	4002529c <_heap_end+0x4529c>
3ffb0bb9:	000000        	ill
3ffb0bbc:	6f6f42        	s32i	a4, a15, 0x1bc
3ffb0bbf:	656c      	movi.n	a5, -26
3ffb0bc1:	206e61        	l32r	a6, 3ff78d7c <TIMG0_T0_WDTCONFIG0_REG+0x19d34>
3ffb0bc4:	737361        	l32r	a6, 3ff8d990 <TIMG0_T0_WDTCONFIG0_REG+0x2e948>
3ffb0bc7:	6769      	s32i.n	a6, a7, 24
3ffb0bc9:	6e          	.byte 0x6e
3ffb0bca:	656d      	lsi	f6, a5, 20
3ffb0bcc:	6e          	.byte 0x6e
3ffb0bcd:	000074        	lsi	f7, a0, 0
3ffb0bd0:	6f6f42        	s32i	a4, a15, 0x1bc
3ffb0bd3:	656c      	movi.n	a5, -26
3ffb0bd5:	206e61        	l32r	a6, 3ff78d90 <TIMG0_T0_WDTCONFIG0_REG+0x19d48>
3ffb0bd8:	6c6146        	j	3ffcbd61 <_ebss+0x167d1>
3ffb0bdb:	206573        	lsi	f7, a5, 128
3ffb0bde:	737361        	l32r	a6, 3ff8d9ac <TIMG0_T0_WDTCONFIG0_REG+0x2e964>
3ffb0be1:	6769      	s32i.n	a6, a7, 24
3ffb0be3:	6e          	.byte 0x6e
3ffb0be4:	656d      	lsi	f6, a5, 20
3ffb0be6:	6e          	.byte 0x6e
3ffb0be7:	000074        	lsi	f7, a0, 0
3ffb0bea:	4d0000        	lsi	f0, a0, 0x134
3ffb0bed:	6f6d65        	call8	400202c4 <_heap_end+0x402c4>
3ffb0bf0:	207972        	lsi	f7, a9, 128
3ffb0bf3:	6e69      	s32i.n	a6, a14, 24
3ffb0bf5:	7469      	s32i.n	a6, a4, 28
3ffb0bf7:	6169      	s32i.n	a6, a1, 24
3ffb0bf9:	696c      	movi.n	a9, -26
3ffb0bfb:	617a      	add.n	a6, a1, a7
3ffb0bfd:	6f6974        	lsi	f7, a9, 0x1bc
3ffb0c00:	6e          	.byte 0x6e
3ffb0c01:	000000        	ill
3ffb0c04:	636552        	s32i	a5, a5, 0x18c
3ffb0c07:	6f          	.byte 0x6f
3ffb0c08:	206472        	s32i	a7, a4, 128
3ffb0c0b:	6e69      	s32i.n	a6, a14, 24
3ffb0c0d:	676574        	lsi	f7, a5, 0x19c
3ffb0c10:	207265        	call8	3ffd1338 <_ebss+0x1bda8>
3ffb0c13:	737361        	l32r	a6, 3ff8d9e0 <TIMG0_T0_WDTCONFIG0_REG+0x2e998>
3ffb0c16:	6769      	s32i.n	a6, a7, 24
3ffb0c18:	6e          	.byte 0x6e
3ffb0c19:	656d      	lsi	f6, a5, 20
3ffb0c1b:	6e          	.byte 0x6e
3ffb0c1c:	000074        	lsi	f7, a0, 0
3ffb0c1f:	655200        	extui	a5, a0, 18, 7
3ffb0c22:	726f63        	lsi	f6, a15, 0x1c8
3ffb0c25:	622064        	lsi	f6, a0, 0x188
3ffb0c28:	6f          	.byte 0x6f
3ffb0c29:	6f          	.byte 0x6f
3ffb0c2a:	656c      	movi.n	a5, -26
3ffb0c2c:	206e61        	l32r	a6, 3ff78de4 <TIMG0_T0_WDTCONFIG0_REG+0x19d9c>
3ffb0c2f:	737361        	l32r	a6, 3ff8d9fc <TIMG0_T0_WDTCONFIG0_REG+0x2e9b4>
3ffb0c32:	6769      	s32i.n	a6, a7, 24
3ffb0c34:	6e          	.byte 0x6e
3ffb0c35:	656d      	lsi	f6, a5, 20
3ffb0c37:	6e          	.byte 0x6e
3ffb0c38:	000074        	lsi	f7, a0, 0
3ffb0c3b:	655200        	extui	a5, a0, 18, 7
3ffb0c3e:	726f63        	lsi	f6, a15, 0x1c8
3ffb0c41:	622064        	lsi	f6, a0, 0x188
3ffb0c44:	6f          	.byte 0x6f
3ffb0c45:	6f          	.byte 0x6f
3ffb0c46:	656c      	movi.n	a5, -26
3ffb0c48:	206e61        	l32r	a6, 3ff78e00 <TIMG0_T0_WDTCONFIG0_REG+0x19db8>
3ffb0c4b:	737361        	l32r	a6, 3ff8da18 <TIMG0_T0_WDTCONFIG0_REG+0x2e9d0>
3ffb0c4e:	6769      	s32i.n	a6, a7, 24
3ffb0c50:	6e          	.byte 0x6e
3ffb0c51:	656d      	lsi	f6, a5, 20
3ffb0c53:	6e          	.byte 0x6e
3ffb0c54:	000074        	lsi	f7, a0, 0
3ffb0c57:	655200        	extui	a5, a0, 18, 7
3ffb0c5a:	726f63        	lsi	f6, a15, 0x1c8
3ffb0c5d:	622064        	lsi	f6, a0, 0x188
3ffb0c60:	6f          	.byte 0x6f
3ffb0c61:	6f          	.byte 0x6f
3ffb0c62:	656c      	movi.n	a5, -26
3ffb0c64:	206e61        	l32r	a6, 3ff78e1c <TIMG0_T0_WDTCONFIG0_REG+0x19dd4>
3ffb0c67:	737361        	l32r	a6, 3ff8da34 <TIMG0_T0_WDTCONFIG0_REG+0x2e9ec>
3ffb0c6a:	6769      	s32i.n	a6, a7, 24
3ffb0c6c:	6e          	.byte 0x6e
3ffb0c6d:	656d      	lsi	f6, a5, 20
3ffb0c6f:	6e          	.byte 0x6e
3ffb0c70:	000074        	lsi	f7, a0, 0
3ffb0c73:	452000        	extui	a2, a0, 16, 5
3ffb0c76:	6e          	.byte 0x6e
3ffb0c77:	000064        	lsi	f6, a0, 0
	...

3ffb0c7c <_Test_s_str>:
3ffb0c7c:	617453        	lsi	f5, a4, 0x184
3ffb0c7f:	007472        	lsi	f7, a4, 0
3ffb0c82:	200000        	or	a0, a0, a0
3ffb0c85:	3d3d      	lsi	f3, a13, 52
3ffb0c87:	3d3d      	lsi	f3, a13, 52
3ffb0c89:	3e3d      	lsi	f3, a14, 56
3ffb0c8b:	734120        	maxu	a4, a1, a2
3ffb0c8e:	726573        	lsi	f7, a5, 0x1c8
3ffb0c91:	462074        	lsi	f7, a0, 0x118
3ffb0c94:	6c6961        	l32r	a6, 3ff8be38 <TIMG0_T0_WDTCONFIG0_REG+0x2cdf0>
3ffb0c97:	3a6465        	call8	3ffeb2dc <_heap_end+0xb2dc>
3ffb0c9a:	200020        	or	a0, a0, a2
3ffb0c9d:	3d3c      	movi.n	a13, 51
3ffb0c9f:	3d3d      	lsi	f3, a13, 52
3ffb0ca1:	3d3d      	lsi	f3, a13, 52
3ffb0ca3:	655400        	extui	a5, a0, 20, 7
3ffb0ca6:	207473        	lsi	f7, a4, 128
3ffb0ca9:	6d6f43        	lsi	f4, a15, 0x1b4
3ffb0cac:	656c70        	extui	a6, a7, 28, 7
3ffb0caf:	646574        	lsi	f7, a5, 0x190
3ffb0cb2:	2e          	.byte 0x2e
3ffb0cb3:	000020        	lsi	f2, a0, 0
3ffb0cb6:	4e0000        	f64rnd	a0, a0, a0, 0
3ffb0cb9:	626d75        	call12	40013390 <_heap_end+0x33390>
3ffb0cbc:	207265        	call8	3ffd13e4 <_ebss+0x1be54>
3ffb0cbf:	6f          	.byte 0x6f
3ffb0cc0:	542066        	bnei	a0, 2, 3ffb0d18 <_Test_s_str+0x9c>
3ffb0cc3:	747365        	call8	400253f8 <_heap_end+0x453f8>
3ffb0cc6:	725020        	lsi	f2, a0, 0x1c8
3ffb0cc9:	6f          	.byte 0x6f
3ffb0cca:	646563        	lsi	f6, a5, 0x190
3ffb0ccd:	657275        	call12	400163f4 <_heap_end+0x363f4>
3ffb0cd0:	203a73        	lsi	f7, a10, 128
3ffb0cd3:	754e00        	extui	a4, a0, 30, 8
3ffb0cd6:	626d      	lsi	f6, a2, 8
3ffb0cd8:	207265        	call8	3ffd1400 <_ebss+0x1be70>
3ffb0cdb:	6f          	.byte 0x6f
3ffb0cdc:	412066        	bnei	a0, 2, 3ffb0d21 <_Test_s_str+0xa5>
3ffb0cdf:	657373        	lsi	f7, a3, 0x194
3ffb0ce2:	697472        	lsi	f7, a4, 0x1a4
3ffb0ce5:	6f          	.byte 0x6f
3ffb0ce6:	6e          	.byte 0x6e
3ffb0ce7:	616d20        	lsi	f2, a13, 0x184
3ffb0cea:	3a6564        	lsi	f6, a5, 232
3ffb0ced:	000020        	lsi	f2, a0, 0
3ffb0cf0:	656854        	lsi	f5, a8, 0x194
3ffb0cf3:	206572        	s32i	a7, a5, 128
3ffb0cf6:	7369      	s32i.n	a6, a3, 28
3ffb0cf8:	000020        	lsi	f2, a0, 0
3ffb0cfb:	652000        	extui	a2, a0, 16, 7
3ffb0cfe:	6f7272        	lsi	f7, a2, 0x1bc
3ffb0d01:	732872        	l32i	a7, a8, 0x1cc
3ffb0d04:	2029      	s32i.n	a2, a0, 8
3ffb0d06:	6f          	.byte 0x6f
3ffb0d07:	657362        	lsi	f6, a3, 0x194
3ffb0d0a:	657672        	lsi	f7, a6, 0x194
3ffb0d0d:	002e64        	lsi	f6, a14, 0
3ffb0d10:	4e          	.byte 0x4e
3ffb0d11:	6f          	.byte 0x6f
3ffb0d12:	724520        	lsi	f2, a5, 0x1c8
3ffb0d15:	726f72        	s32i	a7, a15, 0x1c8
3ffb0d18:	4c2021        	l32r	a2, 3ff83d98 <TIMG0_T0_WDTCONFIG0_REG+0x24d50>
3ffb0d1b:	6669      	s32i.n	a6, a6, 24
3ffb0d1d:	692065        	call8	40019f24 <_heap_end+0x39f24>
3ffb0d20:	672073        	lsi	f7, a0, 0x19c
3ffb0d23:	6f          	.byte 0x6f
3ffb0d24:	6f          	.byte 0x6f
3ffb0d25:	212164        	lsi	f6, a1, 132
3ffb0d28:	000000        	ill
	...

3ffb0d2c <_Out_s_str>:
3ffb0d2c:	302020        	xor	a2, a0, a2
3ffb0d2f:	000020        	lsi	f2, a0, 0
3ffb0d32:	200000        	or	a0, a0, a0
3ffb0d35:	4e          	.byte 0x4e
3ffb0d36:	204e61        	l32r	a6, 3ff78e70 <TIMG0_T0_WDTCONFIG0_REG+0x19e28>
3ffb0d39:	000000        	ill
3ffb0d3c:	302020        	xor	a2, a0, a2
	...

3ffb0d40 <_Kernel_551E92D8_s_data_types>:
3ffb0d40:	000020        	lsi	f2, a0, 0
3ffb0d43:	ffff00        	f64cmph	a15, a15, a0, 15
3ffb0d46:	ff          	.byte 0xff
3ffb0d47:	ff          	.byte 0xff
3ffb0d48:	ff          	.byte 0xff
3ffb0d49:	ff          	.byte 0xff
3ffb0d4a:	ff          	.byte 0xff
3ffb0d4b:	ff          	.byte 0xff
3ffb0d4c:	ff          	.byte 0xff
3ffb0d4d:	ff          	.byte 0xff
3ffb0d4e:	ff          	.byte 0xff
3ffb0d4f:	ff          	.byte 0xff
3ffb0d50:	ff          	.byte 0xff
3ffb0d51:	ff          	.byte 0xff
3ffb0d52:	ff          	.byte 0xff
3ffb0d53:	ff          	.byte 0xff

3ffb0d54 <_Kernel_s_str>:
3ffb0d54:	415254        	lsi	f5, a2, 0x104
3ffb0d57:	452050        	extui	a2, a5, 16, 5
3ffb0d5a:	4358      	l32i.n	a5, a3, 16
3ffb0d5c:	545045        	call0	40005264 <_heap_end+0x25264>
3ffb0d5f:	4f49      	s32i.n	a4, a15, 16
3ffb0d61:	4e          	.byte 0x4e
3ffb0d62:	203a      	add.n	a2, a0, a3
3ffb0d64:	000000        	ill
3ffb0d67:	654800        	extui	a4, a0, 24, 7
3ffb0d6a:	207061        	l32r	a6, 3ff78f2c <TIMG0_T0_WDTCONFIG0_REG+0x19ee4>
3ffb0d6d:	706f54        	lsi	f5, a15, 0x1c0
3ffb0d70:	203a      	add.n	a2, a0, a3
	...

Disassembly of section .bss:

3ffb0d74 <_Main_6E69624D_s_bss>:
3ffb0d74:	000000        	ill
	...

3ffb0d78 <_Case_65736243_s_bss>:
	...

3ffb0d98 <_BitFunc_46D7D7B8_s_bss>:
	...

3ffb0dd4 <_ArrayAssignments_B5C88A88_s_bss>:
	...

3ffb11c4 <_Byte_B776DFC2_s_bss>:
	...

3ffb11d4 <_DefFunc_C71BD61F_s_bss>:
3ffb11d4:	000000        	ill
	...

3ffb11d8 <_SimpleReal_3C408D21_s_bss>:
3ffb11d8:	000000        	ill
	...

3ffb11dc <_SimpleMath_383B8934_s_bss>:
3ffb11dc:	000000        	ill
	...

3ffb11e0 <_Assignments_4FA6587C_s_bss>:
	...

3ffb1240 <_Test_8B10D205_s_bss>:
	...

3ffb1570 <_Out_70D42FFB_s_bss>:
3ffb1570:	000000        	ill
	...

3ffb1574 <_Kernel_551E92D8_s_bss>:
	...

3ffb1590 <_bos>:
	...

Disassembly of section .xtensa.info:

00000000 <.xtensa.info>:
   0:	000c      	movi.n	a0, 0
   2:	200000        	or	a0, a0, a0
   5:	000000        	ill
   8:	000001        	l32r	a0, fffc0008 <_etext+0xbff3c374>
   b:	745800        	extui	a5, a0, 8, 8
   e:	736e65        	call8	736f4 <EXCVADDR+0x73606>
  11:	495f61        	l32r	a6, fffd2590 <_etext+0xbff4e8fc>
  14:	6e          	.byte 0x6e
  15:	006f66        	bnei	a15, 6, 19 <XT_STK_A3+0x1>
  18:	455355        	call4	45550 <EXCVADDR+0x45462>
  1b:	5f          	.byte 0x5f
  1c:	534241        	l32r	a4, fffd4d24 <_etext+0xbff51090>
  1f:	4f          	.byte 0x4f
  20:	554c      	movi.n	a5, 69
  22:	5f4554        	lsi	f5, a5, 0x17c
  25:	494c      	movi.n	a9, 68
  27:	524554        	lsi	f5, a5, 0x148
  2a:	534c41        	l32r	a4, fffd4d5c <_etext+0xbff510c8>
  2d:	303d      	lsi	f3, a0, 0
  2f:	410a      	add.n	a4, a1, a0
  31:	3d4942        	s8i	a4, a9, 61
  34:	000a30        	lsi	f3, a10, 0
	...

Disassembly of section .debug_line:

00000000 <.debug_line>:
       0:	018d      	mov.n	a8, a1
       2:	020000        	andb	b0, b0, b0
       5:	002300        	lsi	f0, a3, 0
       8:	010000        	slli	a0, a0, 32
       b:	0efb01        	l32r	a0, fffc3bf8 <_etext+0xbff3ff64>
       e:	000d      	mov.n	a0, a0
      10:	010101        	l32r	a0, fffc0414 <_etext+0xbff3c780>
      13:	000001        	l32r	a0, fffc0014 <_etext+0xbff3c380>
      16:	000100        	lsi	f0, a1, 0
      19:	620100        	lsi	f0, a1, 0x188
      1c:	6c6975        	call12	6c6b4 <EXCVADDR+0x6c5c6>
      1f:	000064        	lsi	f6, a0, 0
      22:	614d      	lsi	f4, a1, 4
      24:	6e69      	s32i.n	a6, a14, 24
      26:	2e          	.byte 0x2e
      27:	010053        	lsi	f5, a0, 4
      2a:	000000        	ill
      2d:	020500        	andb	b0, b5, b0
      30:	0588      	l32i.n	a8, a5, 0
      32:	4008      	l32i.n	a0, a0, 16
      34:	011a03        	lsi	f0, a10, 4
      37:	090103        	lsi	f0, a1, 36
      3a:	010003        	lsi	f0, a0, 4
      3d:	090103        	lsi	f0, a1, 36
      40:	010003        	lsi	f0, a0, 4
      43:	090103        	lsi	f0, a1, 36
      46:	010002        	l8ui	a0, a0, 1
      49:	090103        	lsi	f0, a1, 36
      4c:	010003        	lsi	f0, a0, 4
      4f:	090103        	lsi	f0, a1, 36
      52:	010006        	j	456 <EXCVADDR+0x368>
      55:	090103        	lsi	f0, a1, 36
      58:	010003        	lsi	f0, a0, 4
      5b:	090103        	lsi	f0, a1, 36
      5e:	010002        	l8ui	a0, a0, 1
      61:	090103        	lsi	f0, a1, 36
      64:	010006        	j	468 <EXCVADDR+0x37a>
      67:	090103        	lsi	f0, a1, 36
      6a:	010003        	lsi	f0, a0, 4
      6d:	090103        	lsi	f0, a1, 36
      70:	010003        	lsi	f0, a0, 4
      73:	090103        	lsi	f0, a1, 36
      76:	010006        	j	47a <EXCVADDR+0x38c>
      79:	090103        	lsi	f0, a1, 36
      7c:	010006        	j	480 <EXCVADDR+0x392>
      7f:	0209      	s32i.n	a0, a2, 0
      81:	010000        	slli	a0, a0, 32
      84:	050001        	l32r	a0, fffc1484 <_etext+0xbff3d7f0>
      87:	3b1402        	l16ui	a0, a4, 118
      8a:	4008      	l32i.n	a0, a0, 16
      8c:	012e03        	lsi	f0, a14, 4
      8f:	090103        	lsi	f0, a1, 36
      92:	010003        	lsi	f0, a0, 4
      95:	090103        	lsi	f0, a1, 36
      98:	010003        	lsi	f0, a0, 4
      9b:	090103        	lsi	f0, a1, 36
      9e:	010006        	j	4a2 <EXCVADDR+0x3b4>
      a1:	090203        	lsi	f0, a2, 36
      a4:	010002        	l8ui	a0, a0, 1
      a7:	090103        	lsi	f0, a1, 36
      aa:	010003        	lsi	f0, a0, 4
      ad:	090103        	lsi	f0, a1, 36
      b0:	010003        	lsi	f0, a0, 4
      b3:	090103        	lsi	f0, a1, 36
      b6:	010002        	l8ui	a0, a0, 1
      b9:	090103        	lsi	f0, a1, 36
      bc:	010002        	l8ui	a0, a0, 1
      bf:	090103        	lsi	f0, a1, 36
      c2:	010002        	l8ui	a0, a0, 1
      c5:	090203        	lsi	f0, a2, 36
      c8:	010006        	j	4cc <EXCVADDR+0x3de>
      cb:	090103        	lsi	f0, a1, 36
      ce:	010006        	j	4d2 <EXCVADDR+0x3e4>
      d1:	090103        	lsi	f0, a1, 36
      d4:	010006        	j	4d8 <EXCVADDR+0x3ea>
      d7:	090103        	lsi	f0, a1, 36
      da:	010003        	lsi	f0, a0, 4
      dd:	090103        	lsi	f0, a1, 36
      e0:	010003        	lsi	f0, a0, 4
      e3:	090103        	lsi	f0, a1, 36
      e6:	010002        	l8ui	a0, a0, 1
      e9:	090103        	lsi	f0, a1, 36
      ec:	010006        	j	4f0 <EXCVADDR+0x402>
      ef:	090103        	lsi	f0, a1, 36
      f2:	010006        	j	4f6 <EXCVADDR+0x408>
      f5:	090103        	lsi	f0, a1, 36
      f8:	010006        	j	4fc <EXCVADDR+0x40e>
      fb:	090103        	lsi	f0, a1, 36
      fe:	010003        	lsi	f0, a0, 4
     101:	090103        	lsi	f0, a1, 36
     104:	010003        	lsi	f0, a0, 4
     107:	090103        	lsi	f0, a1, 36
     10a:	010006        	j	50e <EXCVADDR+0x420>
     10d:	090103        	lsi	f0, a1, 36
     110:	010002        	l8ui	a0, a0, 1
     113:	090103        	lsi	f0, a1, 36
     116:	010002        	l8ui	a0, a0, 1
     119:	090103        	lsi	f0, a1, 36
     11c:	010006        	j	520 <EXCVADDR+0x432>
     11f:	090103        	lsi	f0, a1, 36
     122:	010006        	j	526 <EXCVADDR+0x438>
     125:	090103        	lsi	f0, a1, 36
     128:	010003        	lsi	f0, a0, 4
     12b:	090103        	lsi	f0, a1, 36
     12e:	010003        	lsi	f0, a0, 4
     131:	090103        	lsi	f0, a1, 36
     134:	010002        	l8ui	a0, a0, 1
     137:	090103        	lsi	f0, a1, 36
     13a:	010006        	j	53e <EXCVADDR+0x450>
     13d:	090203        	lsi	f0, a2, 36
     140:	010006        	j	544 <EXCVADDR+0x456>
     143:	090103        	lsi	f0, a1, 36
     146:	010002        	l8ui	a0, a0, 1
     149:	090103        	lsi	f0, a1, 36
     14c:	010002        	l8ui	a0, a0, 1
     14f:	090103        	lsi	f0, a1, 36
     152:	010002        	l8ui	a0, a0, 1
     155:	090103        	lsi	f0, a1, 36
     158:	010006        	j	55c <EXCVADDR+0x46e>
     15b:	090203        	lsi	f0, a2, 36
     15e:	010002        	l8ui	a0, a0, 1
     161:	090103        	lsi	f0, a1, 36
     164:	010003        	lsi	f0, a0, 4
     167:	090103        	lsi	f0, a1, 36
     16a:	010003        	lsi	f0, a0, 4
     16d:	090103        	lsi	f0, a1, 36
     170:	010002        	l8ui	a0, a0, 1
     173:	090103        	lsi	f0, a1, 36
     176:	010002        	l8ui	a0, a0, 1
     179:	090103        	lsi	f0, a1, 36
     17c:	010002        	l8ui	a0, a0, 1
     17f:	090203        	lsi	f0, a2, 36
     182:	010003        	lsi	f0, a0, 4
     185:	090203        	lsi	f0, a2, 36
     188:	010003        	lsi	f0, a0, 4
     18b:	0209      	s32i.n	a0, a2, 0
     18d:	010000        	slli	a0, a0, 32
     190:	0d1d01        	l32r	a0, fffc3604 <_etext+0xbff3f970>
     193:	020000        	andb	b0, b0, b0
     196:	002300        	lsi	f0, a3, 0
     199:	010000        	slli	a0, a0, 32
     19c:	0efb01        	l32r	a0, fffc3d88 <_etext+0xbff400f4>
     19f:	000d      	mov.n	a0, a0
     1a1:	010101        	l32r	a0, fffc05a8 <_etext+0xbff3c914>
     1a4:	000001        	l32r	a0, fffc01a4 <_etext+0xbff3c510>
     1a7:	000100        	lsi	f0, a1, 0
     1aa:	620100        	lsi	f0, a1, 0x188
     1ad:	6c6975        	call12	6c844 <EXCVADDR+0x6c756>
     1b0:	000064        	lsi	f6, a0, 0
     1b3:	736143        	lsi	f4, a1, 0x1cc
     1b6:	532e65        	call8	5349c <EXCVADDR+0x533ae>
     1b9:	000100        	lsi	f0, a1, 0
     1bc:	000000        	ill
     1bf:	c00205        	call0	fffc01e0 <_etext+0xbff3c54c>
     1c2:	400805        	call0	40244 <EXCVADDR+0x40156>
     1c5:	013303        	lsi	f0, a3, 4
     1c8:	090103        	lsi	f0, a1, 36
     1cb:	010003        	lsi	f0, a0, 4
     1ce:	090103        	lsi	f0, a1, 36
     1d1:	010002        	l8ui	a0, a0, 1
     1d4:	090103        	lsi	f0, a1, 36
     1d7:	010003        	lsi	f0, a0, 4
     1da:	090103        	lsi	f0, a1, 36
     1dd:	010002        	l8ui	a0, a0, 1
     1e0:	090103        	lsi	f0, a1, 36
     1e3:	010003        	lsi	f0, a0, 4
     1e6:	090103        	lsi	f0, a1, 36
     1e9:	010002        	l8ui	a0, a0, 1
     1ec:	090103        	lsi	f0, a1, 36
     1ef:	010002        	l8ui	a0, a0, 1
     1f2:	090103        	lsi	f0, a1, 36
     1f5:	010003        	lsi	f0, a0, 4
     1f8:	090203        	lsi	f0, a2, 36
     1fb:	010003        	lsi	f0, a0, 4
     1fe:	090103        	lsi	f0, a1, 36
     201:	010002        	l8ui	a0, a0, 1
     204:	090103        	lsi	f0, a1, 36
     207:	010003        	lsi	f0, a0, 4
     20a:	090203        	lsi	f0, a2, 36
     20d:	010003        	lsi	f0, a0, 4
     210:	090103        	lsi	f0, a1, 36
     213:	010002        	l8ui	a0, a0, 1
     216:	090103        	lsi	f0, a1, 36
     219:	010003        	lsi	f0, a0, 4
     21c:	090103        	lsi	f0, a1, 36
     21f:	010003        	lsi	f0, a0, 4
     222:	090103        	lsi	f0, a1, 36
     225:	010002        	l8ui	a0, a0, 1
     228:	090103        	lsi	f0, a1, 36
     22b:	010002        	l8ui	a0, a0, 1
     22e:	090303        	lsi	f0, a3, 36
     231:	010003        	lsi	f0, a0, 4
     234:	090103        	lsi	f0, a1, 36
     237:	010002        	l8ui	a0, a0, 1
     23a:	090103        	lsi	f0, a1, 36
     23d:	010002        	l8ui	a0, a0, 1
     240:	090403        	lsi	f0, a4, 36
     243:	010003        	lsi	f0, a0, 4
     246:	090103        	lsi	f0, a1, 36
     249:	010002        	l8ui	a0, a0, 1
     24c:	090103        	lsi	f0, a1, 36
     24f:	010002        	l8ui	a0, a0, 1
     252:	090203        	lsi	f0, a2, 36
     255:	010003        	lsi	f0, a0, 4
     258:	090103        	lsi	f0, a1, 36
     25b:	010002        	l8ui	a0, a0, 1
     25e:	090103        	lsi	f0, a1, 36
     261:	010002        	l8ui	a0, a0, 1
     264:	090203        	lsi	f0, a2, 36
     267:	010003        	lsi	f0, a0, 4
     26a:	090103        	lsi	f0, a1, 36
     26d:	010002        	l8ui	a0, a0, 1
     270:	090103        	lsi	f0, a1, 36
     273:	010002        	l8ui	a0, a0, 1
     276:	091e03        	lsi	f0, a14, 36
     279:	006d      	mov.n	a6, a0
     27b:	010301        	l32r	a0, fffc0688 <_etext+0xbff3c9f4>
     27e:	0209      	s32i.n	a0, a2, 0
     280:	030100        	rsr.lend	a0
     283:	060906        	j	1aab <EXCVADDR+0x19bd>
     286:	030100        	rsr.lend	a0
     289:	030901        	l32r	a0, fffc0eb0 <_etext+0xbff3d21c>
     28c:	030100        	rsr.lend	a0
     28f:	030901        	l32r	a0, fffc0eb4 <_etext+0xbff3d220>
     292:	030100        	rsr.lend	a0
     295:	020901        	l32r	a0, fffc0abc <_etext+0xbff3ce28>
     298:	030100        	rsr.lend	a0
     29b:	020901        	l32r	a0, fffc0ac0 <_etext+0xbff3ce2c>
     29e:	030100        	rsr.lend	a0
     2a1:	020901        	l32r	a0, fffc0ac8 <_etext+0xbff3ce34>
     2a4:	030100        	rsr.lend	a0
     2a7:	030901        	l32r	a0, fffc0ecc <_etext+0xbff3d238>
     2aa:	030100        	rsr.lend	a0
     2ad:	020901        	l32r	a0, fffc0ad4 <_etext+0xbff3ce40>
     2b0:	030100        	rsr.lend	a0
     2b3:	020901        	l32r	a0, fffc0ad8 <_etext+0xbff3ce44>
     2b6:	030100        	rsr.lend	a0
     2b9:	030901        	l32r	a0, fffc0ee0 <_etext+0xbff3d24c>
     2bc:	030100        	rsr.lend	a0
     2bf:	030902        	l8ui	a0, a9, 3
     2c2:	030100        	rsr.lend	a0
     2c5:	020901        	l32r	a0, fffc0aec <_etext+0xbff3ce58>
     2c8:	030100        	rsr.lend	a0
     2cb:	030901        	l32r	a0, fffc0ef0 <_etext+0xbff3d25c>
     2ce:	030100        	rsr.lend	a0
     2d1:	030902        	l8ui	a0, a9, 3
     2d4:	030100        	rsr.lend	a0
     2d7:	020901        	l32r	a0, fffc0afc <_etext+0xbff3ce68>
     2da:	030100        	rsr.lend	a0
     2dd:	030901        	l32r	a0, fffc0f04 <_etext+0xbff3d270>
     2e0:	030100        	rsr.lend	a0
     2e3:	030901        	l32r	a0, fffc0f08 <_etext+0xbff3d274>
     2e6:	030100        	rsr.lend	a0
     2e9:	020901        	l32r	a0, fffc0b10 <_etext+0xbff3ce7c>
     2ec:	030100        	rsr.lend	a0
     2ef:	020901        	l32r	a0, fffc0b14 <_etext+0xbff3ce80>
     2f2:	030100        	rsr.lend	a0
     2f5:	030902        	l8ui	a0, a9, 3
     2f8:	030100        	rsr.lend	a0
     2fb:	020901        	l32r	a0, fffc0b20 <_etext+0xbff3ce8c>
     2fe:	030100        	rsr.lend	a0
     301:	020901        	l32r	a0, fffc0b28 <_etext+0xbff3ce94>
     304:	030100        	rsr.lend	a0
     307:	030902        	l8ui	a0, a9, 3
     30a:	030100        	rsr.lend	a0
     30d:	020901        	l32r	a0, fffc0b34 <_etext+0xbff3cea0>
     310:	030100        	rsr.lend	a0
     313:	020901        	l32r	a0, fffc0b38 <_etext+0xbff3cea4>
     316:	030100        	rsr.lend	a0
     319:	030902        	l8ui	a0, a9, 3
     31c:	030100        	rsr.lend	a0
     31f:	020901        	l32r	a0, fffc0b44 <_etext+0xbff3ceb0>
     322:	030100        	rsr.lend	a0
     325:	020901        	l32r	a0, fffc0b4c <_etext+0xbff3ceb8>
     328:	030100        	rsr.lend	a0
     32b:	090a      	add.n	a0, a9, a0
     32d:	001a      	add.n	a0, a0, a1
     32f:	010301        	l32r	a0, fffc073c <_etext+0xbff3caa8>
     332:	0209      	s32i.n	a0, a2, 0
     334:	030100        	rsr.lend	a0
     337:	060906        	j	1b5f <EXCVADDR+0x1a71>
     33a:	030100        	rsr.lend	a0
     33d:	030901        	l32r	a0, fffc0f64 <_etext+0xbff3d2d0>
     340:	030100        	rsr.lend	a0
     343:	020901        	l32r	a0, fffc0b68 <_etext+0xbff3ced4>
     346:	030100        	rsr.lend	a0
     349:	030901        	l32r	a0, fffc0f70 <_etext+0xbff3d2dc>
     34c:	030100        	rsr.lend	a0
     34f:	020901        	l32r	a0, fffc0b74 <_etext+0xbff3cee0>
     352:	030100        	rsr.lend	a0
     355:	030901        	l32r	a0, fffc0f7c <_etext+0xbff3d2e8>
     358:	030100        	rsr.lend	a0
     35b:	020901        	l32r	a0, fffc0b80 <_etext+0xbff3ceec>
     35e:	030100        	rsr.lend	a0
     361:	020901        	l32r	a0, fffc0b88 <_etext+0xbff3cef4>
     364:	030100        	rsr.lend	a0
     367:	030901        	l32r	a0, fffc0f8c <_etext+0xbff3d2f8>
     36a:	030100        	rsr.lend	a0
     36d:	030902        	l8ui	a0, a9, 3
     370:	030100        	rsr.lend	a0
     373:	020901        	l32r	a0, fffc0b98 <_etext+0xbff3cf04>
     376:	030100        	rsr.lend	a0
     379:	030901        	l32r	a0, fffc0fa0 <_etext+0xbff3d30c>
     37c:	030100        	rsr.lend	a0
     37f:	030902        	l8ui	a0, a9, 3
     382:	030100        	rsr.lend	a0
     385:	020901        	l32r	a0, fffc0bac <_etext+0xbff3cf18>
     388:	030100        	rsr.lend	a0
     38b:	030901        	l32r	a0, fffc0fb0 <_etext+0xbff3d31c>
     38e:	030100        	rsr.lend	a0
     391:	030901        	l32r	a0, fffc0fb8 <_etext+0xbff3d324>
     394:	030100        	rsr.lend	a0
     397:	020901        	l32r	a0, fffc0bbc <_etext+0xbff3cf28>
     39a:	030100        	rsr.lend	a0
     39d:	020901        	l32r	a0, fffc0bc4 <_etext+0xbff3cf30>
     3a0:	030100        	rsr.lend	a0
     3a3:	030903        	lsi	f0, a9, 12
     3a6:	030100        	rsr.lend	a0
     3a9:	020901        	l32r	a0, fffc0bd0 <_etext+0xbff3cf3c>
     3ac:	030100        	rsr.lend	a0
     3af:	020901        	l32r	a0, fffc0bd4 <_etext+0xbff3cf40>
     3b2:	030100        	rsr.lend	a0
     3b5:	0a0904        	mula.dd.lh.ldinc	m0, a9, m0, m2
     3b8:	030100        	rsr.lend	a0
     3bb:	020901        	l32r	a0, fffc0be0 <_etext+0xbff3cf4c>
     3be:	030100        	rsr.lend	a0
     3c1:	030901        	l32r	a0, fffc0fe8 <_etext+0xbff3d354>
     3c4:	030100        	rsr.lend	a0
     3c7:	020901        	l32r	a0, fffc0bec <_etext+0xbff3cf58>
     3ca:	030100        	rsr.lend	a0
     3cd:	020901        	l32r	a0, fffc0bf4 <_etext+0xbff3cf60>
     3d0:	030100        	rsr.lend	a0
     3d3:	030901        	l32r	a0, fffc0ff8 <_etext+0xbff3d364>
     3d6:	030100        	rsr.lend	a0
     3d9:	030902        	l8ui	a0, a9, 3
     3dc:	030100        	rsr.lend	a0
     3df:	020901        	l32r	a0, fffc0c04 <_etext+0xbff3cf70>
     3e2:	030100        	rsr.lend	a0
     3e5:	030901        	l32r	a0, fffc100c <_etext+0xbff3d378>
     3e8:	030100        	rsr.lend	a0
     3eb:	030902        	l8ui	a0, a9, 3
     3ee:	030100        	rsr.lend	a0
     3f1:	020901        	l32r	a0, fffc0c18 <_etext+0xbff3cf84>
     3f4:	030100        	rsr.lend	a0
     3f7:	030901        	l32r	a0, fffc101c <_etext+0xbff3d388>
     3fa:	030100        	rsr.lend	a0
     3fd:	030901        	l32r	a0, fffc1024 <_etext+0xbff3d390>
     400:	030100        	rsr.lend	a0
     403:	020901        	l32r	a0, fffc0c28 <_etext+0xbff3cf94>
     406:	030100        	rsr.lend	a0
     409:	020901        	l32r	a0, fffc0c30 <_etext+0xbff3cf9c>
     40c:	030100        	rsr.lend	a0
     40f:	030903        	lsi	f0, a9, 12
     412:	030100        	rsr.lend	a0
     415:	020901        	l32r	a0, fffc0c3c <_etext+0xbff3cfa8>
     418:	030100        	rsr.lend	a0
     41b:	020901        	l32r	a0, fffc0c40 <_etext+0xbff3cfac>
     41e:	030100        	rsr.lend	a0
     421:	030902        	l8ui	a0, a9, 3
     424:	030100        	rsr.lend	a0
     427:	020901        	l32r	a0, fffc0c4c <_etext+0xbff3cfb8>
     42a:	030100        	rsr.lend	a0
     42d:	020901        	l32r	a0, fffc0c54 <_etext+0xbff3cfc0>
     430:	030100        	rsr.lend	a0
     433:	1e          	.byte 0x1e
     434:	6709      	s32i.n	a0, a7, 24
     436:	030100        	rsr.lend	a0
     439:	030902        	l8ui	a0, a9, 3
     43c:	030100        	rsr.lend	a0
     43f:	020901        	l32r	a0, fffc0c64 <_etext+0xbff3cfd0>
     442:	030100        	rsr.lend	a0
     445:	020901        	l32r	a0, fffc0c6c <_etext+0xbff3cfd8>
     448:	030100        	rsr.lend	a0
     44b:	1f          	.byte 0x1f
     44c:	6d09      	s32i.n	a0, a13, 24
     44e:	030100        	rsr.lend	a0
     451:	020901        	l32r	a0, fffc0c78 <_etext+0xbff3cfe4>
     454:	030100        	rsr.lend	a0
     457:	060906        	j	1c7f <EXCVADDR+0x1b91>
     45a:	030100        	rsr.lend	a0
     45d:	030901        	l32r	a0, fffc1084 <_etext+0xbff3d3f0>
     460:	030100        	rsr.lend	a0
     463:	020901        	l32r	a0, fffc0c88 <_etext+0xbff3cff4>
     466:	030100        	rsr.lend	a0
     469:	030901        	l32r	a0, fffc1090 <_etext+0xbff3d3fc>
     46c:	030100        	rsr.lend	a0
     46f:	020901        	l32r	a0, fffc0c94 <_etext+0xbff3d000>
     472:	030100        	rsr.lend	a0
     475:	030901        	l32r	a0, fffc109c <_etext+0xbff3d408>
     478:	030100        	rsr.lend	a0
     47b:	020901        	l32r	a0, fffc0ca0 <_etext+0xbff3d00c>
     47e:	030100        	rsr.lend	a0
     481:	020901        	l32r	a0, fffc0ca8 <_etext+0xbff3d014>
     484:	030100        	rsr.lend	a0
     487:	030901        	l32r	a0, fffc10ac <_etext+0xbff3d418>
     48a:	030100        	rsr.lend	a0
     48d:	030902        	l8ui	a0, a9, 3
     490:	030100        	rsr.lend	a0
     493:	020901        	l32r	a0, fffc0cb8 <_etext+0xbff3d024>
     496:	030100        	rsr.lend	a0
     499:	030901        	l32r	a0, fffc10c0 <_etext+0xbff3d42c>
     49c:	030100        	rsr.lend	a0
     49f:	030902        	l8ui	a0, a9, 3
     4a2:	030100        	rsr.lend	a0
     4a5:	020901        	l32r	a0, fffc0ccc <_etext+0xbff3d038>
     4a8:	030100        	rsr.lend	a0
     4ab:	030901        	l32r	a0, fffc10d0 <_etext+0xbff3d43c>
     4ae:	030100        	rsr.lend	a0
     4b1:	030901        	l32r	a0, fffc10d8 <_etext+0xbff3d444>
     4b4:	030100        	rsr.lend	a0
     4b7:	020901        	l32r	a0, fffc0cdc <_etext+0xbff3d048>
     4ba:	030100        	rsr.lend	a0
     4bd:	020901        	l32r	a0, fffc0ce4 <_etext+0xbff3d050>
     4c0:	030100        	rsr.lend	a0
     4c3:	030902        	l8ui	a0, a9, 3
     4c6:	030100        	rsr.lend	a0
     4c9:	020901        	l32r	a0, fffc0cf0 <_etext+0xbff3d05c>
     4cc:	030100        	rsr.lend	a0
     4cf:	020901        	l32r	a0, fffc0cf4 <_etext+0xbff3d060>
     4d2:	030100        	rsr.lend	a0
     4d5:	0908      	l32i.n	a0, a9, 0
     4d7:	010012        	l8ui	a1, a0, 1
     4da:	090603        	lsi	f0, a6, 36
     4dd:	0008      	l32i.n	a0, a0, 0
     4df:	010301        	l32r	a0, fffc08ec <_etext+0xbff3cc58>
     4e2:	0309      	s32i.n	a0, a3, 0
     4e4:	030100        	rsr.lend	a0
     4e7:	020901        	l32r	a0, fffc0d0c <_etext+0xbff3d078>
     4ea:	030100        	rsr.lend	a0
     4ed:	030901        	l32r	a0, fffc1114 <_etext+0xbff3d480>
     4f0:	030100        	rsr.lend	a0
     4f3:	020901        	l32r	a0, fffc0d18 <_etext+0xbff3d084>
     4f6:	030100        	rsr.lend	a0
     4f9:	030901        	l32r	a0, fffc1120 <_etext+0xbff3d48c>
     4fc:	030100        	rsr.lend	a0
     4ff:	030901        	l32r	a0, fffc1124 <_etext+0xbff3d490>
     502:	030100        	rsr.lend	a0
     505:	020901        	l32r	a0, fffc0d2c <_etext+0xbff3d098>
     508:	030100        	rsr.lend	a0
     50b:	020901        	l32r	a0, fffc0d30 <_etext+0xbff3d09c>
     50e:	030100        	rsr.lend	a0
     511:	030901        	l32r	a0, fffc1138 <_etext+0xbff3d4a4>
     514:	030100        	rsr.lend	a0
     517:	030902        	l8ui	a0, a9, 3
     51a:	030100        	rsr.lend	a0
     51d:	020901        	l32r	a0, fffc0d44 <_etext+0xbff3d0b0>
     520:	030100        	rsr.lend	a0
     523:	030901        	l32r	a0, fffc1148 <_etext+0xbff3d4b4>
     526:	030100        	rsr.lend	a0
     529:	030902        	l8ui	a0, a9, 3
     52c:	030100        	rsr.lend	a0
     52f:	020901        	l32r	a0, fffc0d54 <_etext+0xbff3d0c0>
     532:	030100        	rsr.lend	a0
     535:	030901        	l32r	a0, fffc115c <_etext+0xbff3d4c8>
     538:	030100        	rsr.lend	a0
     53b:	030901        	l32r	a0, fffc1160 <_etext+0xbff3d4cc>
     53e:	030100        	rsr.lend	a0
     541:	020901        	l32r	a0, fffc0d68 <_etext+0xbff3d0d4>
     544:	030100        	rsr.lend	a0
     547:	020901        	l32r	a0, fffc0d6c <_etext+0xbff3d0d8>
     54a:	030100        	rsr.lend	a0
     54d:	030902        	l8ui	a0, a9, 3
     550:	030100        	rsr.lend	a0
     553:	020901        	l32r	a0, fffc0d78 <_etext+0xbff3d0e4>
     556:	030100        	rsr.lend	a0
     559:	030901        	l32r	a0, fffc1180 <_etext+0xbff3d4ec>
     55c:	030100        	rsr.lend	a0
     55f:	020901        	l32r	a0, fffc0d84 <_etext+0xbff3d0f0>
     562:	030100        	rsr.lend	a0
     565:	0908      	l32i.n	a0, a9, 0
     567:	010010        	slli	a0, a0, 31
     56a:	090103        	lsi	f0, a1, 36
     56d:	010002        	l8ui	a0, a0, 1
     570:	090603        	lsi	f0, a6, 36
     573:	010006        	j	977 <EXCVADDR+0x889>
     576:	090103        	lsi	f0, a1, 36
     579:	010003        	lsi	f0, a0, 4
     57c:	090103        	lsi	f0, a1, 36
     57f:	010002        	l8ui	a0, a0, 1
     582:	090103        	lsi	f0, a1, 36
     585:	010003        	lsi	f0, a0, 4
     588:	090103        	lsi	f0, a1, 36
     58b:	010002        	l8ui	a0, a0, 1
     58e:	090103        	lsi	f0, a1, 36
     591:	010003        	lsi	f0, a0, 4
     594:	090103        	lsi	f0, a1, 36
     597:	010003        	lsi	f0, a0, 4
     59a:	090103        	lsi	f0, a1, 36
     59d:	010002        	l8ui	a0, a0, 1
     5a0:	090103        	lsi	f0, a1, 36
     5a3:	010002        	l8ui	a0, a0, 1
     5a6:	090103        	lsi	f0, a1, 36
     5a9:	010003        	lsi	f0, a0, 4
     5ac:	090203        	lsi	f0, a2, 36
     5af:	010003        	lsi	f0, a0, 4
     5b2:	090103        	lsi	f0, a1, 36
     5b5:	010002        	l8ui	a0, a0, 1
     5b8:	090103        	lsi	f0, a1, 36
     5bb:	010003        	lsi	f0, a0, 4
     5be:	090203        	lsi	f0, a2, 36
     5c1:	010003        	lsi	f0, a0, 4
     5c4:	090103        	lsi	f0, a1, 36
     5c7:	010002        	l8ui	a0, a0, 1
     5ca:	090103        	lsi	f0, a1, 36
     5cd:	010003        	lsi	f0, a0, 4
     5d0:	090103        	lsi	f0, a1, 36
     5d3:	010003        	lsi	f0, a0, 4
     5d6:	090103        	lsi	f0, a1, 36
     5d9:	010002        	l8ui	a0, a0, 1
     5dc:	090103        	lsi	f0, a1, 36
     5df:	010002        	l8ui	a0, a0, 1
     5e2:	090203        	lsi	f0, a2, 36
     5e5:	010003        	lsi	f0, a0, 4
     5e8:	090103        	lsi	f0, a1, 36
     5eb:	010002        	l8ui	a0, a0, 1
     5ee:	090103        	lsi	f0, a1, 36
     5f1:	010002        	l8ui	a0, a0, 1
     5f4:	090803        	lsi	f0, a8, 36
     5f7:	0f          	.byte 0xf
     5f8:	030100        	rsr.lend	a0
     5fb:	020901        	l32r	a0, fffc0e20 <_etext+0xbff3d18c>
     5fe:	030100        	rsr.lend	a0
     601:	0a0906        	j	2e29 <EXCVADDR+0x2d3b>
     604:	030100        	rsr.lend	a0
     607:	030901        	l32r	a0, fffc122c <_etext+0xbff3d598>
     60a:	030100        	rsr.lend	a0
     60d:	030901        	l32r	a0, fffc1234 <_etext+0xbff3d5a0>
     610:	030100        	rsr.lend	a0
     613:	030901        	l32r	a0, fffc1238 <_etext+0xbff3d5a4>
     616:	030100        	rsr.lend	a0
     619:	020901        	l32r	a0, fffc0e40 <_etext+0xbff3d1ac>
     61c:	030100        	rsr.lend	a0
     61f:	060901        	l32r	a0, fffc1e44 <_etext+0xbff3e1b0>
     622:	030100        	rsr.lend	a0
     625:	060901        	l32r	a0, fffc1e4c <_etext+0xbff3e1b8>
     628:	030100        	rsr.lend	a0
     62b:	030901        	l32r	a0, fffc1250 <_etext+0xbff3d5bc>
     62e:	030100        	rsr.lend	a0
     631:	060901        	l32r	a0, fffc1e58 <_etext+0xbff3e1c4>
     634:	030100        	rsr.lend	a0
     637:	020901        	l32r	a0, fffc0e5c <_etext+0xbff3d1c8>
     63a:	030100        	rsr.lend	a0
     63d:	030901        	l32r	a0, fffc1264 <_etext+0xbff3d5d0>
     640:	030100        	rsr.lend	a0
     643:	030901        	l32r	a0, fffc1268 <_etext+0xbff3d5d4>
     646:	030100        	rsr.lend	a0
     649:	030901        	l32r	a0, fffc1270 <_etext+0xbff3d5dc>
     64c:	030100        	rsr.lend	a0
     64f:	020901        	l32r	a0, fffc0e74 <_etext+0xbff3d1e0>
     652:	030100        	rsr.lend	a0
     655:	020901        	l32r	a0, fffc0e7c <_etext+0xbff3d1e8>
     658:	030100        	rsr.lend	a0
     65b:	030901        	l32r	a0, fffc1280 <_etext+0xbff3d5ec>
     65e:	030100        	rsr.lend	a0
     661:	030902        	l8ui	a0, a9, 3
     664:	030100        	rsr.lend	a0
     667:	020901        	l32r	a0, fffc0e8c <_etext+0xbff3d1f8>
     66a:	030100        	rsr.lend	a0
     66d:	030901        	l32r	a0, fffc1294 <_etext+0xbff3d600>
     670:	030100        	rsr.lend	a0
     673:	030902        	l8ui	a0, a9, 3
     676:	030100        	rsr.lend	a0
     679:	020901        	l32r	a0, fffc0ea0 <_etext+0xbff3d20c>
     67c:	030100        	rsr.lend	a0
     67f:	030901        	l32r	a0, fffc12a4 <_etext+0xbff3d610>
     682:	030100        	rsr.lend	a0
     685:	030901        	l32r	a0, fffc12ac <_etext+0xbff3d618>
     688:	030100        	rsr.lend	a0
     68b:	020901        	l32r	a0, fffc0eb0 <_etext+0xbff3d21c>
     68e:	030100        	rsr.lend	a0
     691:	020901        	l32r	a0, fffc0eb8 <_etext+0xbff3d224>
     694:	030100        	rsr.lend	a0
     697:	030903        	lsi	f0, a9, 12
     69a:	030100        	rsr.lend	a0
     69d:	020901        	l32r	a0, fffc0ec4 <_etext+0xbff3d230>
     6a0:	030100        	rsr.lend	a0
     6a3:	030901        	l32r	a0, fffc12c8 <_etext+0xbff3d634>
     6a6:	030100        	rsr.lend	a0
     6a9:	030902        	l8ui	a0, a9, 3
     6ac:	030100        	rsr.lend	a0
     6af:	020901        	l32r	a0, fffc0ed4 <_etext+0xbff3d240>
     6b2:	030100        	rsr.lend	a0
     6b5:	030901        	l32r	a0, fffc12dc <_etext+0xbff3d648>
     6b8:	030100        	rsr.lend	a0
     6bb:	030902        	l8ui	a0, a9, 3
     6be:	030100        	rsr.lend	a0
     6c1:	020901        	l32r	a0, fffc0ee8 <_etext+0xbff3d254>
     6c4:	030100        	rsr.lend	a0
     6c7:	030901        	l32r	a0, fffc12ec <_etext+0xbff3d658>
     6ca:	030100        	rsr.lend	a0
     6cd:	730921        	l32r	a2, fffdd2f4 <_etext+0xbff59660>
     6d0:	030100        	rsr.lend	a0
     6d3:	030901        	l32r	a0, fffc12f8 <_etext+0xbff3d664>
     6d6:	030100        	rsr.lend	a0
     6d9:	020901        	l32r	a0, fffc0f00 <_etext+0xbff3d26c>
     6dc:	030100        	rsr.lend	a0
     6df:	030901        	l32r	a0, fffc1304 <_etext+0xbff3d670>
     6e2:	030100        	rsr.lend	a0
     6e5:	020901        	l32r	a0, fffc0f0c <_etext+0xbff3d278>
     6e8:	030100        	rsr.lend	a0
     6eb:	0a0902        	l8ui	a0, a9, 10
     6ee:	030100        	rsr.lend	a0
     6f1:	020902        	l8ui	a0, a9, 2
     6f4:	030100        	rsr.lend	a0
     6f7:	030901        	l32r	a0, fffc131c <_etext+0xbff3d688>
     6fa:	030100        	rsr.lend	a0
     6fd:	030901        	l32r	a0, fffc1324 <_etext+0xbff3d690>
     700:	030100        	rsr.lend	a0
     703:	020901        	l32r	a0, fffc0f28 <_etext+0xbff3d294>
     706:	030100        	rsr.lend	a0
     709:	060901        	l32r	a0, fffc1f30 <_etext+0xbff3e29c>
     70c:	030100        	rsr.lend	a0
     70f:	020901        	l32r	a0, fffc0f34 <_etext+0xbff3d2a0>
     712:	030100        	rsr.lend	a0
     715:	030901        	l32r	a0, fffc133c <_etext+0xbff3d6a8>
     718:	030100        	rsr.lend	a0
     71b:	020901        	l32r	a0, fffc0f40 <_etext+0xbff3d2ac>
     71e:	030100        	rsr.lend	a0
     721:	020901        	l32r	a0, fffc0f48 <_etext+0xbff3d2b4>
     724:	030100        	rsr.lend	a0
     727:	030901        	l32r	a0, fffc134c <_etext+0xbff3d6b8>
     72a:	030100        	rsr.lend	a0
     72d:	030902        	l8ui	a0, a9, 3
     730:	030100        	rsr.lend	a0
     733:	020901        	l32r	a0, fffc0f58 <_etext+0xbff3d2c4>
     736:	030100        	rsr.lend	a0
     739:	030901        	l32r	a0, fffc1360 <_etext+0xbff3d6cc>
     73c:	030100        	rsr.lend	a0
     73f:	030902        	l8ui	a0, a9, 3
     742:	030100        	rsr.lend	a0
     745:	020901        	l32r	a0, fffc0f6c <_etext+0xbff3d2d8>
     748:	030100        	rsr.lend	a0
     74b:	030901        	l32r	a0, fffc1370 <_etext+0xbff3d6dc>
     74e:	030100        	rsr.lend	a0
     751:	030901        	l32r	a0, fffc1378 <_etext+0xbff3d6e4>
     754:	030100        	rsr.lend	a0
     757:	020901        	l32r	a0, fffc0f7c <_etext+0xbff3d2e8>
     75a:	030100        	rsr.lend	a0
     75d:	020901        	l32r	a0, fffc0f84 <_etext+0xbff3d2f0>
     760:	030100        	rsr.lend	a0
     763:	030902        	l8ui	a0, a9, 3
     766:	030100        	rsr.lend	a0
     769:	020901        	l32r	a0, fffc0f90 <_etext+0xbff3d2fc>
     76c:	030100        	rsr.lend	a0
     76f:	030901        	l32r	a0, fffc1394 <_etext+0xbff3d700>
     772:	030100        	rsr.lend	a0
     775:	030903        	lsi	f0, a9, 12
     778:	030100        	rsr.lend	a0
     77b:	020901        	l32r	a0, fffc0fa0 <_etext+0xbff3d30c>
     77e:	030100        	rsr.lend	a0
     781:	030901        	l32r	a0, fffc13a8 <_etext+0xbff3d714>
     784:	030100        	rsr.lend	a0
     787:	0900c0        	l32e	a12, a0, -64
     78a:	0100f1        	l32r	a15, fffc0b8c <_etext+0xbff3cef8>
     78d:	090103        	lsi	f0, a1, 36
     790:	010003        	lsi	f0, a0, 4
     793:	090103        	lsi	f0, a1, 36
     796:	010002        	l8ui	a0, a0, 1
     799:	090103        	lsi	f0, a1, 36
     79c:	010003        	lsi	f0, a0, 4
     79f:	090103        	lsi	f0, a1, 36
     7a2:	010002        	l8ui	a0, a0, 1
     7a5:	090203        	lsi	f0, a2, 36
     7a8:	000a      	add.n	a0, a0, a0
     7aa:	020301        	l32r	a0, fffc0fb8 <_etext+0xbff3d324>
     7ad:	0209      	s32i.n	a0, a2, 0
     7af:	030100        	rsr.lend	a0
     7b2:	030901        	l32r	a0, fffc13d8 <_etext+0xbff3d744>
     7b5:	030100        	rsr.lend	a0
     7b8:	030901        	l32r	a0, fffc13dc <_etext+0xbff3d748>
     7bb:	030100        	rsr.lend	a0
     7be:	020901        	l32r	a0, fffc0fe4 <_etext+0xbff3d350>
     7c1:	030100        	rsr.lend	a0
     7c4:	060901        	l32r	a0, fffc1fe8 <_etext+0xbff3e354>
     7c7:	030100        	rsr.lend	a0
     7ca:	020901        	l32r	a0, fffc0ff0 <_etext+0xbff3d35c>
     7cd:	030100        	rsr.lend	a0
     7d0:	020901        	l32r	a0, fffc0ff4 <_etext+0xbff3d360>
     7d3:	030100        	rsr.lend	a0
     7d6:	020901        	l32r	a0, fffc0ffc <_etext+0xbff3d368>
     7d9:	030100        	rsr.lend	a0
     7dc:	030901        	l32r	a0, fffc1400 <_etext+0xbff3d76c>
     7df:	030100        	rsr.lend	a0
     7e2:	020901        	l32r	a0, fffc1008 <_etext+0xbff3d374>
     7e5:	030100        	rsr.lend	a0
     7e8:	020901        	l32r	a0, fffc100c <_etext+0xbff3d378>
     7eb:	030100        	rsr.lend	a0
     7ee:	030901        	l32r	a0, fffc1414 <_etext+0xbff3d780>
     7f1:	030100        	rsr.lend	a0
     7f4:	030902        	l8ui	a0, a9, 3
     7f7:	030100        	rsr.lend	a0
     7fa:	020901        	l32r	a0, fffc1020 <_etext+0xbff3d38c>
     7fd:	030100        	rsr.lend	a0
     800:	030901        	l32r	a0, fffc1424 <_etext+0xbff3d790>
     803:	030100        	rsr.lend	a0
     806:	030902        	l8ui	a0, a9, 3
     809:	030100        	rsr.lend	a0
     80c:	020901        	l32r	a0, fffc1030 <_etext+0xbff3d39c>
     80f:	030100        	rsr.lend	a0
     812:	030901        	l32r	a0, fffc1438 <_etext+0xbff3d7a4>
     815:	030100        	rsr.lend	a0
     818:	030901        	l32r	a0, fffc143c <_etext+0xbff3d7a8>
     81b:	030100        	rsr.lend	a0
     81e:	020901        	l32r	a0, fffc1044 <_etext+0xbff3d3b0>
     821:	030100        	rsr.lend	a0
     824:	020901        	l32r	a0, fffc1048 <_etext+0xbff3d3b4>
     827:	030100        	rsr.lend	a0
     82a:	030903        	lsi	f0, a9, 12
     82d:	030100        	rsr.lend	a0
     830:	020901        	l32r	a0, fffc1054 <_etext+0xbff3d3c0>
     833:	030100        	rsr.lend	a0
     836:	020901        	l32r	a0, fffc105c <_etext+0xbff3d3c8>
     839:	030100        	rsr.lend	a0
     83c:	030904        	lsi	f0, a9, 12
     83f:	030100        	rsr.lend	a0
     842:	020901        	l32r	a0, fffc1068 <_etext+0xbff3d3d4>
     845:	030100        	rsr.lend	a0
     848:	020901        	l32r	a0, fffc106c <_etext+0xbff3d3d8>
     84b:	030100        	rsr.lend	a0
     84e:	030902        	l8ui	a0, a9, 3
     851:	030100        	rsr.lend	a0
     854:	020901        	l32r	a0, fffc1078 <_etext+0xbff3d3e4>
     857:	030100        	rsr.lend	a0
     85a:	020901        	l32r	a0, fffc1080 <_etext+0xbff3d3ec>
     85d:	030100        	rsr.lend	a0
     860:	1f          	.byte 0x1f
     861:	6c09      	s32i.n	a0, a12, 24
     863:	030100        	rsr.lend	a0
     866:	020901        	l32r	a0, fffc108c <_etext+0xbff3d3f8>
     869:	030100        	rsr.lend	a0
     86c:	020901        	l32r	a0, fffc1090 <_etext+0xbff3d3fc>
     86f:	030100        	rsr.lend	a0
     872:	030901        	l32r	a0, fffc1498 <_etext+0xbff3d804>
     875:	030100        	rsr.lend	a0
     878:	020901        	l32r	a0, fffc109c <_etext+0xbff3d408>
     87b:	030100        	rsr.lend	a0
     87e:	030902        	l8ui	a0, a9, 3
     881:	030100        	rsr.lend	a0
     884:	020902        	l8ui	a0, a9, 2
     887:	030100        	rsr.lend	a0
     88a:	030901        	l32r	a0, fffc14b0 <_etext+0xbff3d81c>
     88d:	030100        	rsr.lend	a0
     890:	030901        	l32r	a0, fffc14b4 <_etext+0xbff3d820>
     893:	030100        	rsr.lend	a0
     896:	020901        	l32r	a0, fffc10bc <_etext+0xbff3d428>
     899:	030100        	rsr.lend	a0
     89c:	060901        	l32r	a0, fffc20c0 <_etext+0xbff3e42c>
     89f:	030100        	rsr.lend	a0
     8a2:	020901        	l32r	a0, fffc10c8 <_etext+0xbff3d434>
     8a5:	030100        	rsr.lend	a0
     8a8:	030901        	l32r	a0, fffc14cc <_etext+0xbff3d838>
     8ab:	030100        	rsr.lend	a0
     8ae:	020901        	l32r	a0, fffc10d4 <_etext+0xbff3d440>
     8b1:	030100        	rsr.lend	a0
     8b4:	020901        	l32r	a0, fffc10d8 <_etext+0xbff3d444>
     8b7:	030100        	rsr.lend	a0
     8ba:	030901        	l32r	a0, fffc14e0 <_etext+0xbff3d84c>
     8bd:	030100        	rsr.lend	a0
     8c0:	020901        	l32r	a0, fffc10e4 <_etext+0xbff3d450>
     8c3:	030100        	rsr.lend	a0
     8c6:	060902        	l8ui	a0, a9, 6
     8c9:	030100        	rsr.lend	a0
     8cc:	020902        	l8ui	a0, a9, 2
     8cf:	030100        	rsr.lend	a0
     8d2:	030901        	l32r	a0, fffc14f8 <_etext+0xbff3d864>
     8d5:	030100        	rsr.lend	a0
     8d8:	030901        	l32r	a0, fffc14fc <_etext+0xbff3d868>
     8db:	030100        	rsr.lend	a0
     8de:	020901        	l32r	a0, fffc1104 <_etext+0xbff3d470>
     8e1:	030100        	rsr.lend	a0
     8e4:	060901        	l32r	a0, fffc2108 <_etext+0xbff3e474>
     8e7:	030100        	rsr.lend	a0
     8ea:	020901        	l32r	a0, fffc1110 <_etext+0xbff3d47c>
     8ed:	030100        	rsr.lend	a0
     8f0:	030901        	l32r	a0, fffc1514 <_etext+0xbff3d880>
     8f3:	030100        	rsr.lend	a0
     8f6:	020901        	l32r	a0, fffc111c <_etext+0xbff3d488>
     8f9:	030100        	rsr.lend	a0
     8fc:	020901        	l32r	a0, fffc1120 <_etext+0xbff3d48c>
     8ff:	030100        	rsr.lend	a0
     902:	030901        	l32r	a0, fffc1528 <_etext+0xbff3d894>
     905:	030100        	rsr.lend	a0
     908:	020901        	l32r	a0, fffc112c <_etext+0xbff3d498>
     90b:	030100        	rsr.lend	a0
     90e:	060902        	l8ui	a0, a9, 6
     911:	030100        	rsr.lend	a0
     914:	020902        	l8ui	a0, a9, 2
     917:	030100        	rsr.lend	a0
     91a:	030901        	l32r	a0, fffc1540 <_etext+0xbff3d8ac>
     91d:	030100        	rsr.lend	a0
     920:	030901        	l32r	a0, fffc1544 <_etext+0xbff3d8b0>
     923:	030100        	rsr.lend	a0
     926:	020901        	l32r	a0, fffc114c <_etext+0xbff3d4b8>
     929:	030100        	rsr.lend	a0
     92c:	060901        	l32r	a0, fffc2150 <_etext+0xbff3e4bc>
     92f:	030100        	rsr.lend	a0
     932:	020901        	l32r	a0, fffc1158 <_etext+0xbff3d4c4>
     935:	030100        	rsr.lend	a0
     938:	030901        	l32r	a0, fffc155c <_etext+0xbff3d8c8>
     93b:	030100        	rsr.lend	a0
     93e:	020901        	l32r	a0, fffc1164 <_etext+0xbff3d4d0>
     941:	030100        	rsr.lend	a0
     944:	020901        	l32r	a0, fffc1168 <_etext+0xbff3d4d4>
     947:	030100        	rsr.lend	a0
     94a:	030901        	l32r	a0, fffc1570 <_etext+0xbff3d8dc>
     94d:	030100        	rsr.lend	a0
     950:	020901        	l32r	a0, fffc1174 <_etext+0xbff3d4e0>
     953:	030100        	rsr.lend	a0
     956:	060902        	l8ui	a0, a9, 6
     959:	030100        	rsr.lend	a0
     95c:	020902        	l8ui	a0, a9, 2
     95f:	030100        	rsr.lend	a0
     962:	030901        	l32r	a0, fffc1588 <_etext+0xbff3d8f4>
     965:	030100        	rsr.lend	a0
     968:	030901        	l32r	a0, fffc158c <_etext+0xbff3d8f8>
     96b:	030100        	rsr.lend	a0
     96e:	020901        	l32r	a0, fffc1194 <_etext+0xbff3d500>
     971:	030100        	rsr.lend	a0
     974:	060901        	l32r	a0, fffc2198 <_etext+0xbff3e504>
     977:	030100        	rsr.lend	a0
     97a:	020901        	l32r	a0, fffc11a0 <_etext+0xbff3d50c>
     97d:	030100        	rsr.lend	a0
     980:	030901        	l32r	a0, fffc15a4 <_etext+0xbff3d910>
     983:	030100        	rsr.lend	a0
     986:	020901        	l32r	a0, fffc11ac <_etext+0xbff3d518>
     989:	030100        	rsr.lend	a0
     98c:	020901        	l32r	a0, fffc11b0 <_etext+0xbff3d51c>
     98f:	030100        	rsr.lend	a0
     992:	030901        	l32r	a0, fffc15b8 <_etext+0xbff3d924>
     995:	030100        	rsr.lend	a0
     998:	020901        	l32r	a0, fffc11bc <_etext+0xbff3d528>
     99b:	030100        	rsr.lend	a0
     99e:	060902        	l8ui	a0, a9, 6
     9a1:	030100        	rsr.lend	a0
     9a4:	020902        	l8ui	a0, a9, 2
     9a7:	030100        	rsr.lend	a0
     9aa:	030901        	l32r	a0, fffc15d0 <_etext+0xbff3d93c>
     9ad:	030100        	rsr.lend	a0
     9b0:	030901        	l32r	a0, fffc15d4 <_etext+0xbff3d940>
     9b3:	030100        	rsr.lend	a0
     9b6:	020901        	l32r	a0, fffc11dc <_etext+0xbff3d548>
     9b9:	030100        	rsr.lend	a0
     9bc:	060901        	l32r	a0, fffc21e0 <_etext+0xbff3e54c>
     9bf:	030100        	rsr.lend	a0
     9c2:	020901        	l32r	a0, fffc11e8 <_etext+0xbff3d554>
     9c5:	030100        	rsr.lend	a0
     9c8:	030901        	l32r	a0, fffc15ec <_etext+0xbff3d958>
     9cb:	030100        	rsr.lend	a0
     9ce:	020901        	l32r	a0, fffc11f4 <_etext+0xbff3d560>
     9d1:	030100        	rsr.lend	a0
     9d4:	020901        	l32r	a0, fffc11f8 <_etext+0xbff3d564>
     9d7:	030100        	rsr.lend	a0
     9da:	030901        	l32r	a0, fffc1600 <_etext+0xbff3d96c>
     9dd:	030100        	rsr.lend	a0
     9e0:	020901        	l32r	a0, fffc1204 <_etext+0xbff3d570>
     9e3:	030100        	rsr.lend	a0
     9e6:	060902        	l8ui	a0, a9, 6
     9e9:	030100        	rsr.lend	a0
     9ec:	020902        	l8ui	a0, a9, 2
     9ef:	030100        	rsr.lend	a0
     9f2:	030901        	l32r	a0, fffc1618 <_etext+0xbff3d984>
     9f5:	030100        	rsr.lend	a0
     9f8:	030901        	l32r	a0, fffc161c <_etext+0xbff3d988>
     9fb:	030100        	rsr.lend	a0
     9fe:	030901        	l32r	a0, fffc1624 <_etext+0xbff3d990>
     a01:	030100        	rsr.lend	a0
     a04:	060901        	l32r	a0, fffc2228 <_etext+0xbff3e594>
     a07:	030100        	rsr.lend	a0
     a0a:	030901        	l32r	a0, fffc1630 <_etext+0xbff3d99c>
     a0d:	030100        	rsr.lend	a0
     a10:	020901        	l32r	a0, fffc1234 <_etext+0xbff3d5a0>
     a13:	030100        	rsr.lend	a0
     a16:	020901        	l32r	a0, fffc123c <_etext+0xbff3d5a8>
     a19:	030100        	rsr.lend	a0
     a1c:	030901        	l32r	a0, fffc1640 <_etext+0xbff3d9ac>
     a1f:	030100        	rsr.lend	a0
     a22:	020901        	l32r	a0, fffc1248 <_etext+0xbff3d5b4>
     a25:	030100        	rsr.lend	a0
     a28:	030902        	l8ui	a0, a9, 3
     a2b:	030100        	rsr.lend	a0
     a2e:	020902        	l8ui	a0, a9, 2
     a31:	030100        	rsr.lend	a0
     a34:	030901        	l32r	a0, fffc1658 <_etext+0xbff3d9c4>
     a37:	030100        	rsr.lend	a0
     a3a:	030901        	l32r	a0, fffc1660 <_etext+0xbff3d9cc>
     a3d:	030100        	rsr.lend	a0
     a40:	020901        	l32r	a0, fffc1264 <_etext+0xbff3d5d0>
     a43:	030100        	rsr.lend	a0
     a46:	060901        	l32r	a0, fffc226c <_etext+0xbff3e5d8>
     a49:	030100        	rsr.lend	a0
     a4c:	020901        	l32r	a0, fffc1270 <_etext+0xbff3d5dc>
     a4f:	030100        	rsr.lend	a0
     a52:	030901        	l32r	a0, fffc1678 <_etext+0xbff3d9e4>
     a55:	030100        	rsr.lend	a0
     a58:	020901        	l32r	a0, fffc127c <_etext+0xbff3d5e8>
     a5b:	030100        	rsr.lend	a0
     a5e:	020901        	l32r	a0, fffc1284 <_etext+0xbff3d5f0>
     a61:	030100        	rsr.lend	a0
     a64:	030901        	l32r	a0, fffc1688 <_etext+0xbff3d9f4>
     a67:	030100        	rsr.lend	a0
     a6a:	020901        	l32r	a0, fffc1290 <_etext+0xbff3d5fc>
     a6d:	030100        	rsr.lend	a0
     a70:	060902        	l8ui	a0, a9, 6
     a73:	030100        	rsr.lend	a0
     a76:	020902        	l8ui	a0, a9, 2
     a79:	030100        	rsr.lend	a0
     a7c:	030901        	l32r	a0, fffc16a0 <_etext+0xbff3da0c>
     a7f:	030100        	rsr.lend	a0
     a82:	030901        	l32r	a0, fffc16a8 <_etext+0xbff3da14>
     a85:	030100        	rsr.lend	a0
     a88:	030901        	l32r	a0, fffc16ac <_etext+0xbff3da18>
     a8b:	030100        	rsr.lend	a0
     a8e:	030901        	l32r	a0, fffc16b4 <_etext+0xbff3da20>
     a91:	030100        	rsr.lend	a0
     a94:	060901        	l32r	a0, fffc22b8 <_etext+0xbff3e624>
     a97:	030100        	rsr.lend	a0
     a9a:	020901        	l32r	a0, fffc12c0 <_etext+0xbff3d62c>
     a9d:	030100        	rsr.lend	a0
     aa0:	030901        	l32r	a0, fffc16c4 <_etext+0xbff3da30>
     aa3:	030100        	rsr.lend	a0
     aa6:	020901        	l32r	a0, fffc12cc <_etext+0xbff3d638>
     aa9:	030100        	rsr.lend	a0
     aac:	020901        	l32r	a0, fffc12d0 <_etext+0xbff3d63c>
     aaf:	030100        	rsr.lend	a0
     ab2:	030901        	l32r	a0, fffc16d8 <_etext+0xbff3da44>
     ab5:	030100        	rsr.lend	a0
     ab8:	020901        	l32r	a0, fffc12dc <_etext+0xbff3d648>
     abb:	030100        	rsr.lend	a0
     abe:	060902        	l8ui	a0, a9, 6
     ac1:	030100        	rsr.lend	a0
     ac4:	020902        	l8ui	a0, a9, 2
     ac7:	030100        	rsr.lend	a0
     aca:	030901        	l32r	a0, fffc16f0 <_etext+0xbff3da5c>
     acd:	030100        	rsr.lend	a0
     ad0:	030901        	l32r	a0, fffc16f4 <_etext+0xbff3da60>
     ad3:	030100        	rsr.lend	a0
     ad6:	030901        	l32r	a0, fffc16fc <_etext+0xbff3da68>
     ad9:	030100        	rsr.lend	a0
     adc:	030901        	l32r	a0, fffc1700 <_etext+0xbff3da6c>
     adf:	030100        	rsr.lend	a0
     ae2:	060901        	l32r	a0, fffc2308 <_etext+0xbff3e674>
     ae5:	030100        	rsr.lend	a0
     ae8:	020901        	l32r	a0, fffc130c <_etext+0xbff3d678>
     aeb:	030100        	rsr.lend	a0
     aee:	030901        	l32r	a0, fffc1714 <_etext+0xbff3da80>
     af1:	030100        	rsr.lend	a0
     af4:	020901        	l32r	a0, fffc1318 <_etext+0xbff3d684>
     af7:	030100        	rsr.lend	a0
     afa:	020901        	l32r	a0, fffc1320 <_etext+0xbff3d68c>
     afd:	030100        	rsr.lend	a0
     b00:	030901        	l32r	a0, fffc1724 <_etext+0xbff3da90>
     b03:	030100        	rsr.lend	a0
     b06:	020901        	l32r	a0, fffc132c <_etext+0xbff3d698>
     b09:	030100        	rsr.lend	a0
     b0c:	060902        	l8ui	a0, a9, 6
     b0f:	030100        	rsr.lend	a0
     b12:	020902        	l8ui	a0, a9, 2
     b15:	030100        	rsr.lend	a0
     b18:	030901        	l32r	a0, fffc173c <_etext+0xbff3daa8>
     b1b:	030100        	rsr.lend	a0
     b1e:	030901        	l32r	a0, fffc1744 <_etext+0xbff3dab0>
     b21:	030100        	rsr.lend	a0
     b24:	030901        	l32r	a0, fffc1748 <_etext+0xbff3dab4>
     b27:	030100        	rsr.lend	a0
     b2a:	030901        	l32r	a0, fffc1750 <_etext+0xbff3dabc>
     b2d:	030100        	rsr.lend	a0
     b30:	060901        	l32r	a0, fffc2354 <_etext+0xbff3e6c0>
     b33:	030100        	rsr.lend	a0
     b36:	020901        	l32r	a0, fffc135c <_etext+0xbff3d6c8>
     b39:	030100        	rsr.lend	a0
     b3c:	030901        	l32r	a0, fffc1760 <_etext+0xbff3dacc>
     b3f:	030100        	rsr.lend	a0
     b42:	020901        	l32r	a0, fffc1368 <_etext+0xbff3d6d4>
     b45:	030100        	rsr.lend	a0
     b48:	020901        	l32r	a0, fffc136c <_etext+0xbff3d6d8>
     b4b:	030100        	rsr.lend	a0
     b4e:	030901        	l32r	a0, fffc1774 <_etext+0xbff3dae0>
     b51:	030100        	rsr.lend	a0
     b54:	020901        	l32r	a0, fffc1378 <_etext+0xbff3d6e4>
     b57:	030100        	rsr.lend	a0
     b5a:	060902        	l8ui	a0, a9, 6
     b5d:	030100        	rsr.lend	a0
     b60:	020902        	l8ui	a0, a9, 2
     b63:	030100        	rsr.lend	a0
     b66:	030901        	l32r	a0, fffc178c <_etext+0xbff3daf8>
     b69:	030100        	rsr.lend	a0
     b6c:	030901        	l32r	a0, fffc1790 <_etext+0xbff3dafc>
     b6f:	030100        	rsr.lend	a0
     b72:	030901        	l32r	a0, fffc1798 <_etext+0xbff3db04>
     b75:	030100        	rsr.lend	a0
     b78:	030901        	l32r	a0, fffc179c <_etext+0xbff3db08>
     b7b:	030100        	rsr.lend	a0
     b7e:	060901        	l32r	a0, fffc23a4 <_etext+0xbff3e710>
     b81:	030100        	rsr.lend	a0
     b84:	020901        	l32r	a0, fffc13a8 <_etext+0xbff3d714>
     b87:	030100        	rsr.lend	a0
     b8a:	030901        	l32r	a0, fffc17b0 <_etext+0xbff3db1c>
     b8d:	030100        	rsr.lend	a0
     b90:	020901        	l32r	a0, fffc13b4 <_etext+0xbff3d720>
     b93:	030100        	rsr.lend	a0
     b96:	020901        	l32r	a0, fffc13bc <_etext+0xbff3d728>
     b99:	030100        	rsr.lend	a0
     b9c:	030901        	l32r	a0, fffc17c0 <_etext+0xbff3db2c>
     b9f:	030100        	rsr.lend	a0
     ba2:	020901        	l32r	a0, fffc13c8 <_etext+0xbff3d734>
     ba5:	030100        	rsr.lend	a0
     ba8:	060902        	l8ui	a0, a9, 6
     bab:	030100        	rsr.lend	a0
     bae:	020902        	l8ui	a0, a9, 2
     bb1:	030100        	rsr.lend	a0
     bb4:	030901        	l32r	a0, fffc17d8 <_etext+0xbff3db44>
     bb7:	030100        	rsr.lend	a0
     bba:	030901        	l32r	a0, fffc17e0 <_etext+0xbff3db4c>
     bbd:	030100        	rsr.lend	a0
     bc0:	020901        	l32r	a0, fffc13e4 <_etext+0xbff3d750>
     bc3:	030100        	rsr.lend	a0
     bc6:	020901        	l32r	a0, fffc13ec <_etext+0xbff3d758>
     bc9:	030100        	rsr.lend	a0
     bcc:	060901        	l32r	a0, fffc23f0 <_etext+0xbff3e75c>
     bcf:	030100        	rsr.lend	a0
     bd2:	020901        	l32r	a0, fffc13f8 <_etext+0xbff3d764>
     bd5:	030100        	rsr.lend	a0
     bd8:	030901        	l32r	a0, fffc17fc <_etext+0xbff3db68>
     bdb:	030100        	rsr.lend	a0
     bde:	020901        	l32r	a0, fffc1404 <_etext+0xbff3d770>
     be1:	030100        	rsr.lend	a0
     be4:	030901        	l32r	a0, fffc1808 <_etext+0xbff3db74>
     be7:	030100        	rsr.lend	a0
     bea:	020901        	l32r	a0, fffc1410 <_etext+0xbff3d77c>
     bed:	030100        	rsr.lend	a0
     bf0:	020901        	l32r	a0, fffc1414 <_etext+0xbff3d780>
     bf3:	030100        	rsr.lend	a0
     bf6:	030901        	l32r	a0, fffc181c <_etext+0xbff3db88>
     bf9:	030100        	rsr.lend	a0
     bfc:	020901        	l32r	a0, fffc1420 <_etext+0xbff3d78c>
     bff:	030100        	rsr.lend	a0
     c02:	030902        	l8ui	a0, a9, 3
     c05:	030100        	rsr.lend	a0
     c08:	020902        	l8ui	a0, a9, 2
     c0b:	030100        	rsr.lend	a0
     c0e:	030901        	l32r	a0, fffc1834 <_etext+0xbff3dba0>
     c11:	030100        	rsr.lend	a0
     c14:	030901        	l32r	a0, fffc1838 <_etext+0xbff3dba4>
     c17:	030100        	rsr.lend	a0
     c1a:	030901        	l32r	a0, fffc1840 <_etext+0xbff3dbac>
     c1d:	030100        	rsr.lend	a0
     c20:	030901        	l32r	a0, fffc1844 <_etext+0xbff3dbb0>
     c23:	030100        	rsr.lend	a0
     c26:	060901        	l32r	a0, fffc244c <_etext+0xbff3e7b8>
     c29:	030100        	rsr.lend	a0
     c2c:	020901        	l32r	a0, fffc1450 <_etext+0xbff3d7bc>
     c2f:	030100        	rsr.lend	a0
     c32:	030901        	l32r	a0, fffc1858 <_etext+0xbff3dbc4>
     c35:	030100        	rsr.lend	a0
     c38:	020901        	l32r	a0, fffc145c <_etext+0xbff3d7c8>
     c3b:	030100        	rsr.lend	a0
     c3e:	020901        	l32r	a0, fffc1464 <_etext+0xbff3d7d0>
     c41:	030100        	rsr.lend	a0
     c44:	030901        	l32r	a0, fffc1868 <_etext+0xbff3dbd4>
     c47:	030100        	rsr.lend	a0
     c4a:	020901        	l32r	a0, fffc1470 <_etext+0xbff3d7dc>
     c4d:	030100        	rsr.lend	a0
     c50:	0e0902        	l8ui	a0, a9, 14
     c53:	030100        	rsr.lend	a0
     c56:	020902        	l8ui	a0, a9, 2
     c59:	030100        	rsr.lend	a0
     c5c:	030901        	l32r	a0, fffc1880 <_etext+0xbff3dbec>
     c5f:	030100        	rsr.lend	a0
     c62:	030901        	l32r	a0, fffc1888 <_etext+0xbff3dbf4>
     c65:	030100        	rsr.lend	a0
     c68:	030901        	l32r	a0, fffc188c <_etext+0xbff3dbf8>
     c6b:	030100        	rsr.lend	a0
     c6e:	030901        	l32r	a0, fffc1894 <_etext+0xbff3dc00>
     c71:	030100        	rsr.lend	a0
     c74:	060901        	l32r	a0, fffc2498 <_etext+0xbff3e804>
     c77:	030100        	rsr.lend	a0
     c7a:	030901        	l32r	a0, fffc18a0 <_etext+0xbff3dc0c>
     c7d:	030100        	rsr.lend	a0
     c80:	030901        	l32r	a0, fffc18a4 <_etext+0xbff3dc10>
     c83:	030100        	rsr.lend	a0
     c86:	030901        	l32r	a0, fffc18ac <_etext+0xbff3dc18>
     c89:	030100        	rsr.lend	a0
     c8c:	020901        	l32r	a0, fffc14b0 <_etext+0xbff3d81c>
     c8f:	030100        	rsr.lend	a0
     c92:	060901        	l32r	a0, fffc24b8 <_etext+0xbff3e824>
     c95:	030100        	rsr.lend	a0
     c98:	030901        	l32r	a0, fffc18bc <_etext+0xbff3dc28>
     c9b:	030100        	rsr.lend	a0
     c9e:	020901        	l32r	a0, fffc14c4 <_etext+0xbff3d830>
     ca1:	030100        	rsr.lend	a0
     ca4:	020901        	l32r	a0, fffc14c8 <_etext+0xbff3d834>
     ca7:	030100        	rsr.lend	a0
     caa:	020901        	l32r	a0, fffc14d0 <_etext+0xbff3d83c>
     cad:	030100        	rsr.lend	a0
     cb0:	020901        	l32r	a0, fffc14d4 <_etext+0xbff3d840>
     cb3:	030100        	rsr.lend	a0
     cb6:	020901        	l32r	a0, fffc14dc <_etext+0xbff3d848>
     cb9:	030100        	rsr.lend	a0
     cbc:	020901        	l32r	a0, fffc14e0 <_etext+0xbff3d84c>
     cbf:	030100        	rsr.lend	a0
     cc2:	020901        	l32r	a0, fffc14e8 <_etext+0xbff3d854>
     cc5:	030100        	rsr.lend	a0
     cc8:	020901        	l32r	a0, fffc14ec <_etext+0xbff3d858>
     ccb:	030100        	rsr.lend	a0
     cce:	020901        	l32r	a0, fffc14f4 <_etext+0xbff3d860>
     cd1:	030100        	rsr.lend	a0
     cd4:	030901        	l32r	a0, fffc18f8 <_etext+0xbff3dc64>
     cd7:	030100        	rsr.lend	a0
     cda:	020901        	l32r	a0, fffc1500 <_etext+0xbff3d86c>
     cdd:	030100        	rsr.lend	a0
     ce0:	030901        	l32r	a0, fffc1904 <_etext+0xbff3dc70>
     ce3:	030100        	rsr.lend	a0
     ce6:	030901        	l32r	a0, fffc190c <_etext+0xbff3dc78>
     ce9:	030100        	rsr.lend	a0
     cec:	030902        	l8ui	a0, a9, 3
     cef:	030100        	rsr.lend	a0
     cf2:	030901        	l32r	a0, fffc1918 <_etext+0xbff3dc84>
     cf5:	030100        	rsr.lend	a0
     cf8:	020901        	l32r	a0, fffc151c <_etext+0xbff3d888>
     cfb:	030100        	rsr.lend	a0
     cfe:	030901        	l32r	a0, fffc1924 <_etext+0xbff3dc90>
     d01:	030100        	rsr.lend	a0
     d04:	020901        	l32r	a0, fffc1528 <_etext+0xbff3d894>
     d07:	030100        	rsr.lend	a0
     d0a:	020901        	l32r	a0, fffc1530 <_etext+0xbff3d89c>
     d0d:	030100        	rsr.lend	a0
     d10:	020901        	l32r	a0, fffc1534 <_etext+0xbff3d8a0>
     d13:	030100        	rsr.lend	a0
     d16:	060902        	l8ui	a0, a9, 6
     d19:	030100        	rsr.lend	a0
     d1c:	020901        	l32r	a0, fffc1540 <_etext+0xbff3d8ac>
     d1f:	030100        	rsr.lend	a0
     d22:	020901        	l32r	a0, fffc1548 <_etext+0xbff3d8b4>
     d25:	030100        	rsr.lend	a0
     d28:	020901        	l32r	a0, fffc154c <_etext+0xbff3d8b8>
     d2b:	030100        	rsr.lend	a0
     d2e:	020901        	l32r	a0, fffc1554 <_etext+0xbff3d8c0>
     d31:	030100        	rsr.lend	a0
     d34:	030901        	l32r	a0, fffc1958 <_etext+0xbff3dcc4>
     d37:	030100        	rsr.lend	a0
     d3a:	020901        	l32r	a0, fffc1560 <_etext+0xbff3d8cc>
     d3d:	030100        	rsr.lend	a0
     d40:	020901        	l32r	a0, fffc1564 <_etext+0xbff3d8d0>
     d43:	030100        	rsr.lend	a0
     d46:	030901        	l32r	a0, fffc196c <_etext+0xbff3dcd8>
     d49:	030100        	rsr.lend	a0
     d4c:	030902        	l8ui	a0, a9, 3
     d4f:	030100        	rsr.lend	a0
     d52:	030901        	l32r	a0, fffc1978 <_etext+0xbff3dce4>
     d55:	030100        	rsr.lend	a0
     d58:	020901        	l32r	a0, fffc157c <_etext+0xbff3d8e8>
     d5b:	030100        	rsr.lend	a0
     d5e:	020901        	l32r	a0, fffc1584 <_etext+0xbff3d8f0>
     d61:	030100        	rsr.lend	a0
     d64:	020901        	l32r	a0, fffc1588 <_etext+0xbff3d8f4>
     d67:	030100        	rsr.lend	a0
     d6a:	020901        	l32r	a0, fffc1590 <_etext+0xbff3d8fc>
     d6d:	030100        	rsr.lend	a0
     d70:	020901        	l32r	a0, fffc1594 <_etext+0xbff3d900>
     d73:	030100        	rsr.lend	a0
     d76:	020901        	l32r	a0, fffc159c <_etext+0xbff3d908>
     d79:	030100        	rsr.lend	a0
     d7c:	020901        	l32r	a0, fffc15a0 <_etext+0xbff3d90c>
     d7f:	030100        	rsr.lend	a0
     d82:	020901        	l32r	a0, fffc15a8 <_etext+0xbff3d914>
     d85:	030100        	rsr.lend	a0
     d88:	020901        	l32r	a0, fffc15ac <_etext+0xbff3d918>
     d8b:	030100        	rsr.lend	a0
     d8e:	030901        	l32r	a0, fffc19b4 <_etext+0xbff3dd20>
     d91:	030100        	rsr.lend	a0
     d94:	020901        	l32r	a0, fffc15b8 <_etext+0xbff3d924>
     d97:	030100        	rsr.lend	a0
     d9a:	020901        	l32r	a0, fffc15c0 <_etext+0xbff3d92c>
     d9d:	030100        	rsr.lend	a0
     da0:	020901        	l32r	a0, fffc15c4 <_etext+0xbff3d930>
     da3:	030100        	rsr.lend	a0
     da6:	020901        	l32r	a0, fffc15cc <_etext+0xbff3d938>
     da9:	030100        	rsr.lend	a0
     dac:	020901        	l32r	a0, fffc15d0 <_etext+0xbff3d93c>
     daf:	030100        	rsr.lend	a0
     db2:	050902        	l8ui	a0, a9, 5
     db5:	030100        	rsr.lend	a0
     db8:	020901        	l32r	a0, fffc15dc <_etext+0xbff3d948>
     dbb:	030100        	rsr.lend	a0
     dbe:	020901        	l32r	a0, fffc15e4 <_etext+0xbff3d950>
     dc1:	030100        	rsr.lend	a0
     dc4:	020901        	l32r	a0, fffc15e8 <_etext+0xbff3d954>
     dc7:	030100        	rsr.lend	a0
     dca:	020901        	l32r	a0, fffc15f0 <_etext+0xbff3d95c>
     dcd:	030100        	rsr.lend	a0
     dd0:	030901        	l32r	a0, fffc19f4 <_etext+0xbff3dd60>
     dd3:	030100        	rsr.lend	a0
     dd6:	020901        	l32r	a0, fffc15fc <_etext+0xbff3d968>
     dd9:	030100        	rsr.lend	a0
     ddc:	020901        	l32r	a0, fffc1600 <_etext+0xbff3d96c>
     ddf:	030100        	rsr.lend	a0
     de2:	030901        	l32r	a0, fffc1a08 <_etext+0xbff3dd74>
     de5:	030100        	rsr.lend	a0
     de8:	030902        	l8ui	a0, a9, 3
     deb:	030100        	rsr.lend	a0
     dee:	030901        	l32r	a0, fffc1a14 <_etext+0xbff3dd80>
     df1:	030100        	rsr.lend	a0
     df4:	020901        	l32r	a0, fffc1618 <_etext+0xbff3d984>
     df7:	030100        	rsr.lend	a0
     dfa:	020901        	l32r	a0, fffc1620 <_etext+0xbff3d98c>
     dfd:	030100        	rsr.lend	a0
     e00:	020901        	l32r	a0, fffc1624 <_etext+0xbff3d990>
     e03:	030100        	rsr.lend	a0
     e06:	020901        	l32r	a0, fffc162c <_etext+0xbff3d998>
     e09:	030100        	rsr.lend	a0
     e0c:	020901        	l32r	a0, fffc1630 <_etext+0xbff3d99c>
     e0f:	030100        	rsr.lend	a0
     e12:	030903        	lsi	f0, a9, 12
     e15:	030100        	rsr.lend	a0
     e18:	020901        	l32r	a0, fffc163c <_etext+0xbff3d9a8>
     e1b:	030100        	rsr.lend	a0
     e1e:	020901        	l32r	a0, fffc1644 <_etext+0xbff3d9b0>
     e21:	030100        	rsr.lend	a0
     e24:	030901        	l32r	a0, fffc1a48 <_etext+0xbff3ddb4>
     e27:	030100        	rsr.lend	a0
     e2a:	020901        	l32r	a0, fffc1650 <_etext+0xbff3d9bc>
     e2d:	030100        	rsr.lend	a0
     e30:	060902        	l8ui	a0, a9, 6
     e33:	030100        	rsr.lend	a0
     e36:	020902        	l8ui	a0, a9, 2
     e39:	030100        	rsr.lend	a0
     e3c:	030901        	l32r	a0, fffc1a60 <_etext+0xbff3ddcc>
     e3f:	030100        	rsr.lend	a0
     e42:	030901        	l32r	a0, fffc1a68 <_etext+0xbff3ddd4>
     e45:	030100        	rsr.lend	a0
     e48:	030901        	l32r	a0, fffc1a6c <_etext+0xbff3ddd8>
     e4b:	030100        	rsr.lend	a0
     e4e:	030901        	l32r	a0, fffc1a74 <_etext+0xbff3dde0>
     e51:	030100        	rsr.lend	a0
     e54:	060901        	l32r	a0, fffc2678 <_etext+0xbff3e9e4>
     e57:	030100        	rsr.lend	a0
     e5a:	060901        	l32r	a0, fffc2680 <_etext+0xbff3e9ec>
     e5d:	030100        	rsr.lend	a0
     e60:	030901        	l32r	a0, fffc1a84 <_etext+0xbff3ddf0>
     e63:	030100        	rsr.lend	a0
     e66:	030901        	l32r	a0, fffc1a8c <_etext+0xbff3ddf8>
     e69:	030100        	rsr.lend	a0
     e6c:	030901        	l32r	a0, fffc1a90 <_etext+0xbff3ddfc>
     e6f:	030100        	rsr.lend	a0
     e72:	030901        	l32r	a0, fffc1a98 <_etext+0xbff3de04>
     e75:	030100        	rsr.lend	a0
     e78:	060901        	l32r	a0, fffc269c <_etext+0xbff3ea08>
     e7b:	030100        	rsr.lend	a0
     e7e:	060901        	l32r	a0, fffc26a4 <_etext+0xbff3ea10>
     e81:	090100        	l32e	a0, a1, -64
     e84:	000002        	l8ui	a0, a0, 0
     e87:	000101        	l32r	a0, fffc0e8c <_etext+0xbff3d1f8>
     e8a:	b00205        	call0	fffb0eac <_etext+0xbff2d218>
     e8d:	083b      	addi.n	a0, a8, 3
     e8f:	cb0340        	movf.s	f0, f3, b4
     e92:	030107        	bnone	a1, a0, e99 <EXCVADDR+0xdab>
     e95:	030901        	l32r	a0, fffc1abc <_etext+0xbff3de28>
     e98:	030100        	rsr.lend	a0
     e9b:	030901        	l32r	a0, fffc1ac0 <_etext+0xbff3de2c>
     e9e:	030100        	rsr.lend	a0
     ea1:	030901        	l32r	a0, fffc1ac8 <_etext+0xbff3de34>
     ea4:	030100        	rsr.lend	a0
     ea7:	060901        	l32r	a0, fffc26cc <_etext+0xbff3ea38>
     eaa:	090100        	l32e	a0, a1, -64
     ead:	000005        	call0	eb0 <EXCVADDR+0xdc2>
     eb0:	890101        	l32r	a0, fffe32b4 <_etext+0xbff5f620>
     eb3:	000006        	j	eb7 <EXCVADDR+0xdc9>
     eb6:	260002        	l8ui	a0, a0, 38
     eb9:	000000        	ill
     ebc:	fb0101        	l32r	a0, fffffac0 <_etext+0xbff7be2c>
     ebf:	0e          	.byte 0xe
     ec0:	000d      	mov.n	a0, a0
     ec2:	010101        	l32r	a0, fffc12c8 <_etext+0xbff3d634>
     ec5:	000001        	l32r	a0, fffc0ec8 <_etext+0xbff3d234>
     ec8:	000100        	lsi	f0, a1, 0
     ecb:	620100        	lsi	f0, a1, 0x188
     ece:	6c6975        	call12	6d564 <EXCVADDR+0x6d476>
     ed1:	000064        	lsi	f6, a0, 0
     ed4:	746942        	s32i	a4, a9, 0x1d0
     ed7:	6e7546        	j	1c8b0 <EXCVADDR+0x1c7c2>
     eda:	532e63        	lsi	f6, a14, 0x14c
     edd:	000100        	lsi	f0, a1, 0
     ee0:	000000        	ill
     ee3:	080205        	call0	8f04 <EXCVADDR+0x8e16>
     ee6:	0f          	.byte 0xf
     ee7:	4008      	l32i.n	a0, a0, 16
     ee9:	011a03        	lsi	f0, a10, 4
     eec:	090103        	lsi	f0, a1, 36
     eef:	010003        	lsi	f0, a0, 4
     ef2:	090103        	lsi	f0, a1, 36
     ef5:	010002        	l8ui	a0, a0, 1
     ef8:	090103        	lsi	f0, a1, 36
     efb:	010002        	l8ui	a0, a0, 1
     efe:	090103        	lsi	f0, a1, 36
     f01:	010002        	l8ui	a0, a0, 1
     f04:	090103        	lsi	f0, a1, 36
     f07:	010003        	lsi	f0, a0, 4
     f0a:	090103        	lsi	f0, a1, 36
     f0d:	010002        	l8ui	a0, a0, 1
     f10:	090103        	lsi	f0, a1, 36
     f13:	010002        	l8ui	a0, a0, 1
     f16:	090103        	lsi	f0, a1, 36
     f19:	010002        	l8ui	a0, a0, 1
     f1c:	090103        	lsi	f0, a1, 36
     f1f:	010002        	l8ui	a0, a0, 1
     f22:	090103        	lsi	f0, a1, 36
     f25:	010002        	l8ui	a0, a0, 1
     f28:	090103        	lsi	f0, a1, 36
     f2b:	010002        	l8ui	a0, a0, 1
     f2e:	090103        	lsi	f0, a1, 36
     f31:	010002        	l8ui	a0, a0, 1
     f34:	090103        	lsi	f0, a1, 36
     f37:	010006        	j	133b <EXCVADDR+0x124d>
     f3a:	090103        	lsi	f0, a1, 36
     f3d:	010002        	l8ui	a0, a0, 1
     f40:	090103        	lsi	f0, a1, 36
     f43:	010002        	l8ui	a0, a0, 1
     f46:	090103        	lsi	f0, a1, 36
     f49:	010002        	l8ui	a0, a0, 1
     f4c:	090103        	lsi	f0, a1, 36
     f4f:	010002        	l8ui	a0, a0, 1
     f52:	090103        	lsi	f0, a1, 36
     f55:	010003        	lsi	f0, a0, 4
     f58:	090103        	lsi	f0, a1, 36
     f5b:	010002        	l8ui	a0, a0, 1
     f5e:	090103        	lsi	f0, a1, 36
     f61:	010002        	l8ui	a0, a0, 1
     f64:	090103        	lsi	f0, a1, 36
     f67:	010003        	lsi	f0, a0, 4
     f6a:	090103        	lsi	f0, a1, 36
     f6d:	010002        	l8ui	a0, a0, 1
     f70:	090103        	lsi	f0, a1, 36
     f73:	010002        	l8ui	a0, a0, 1
     f76:	090103        	lsi	f0, a1, 36
     f79:	010003        	lsi	f0, a0, 4
     f7c:	090103        	lsi	f0, a1, 36
     f7f:	010002        	l8ui	a0, a0, 1
     f82:	090103        	lsi	f0, a1, 36
     f85:	010002        	l8ui	a0, a0, 1
     f88:	090103        	lsi	f0, a1, 36
     f8b:	010003        	lsi	f0, a0, 4
     f8e:	090203        	lsi	f0, a2, 36
     f91:	010003        	lsi	f0, a0, 4
     f94:	090103        	lsi	f0, a1, 36
     f97:	010002        	l8ui	a0, a0, 1
     f9a:	090103        	lsi	f0, a1, 36
     f9d:	010003        	lsi	f0, a0, 4
     fa0:	090203        	lsi	f0, a2, 36
     fa3:	010003        	lsi	f0, a0, 4
     fa6:	090103        	lsi	f0, a1, 36
     fa9:	010002        	l8ui	a0, a0, 1
     fac:	090103        	lsi	f0, a1, 36
     faf:	010003        	lsi	f0, a0, 4
     fb2:	090103        	lsi	f0, a1, 36
     fb5:	010003        	lsi	f0, a0, 4
     fb8:	090103        	lsi	f0, a1, 36
     fbb:	010002        	l8ui	a0, a0, 1
     fbe:	090103        	lsi	f0, a1, 36
     fc1:	010002        	l8ui	a0, a0, 1
     fc4:	090203        	lsi	f0, a2, 36
     fc7:	010003        	lsi	f0, a0, 4
     fca:	090103        	lsi	f0, a1, 36
     fcd:	010002        	l8ui	a0, a0, 1
     fd0:	090103        	lsi	f0, a1, 36
     fd3:	010002        	l8ui	a0, a0, 1
     fd6:	090103        	lsi	f0, a1, 36
     fd9:	010002        	l8ui	a0, a0, 1
     fdc:	090103        	lsi	f0, a1, 36
     fdf:	010002        	l8ui	a0, a0, 1
     fe2:	090103        	lsi	f0, a1, 36
     fe5:	010002        	l8ui	a0, a0, 1
     fe8:	090103        	lsi	f0, a1, 36
     feb:	010002        	l8ui	a0, a0, 1
     fee:	090303        	lsi	f0, a3, 36
     ff1:	010003        	lsi	f0, a0, 4
     ff4:	090103        	lsi	f0, a1, 36
     ff7:	010002        	l8ui	a0, a0, 1
     ffa:	090103        	lsi	f0, a1, 36
     ffd:	010002        	l8ui	a0, a0, 1
    1000:	090103        	lsi	f0, a1, 36
    1003:	010002        	l8ui	a0, a0, 1
    1006:	090103        	lsi	f0, a1, 36
    1009:	010002        	l8ui	a0, a0, 1
    100c:	090103        	lsi	f0, a1, 36
    100f:	010003        	lsi	f0, a0, 4
    1012:	090103        	lsi	f0, a1, 36
    1015:	010002        	l8ui	a0, a0, 1
    1018:	090103        	lsi	f0, a1, 36
    101b:	010002        	l8ui	a0, a0, 1
    101e:	090103        	lsi	f0, a1, 36
    1021:	010002        	l8ui	a0, a0, 1
    1024:	090103        	lsi	f0, a1, 36
    1027:	010002        	l8ui	a0, a0, 1
    102a:	090103        	lsi	f0, a1, 36
    102d:	010002        	l8ui	a0, a0, 1
    1030:	090103        	lsi	f0, a1, 36
    1033:	010002        	l8ui	a0, a0, 1
    1036:	090103        	lsi	f0, a1, 36
    1039:	010002        	l8ui	a0, a0, 1
    103c:	090103        	lsi	f0, a1, 36
    103f:	010002        	l8ui	a0, a0, 1
    1042:	090103        	lsi	f0, a1, 36
    1045:	010003        	lsi	f0, a0, 4
    1048:	090103        	lsi	f0, a1, 36
    104b:	010002        	l8ui	a0, a0, 1
    104e:	090103        	lsi	f0, a1, 36
    1051:	010002        	l8ui	a0, a0, 1
    1054:	090103        	lsi	f0, a1, 36
    1057:	010003        	lsi	f0, a0, 4
    105a:	090103        	lsi	f0, a1, 36
    105d:	010003        	lsi	f0, a0, 4
    1060:	090103        	lsi	f0, a1, 36
    1063:	010003        	lsi	f0, a0, 4
    1066:	090103        	lsi	f0, a1, 36
    1069:	010003        	lsi	f0, a0, 4
    106c:	090103        	lsi	f0, a1, 36
    106f:	010002        	l8ui	a0, a0, 1
    1072:	090103        	lsi	f0, a1, 36
    1075:	010002        	l8ui	a0, a0, 1
    1078:	090103        	lsi	f0, a1, 36
    107b:	010003        	lsi	f0, a0, 4
    107e:	090103        	lsi	f0, a1, 36
    1081:	010003        	lsi	f0, a0, 4
    1084:	090103        	lsi	f0, a1, 36
    1087:	010002        	l8ui	a0, a0, 1
    108a:	090103        	lsi	f0, a1, 36
    108d:	010002        	l8ui	a0, a0, 1
    1090:	090103        	lsi	f0, a1, 36
    1093:	010003        	lsi	f0, a0, 4
    1096:	090103        	lsi	f0, a1, 36
    1099:	010003        	lsi	f0, a0, 4
    109c:	090203        	lsi	f0, a2, 36
    109f:	010002        	l8ui	a0, a0, 1
    10a2:	090103        	lsi	f0, a1, 36
    10a5:	010002        	l8ui	a0, a0, 1
    10a8:	090103        	lsi	f0, a1, 36
    10ab:	010002        	l8ui	a0, a0, 1
    10ae:	090103        	lsi	f0, a1, 36
    10b1:	010002        	l8ui	a0, a0, 1
    10b4:	090203        	lsi	f0, a2, 36
    10b7:	010002        	l8ui	a0, a0, 1
    10ba:	090203        	lsi	f0, a2, 36
    10bd:	010003        	lsi	f0, a0, 4
    10c0:	090103        	lsi	f0, a1, 36
    10c3:	010002        	l8ui	a0, a0, 1
    10c6:	090103        	lsi	f0, a1, 36
    10c9:	010002        	l8ui	a0, a0, 1
    10cc:	090103        	lsi	f0, a1, 36
    10cf:	010002        	l8ui	a0, a0, 1
    10d2:	090103        	lsi	f0, a1, 36
    10d5:	010002        	l8ui	a0, a0, 1
    10d8:	090103        	lsi	f0, a1, 36
    10db:	010003        	lsi	f0, a0, 4
    10de:	090103        	lsi	f0, a1, 36
    10e1:	010002        	l8ui	a0, a0, 1
    10e4:	090103        	lsi	f0, a1, 36
    10e7:	010002        	l8ui	a0, a0, 1
    10ea:	090103        	lsi	f0, a1, 36
    10ed:	010002        	l8ui	a0, a0, 1
    10f0:	090103        	lsi	f0, a1, 36
    10f3:	010002        	l8ui	a0, a0, 1
    10f6:	090103        	lsi	f0, a1, 36
    10f9:	010002        	l8ui	a0, a0, 1
    10fc:	090103        	lsi	f0, a1, 36
    10ff:	010002        	l8ui	a0, a0, 1
    1102:	090103        	lsi	f0, a1, 36
    1105:	010002        	l8ui	a0, a0, 1
    1108:	090103        	lsi	f0, a1, 36
    110b:	010002        	l8ui	a0, a0, 1
    110e:	090103        	lsi	f0, a1, 36
    1111:	010003        	lsi	f0, a0, 4
    1114:	090103        	lsi	f0, a1, 36
    1117:	010002        	l8ui	a0, a0, 1
    111a:	090103        	lsi	f0, a1, 36
    111d:	010002        	l8ui	a0, a0, 1
    1120:	090103        	lsi	f0, a1, 36
    1123:	010002        	l8ui	a0, a0, 1
    1126:	090103        	lsi	f0, a1, 36
    1129:	010002        	l8ui	a0, a0, 1
    112c:	090103        	lsi	f0, a1, 36
    112f:	010002        	l8ui	a0, a0, 1
    1132:	090103        	lsi	f0, a1, 36
    1135:	010002        	l8ui	a0, a0, 1
    1138:	090103        	lsi	f0, a1, 36
    113b:	010002        	l8ui	a0, a0, 1
    113e:	090103        	lsi	f0, a1, 36
    1141:	010002        	l8ui	a0, a0, 1
    1144:	090103        	lsi	f0, a1, 36
    1147:	010002        	l8ui	a0, a0, 1
    114a:	090103        	lsi	f0, a1, 36
    114d:	010003        	lsi	f0, a0, 4
    1150:	090103        	lsi	f0, a1, 36
    1153:	010002        	l8ui	a0, a0, 1
    1156:	090103        	lsi	f0, a1, 36
    1159:	010002        	l8ui	a0, a0, 1
    115c:	090103        	lsi	f0, a1, 36
    115f:	010003        	lsi	f0, a0, 4
    1162:	090103        	lsi	f0, a1, 36
    1165:	010003        	lsi	f0, a0, 4
    1168:	090103        	lsi	f0, a1, 36
    116b:	010003        	lsi	f0, a0, 4
    116e:	090103        	lsi	f0, a1, 36
    1171:	010003        	lsi	f0, a0, 4
    1174:	090103        	lsi	f0, a1, 36
    1177:	010002        	l8ui	a0, a0, 1
    117a:	090103        	lsi	f0, a1, 36
    117d:	010003        	lsi	f0, a0, 4
    1180:	090103        	lsi	f0, a1, 36
    1183:	010003        	lsi	f0, a0, 4
    1186:	090103        	lsi	f0, a1, 36
    1189:	010003        	lsi	f0, a0, 4
    118c:	090203        	lsi	f0, a2, 36
    118f:	010003        	lsi	f0, a0, 4
    1192:	090103        	lsi	f0, a1, 36
    1195:	010002        	l8ui	a0, a0, 1
    1198:	090103        	lsi	f0, a1, 36
    119b:	010002        	l8ui	a0, a0, 1
    119e:	090103        	lsi	f0, a1, 36
    11a1:	010003        	lsi	f0, a0, 4
    11a4:	090103        	lsi	f0, a1, 36
    11a7:	010003        	lsi	f0, a0, 4
    11aa:	090103        	lsi	f0, a1, 36
    11ad:	010002        	l8ui	a0, a0, 1
    11b0:	090103        	lsi	f0, a1, 36
    11b3:	010002        	l8ui	a0, a0, 1
    11b6:	090103        	lsi	f0, a1, 36
    11b9:	010003        	lsi	f0, a0, 4
    11bc:	090103        	lsi	f0, a1, 36
    11bf:	010003        	lsi	f0, a0, 4
    11c2:	090103        	lsi	f0, a1, 36
    11c5:	010002        	l8ui	a0, a0, 1
    11c8:	090103        	lsi	f0, a1, 36
    11cb:	010002        	l8ui	a0, a0, 1
    11ce:	090103        	lsi	f0, a1, 36
    11d1:	010003        	lsi	f0, a0, 4
    11d4:	090103        	lsi	f0, a1, 36
    11d7:	010003        	lsi	f0, a0, 4
    11da:	090103        	lsi	f0, a1, 36
    11dd:	010003        	lsi	f0, a0, 4
    11e0:	090203        	lsi	f0, a2, 36
    11e3:	010002        	l8ui	a0, a0, 1
    11e6:	090103        	lsi	f0, a1, 36
    11e9:	010002        	l8ui	a0, a0, 1
    11ec:	090103        	lsi	f0, a1, 36
    11ef:	010002        	l8ui	a0, a0, 1
    11f2:	090103        	lsi	f0, a1, 36
    11f5:	010002        	l8ui	a0, a0, 1
    11f8:	090203        	lsi	f0, a2, 36
    11fb:	010002        	l8ui	a0, a0, 1
    11fe:	090303        	lsi	f0, a3, 36
    1201:	010003        	lsi	f0, a0, 4
    1204:	090103        	lsi	f0, a1, 36
    1207:	010002        	l8ui	a0, a0, 1
    120a:	090103        	lsi	f0, a1, 36
    120d:	010002        	l8ui	a0, a0, 1
    1210:	091803        	lsi	f0, a8, 36
    1213:	004d      	mov.n	a4, a0
    1215:	010301        	l32r	a0, fffc1624 <_etext+0xbff3d990>
    1218:	0209      	s32i.n	a0, a2, 0
    121a:	030100        	rsr.lend	a0
    121d:	120906        	j	5a45 <EXCVADDR+0x5957>
    1220:	030100        	rsr.lend	a0
    1223:	030901        	l32r	a0, fffc1e48 <_etext+0xbff3e1b4>
    1226:	030100        	rsr.lend	a0
    1229:	030901        	l32r	a0, fffc1e50 <_etext+0xbff3e1bc>
    122c:	030100        	rsr.lend	a0
    122f:	030901        	l32r	a0, fffc1e54 <_etext+0xbff3e1c0>
    1232:	030100        	rsr.lend	a0
    1235:	020901        	l32r	a0, fffc1a5c <_etext+0xbff3ddc8>
    1238:	030100        	rsr.lend	a0
    123b:	060901        	l32r	a0, fffc2a60 <_etext+0xbff3edcc>
    123e:	030100        	rsr.lend	a0
    1241:	060901        	l32r	a0, fffc2a68 <_etext+0xbff3edd4>
    1244:	030100        	rsr.lend	a0
    1247:	030901        	l32r	a0, fffc1e6c <_etext+0xbff3e1d8>
    124a:	030100        	rsr.lend	a0
    124d:	060901        	l32r	a0, fffc2a74 <_etext+0xbff3ede0>
    1250:	030100        	rsr.lend	a0
    1253:	020901        	l32r	a0, fffc1a78 <_etext+0xbff3dde4>
    1256:	030100        	rsr.lend	a0
    1259:	030901        	l32r	a0, fffc1e80 <_etext+0xbff3e1ec>
    125c:	030100        	rsr.lend	a0
    125f:	030901        	l32r	a0, fffc1e84 <_etext+0xbff3e1f0>
    1262:	030100        	rsr.lend	a0
    1265:	030901        	l32r	a0, fffc1e8c <_etext+0xbff3e1f8>
    1268:	030100        	rsr.lend	a0
    126b:	030901        	l32r	a0, fffc1e90 <_etext+0xbff3e1fc>
    126e:	030100        	rsr.lend	a0
    1271:	030901        	l32r	a0, fffc1e98 <_etext+0xbff3e204>
    1274:	030100        	rsr.lend	a0
    1277:	030901        	l32r	a0, fffc1e9c <_etext+0xbff3e208>
    127a:	030100        	rsr.lend	a0
    127d:	030901        	l32r	a0, fffc1ea4 <_etext+0xbff3e210>
    1280:	030100        	rsr.lend	a0
    1283:	030901        	l32r	a0, fffc1ea8 <_etext+0xbff3e214>
    1286:	030100        	rsr.lend	a0
    1289:	030901        	l32r	a0, fffc1eb0 <_etext+0xbff3e21c>
    128c:	030100        	rsr.lend	a0
    128f:	030901        	l32r	a0, fffc1eb4 <_etext+0xbff3e220>
    1292:	030100        	rsr.lend	a0
    1295:	030901        	l32r	a0, fffc1ebc <_etext+0xbff3e228>
    1298:	030100        	rsr.lend	a0
    129b:	030901        	l32r	a0, fffc1ec0 <_etext+0xbff3e22c>
    129e:	030100        	rsr.lend	a0
    12a1:	030901        	l32r	a0, fffc1ec8 <_etext+0xbff3e234>
    12a4:	030100        	rsr.lend	a0
    12a7:	030901        	l32r	a0, fffc1ecc <_etext+0xbff3e238>
    12aa:	030100        	rsr.lend	a0
    12ad:	030901        	l32r	a0, fffc1ed4 <_etext+0xbff3e240>
    12b0:	030100        	rsr.lend	a0
    12b3:	030901        	l32r	a0, fffc1ed8 <_etext+0xbff3e244>
    12b6:	030100        	rsr.lend	a0
    12b9:	030901        	l32r	a0, fffc1ee0 <_etext+0xbff3e24c>
    12bc:	030100        	rsr.lend	a0
    12bf:	030901        	l32r	a0, fffc1ee4 <_etext+0xbff3e250>
    12c2:	030100        	rsr.lend	a0
    12c5:	030901        	l32r	a0, fffc1eec <_etext+0xbff3e258>
    12c8:	030100        	rsr.lend	a0
    12cb:	030901        	l32r	a0, fffc1ef0 <_etext+0xbff3e25c>
    12ce:	030100        	rsr.lend	a0
    12d1:	030901        	l32r	a0, fffc1ef8 <_etext+0xbff3e264>
    12d4:	030100        	rsr.lend	a0
    12d7:	030901        	l32r	a0, fffc1efc <_etext+0xbff3e268>
    12da:	030100        	rsr.lend	a0
    12dd:	030901        	l32r	a0, fffc1f04 <_etext+0xbff3e270>
    12e0:	030100        	rsr.lend	a0
    12e3:	030901        	l32r	a0, fffc1f08 <_etext+0xbff3e274>
    12e6:	030100        	rsr.lend	a0
    12e9:	030901        	l32r	a0, fffc1f10 <_etext+0xbff3e27c>
    12ec:	030100        	rsr.lend	a0
    12ef:	030901        	l32r	a0, fffc1f14 <_etext+0xbff3e280>
    12f2:	030100        	rsr.lend	a0
    12f5:	030901        	l32r	a0, fffc1f1c <_etext+0xbff3e288>
    12f8:	030100        	rsr.lend	a0
    12fb:	030901        	l32r	a0, fffc1f20 <_etext+0xbff3e28c>
    12fe:	030100        	rsr.lend	a0
    1301:	030901        	l32r	a0, fffc1f28 <_etext+0xbff3e294>
    1304:	030100        	rsr.lend	a0
    1307:	020901        	l32r	a0, fffc1b2c <_etext+0xbff3de98>
    130a:	030100        	rsr.lend	a0
    130d:	030901        	l32r	a0, fffc1f34 <_etext+0xbff3e2a0>
    1310:	030100        	rsr.lend	a0
    1313:	020901        	l32r	a0, fffc1b38 <_etext+0xbff3dea4>
    1316:	030100        	rsr.lend	a0
    1319:	030901        	l32r	a0, fffc1f40 <_etext+0xbff3e2ac>
    131c:	030100        	rsr.lend	a0
    131f:	020901        	l32r	a0, fffc1b44 <_etext+0xbff3deb0>
    1322:	030100        	rsr.lend	a0
    1325:	030901        	l32r	a0, fffc1f4c <_etext+0xbff3e2b8>
    1328:	030100        	rsr.lend	a0
    132b:	020901        	l32r	a0, fffc1b50 <_etext+0xbff3debc>
    132e:	030100        	rsr.lend	a0
    1331:	020901        	l32r	a0, fffc1b58 <_etext+0xbff3dec4>
    1334:	030100        	rsr.lend	a0
    1337:	030901        	l32r	a0, fffc1f5c <_etext+0xbff3e2c8>
    133a:	030100        	rsr.lend	a0
    133d:	020901        	l32r	a0, fffc1b64 <_etext+0xbff3ded0>
    1340:	030100        	rsr.lend	a0
    1343:	030901        	l32r	a0, fffc1f68 <_etext+0xbff3e2d4>
    1346:	030100        	rsr.lend	a0
    1349:	020901        	l32r	a0, fffc1b70 <_etext+0xbff3dedc>
    134c:	030100        	rsr.lend	a0
    134f:	030901        	l32r	a0, fffc1f74 <_etext+0xbff3e2e0>
    1352:	030100        	rsr.lend	a0
    1355:	020901        	l32r	a0, fffc1b7c <_etext+0xbff3dee8>
    1358:	030100        	rsr.lend	a0
    135b:	030901        	l32r	a0, fffc1f80 <_etext+0xbff3e2ec>
    135e:	030100        	rsr.lend	a0
    1361:	020901        	l32r	a0, fffc1b88 <_etext+0xbff3def4>
    1364:	030100        	rsr.lend	a0
    1367:	030901        	l32r	a0, fffc1f8c <_etext+0xbff3e2f8>
    136a:	030100        	rsr.lend	a0
    136d:	020901        	l32r	a0, fffc1b94 <_etext+0xbff3df00>
    1370:	030100        	rsr.lend	a0
    1373:	020901        	l32r	a0, fffc1b98 <_etext+0xbff3df04>
    1376:	030100        	rsr.lend	a0
    1379:	020901        	l32r	a0, fffc1ba0 <_etext+0xbff3df0c>
    137c:	030100        	rsr.lend	a0
    137f:	020901        	l32r	a0, fffc1ba4 <_etext+0xbff3df10>
    1382:	030100        	rsr.lend	a0
    1385:	020901        	l32r	a0, fffc1bac <_etext+0xbff3df18>
    1388:	030100        	rsr.lend	a0
    138b:	020901        	l32r	a0, fffc1bb0 <_etext+0xbff3df1c>
    138e:	030100        	rsr.lend	a0
    1391:	020901        	l32r	a0, fffc1bb8 <_etext+0xbff3df24>
    1394:	030100        	rsr.lend	a0
    1397:	020901        	l32r	a0, fffc1bbc <_etext+0xbff3df28>
    139a:	030100        	rsr.lend	a0
    139d:	030901        	l32r	a0, fffc1fc4 <_etext+0xbff3e330>
    13a0:	030100        	rsr.lend	a0
    13a3:	030901        	l32r	a0, fffc1fc8 <_etext+0xbff3e334>
    13a6:	030100        	rsr.lend	a0
    13a9:	030901        	l32r	a0, fffc1fd0 <_etext+0xbff3e33c>
    13ac:	030100        	rsr.lend	a0
    13af:	020901        	l32r	a0, fffc1bd4 <_etext+0xbff3df40>
    13b2:	030100        	rsr.lend	a0
    13b5:	020902        	l8ui	a0, a9, 2
    13b8:	030100        	rsr.lend	a0
    13bb:	020901        	l32r	a0, fffc1be0 <_etext+0xbff3df4c>
    13be:	030100        	rsr.lend	a0
    13c1:	020901        	l32r	a0, fffc1be8 <_etext+0xbff3df54>
    13c4:	030100        	rsr.lend	a0
    13c7:	060901        	l32r	a0, fffc2bec <_etext+0xbff3ef58>
    13ca:	030100        	rsr.lend	a0
    13cd:	020901        	l32r	a0, fffc1bf4 <_etext+0xbff3df60>
    13d0:	030100        	rsr.lend	a0
    13d3:	030901        	l32r	a0, fffc1ff8 <_etext+0xbff3e364>
    13d6:	030100        	rsr.lend	a0
    13d9:	020901        	l32r	a0, fffc1c00 <_etext+0xbff3df6c>
    13dc:	030100        	rsr.lend	a0
    13df:	020901        	l32r	a0, fffc1c04 <_etext+0xbff3df70>
    13e2:	030100        	rsr.lend	a0
    13e5:	020901        	l32r	a0, fffc1c0c <_etext+0xbff3df78>
    13e8:	030100        	rsr.lend	a0
    13eb:	030901        	l32r	a0, fffc2010 <_etext+0xbff3e37c>
    13ee:	030100        	rsr.lend	a0
    13f1:	020901        	l32r	a0, fffc1c18 <_etext+0xbff3df84>
    13f4:	030100        	rsr.lend	a0
    13f7:	060902        	l8ui	a0, a9, 6
    13fa:	030100        	rsr.lend	a0
    13fd:	020902        	l8ui	a0, a9, 2
    1400:	030100        	rsr.lend	a0
    1403:	030901        	l32r	a0, fffc2028 <_etext+0xbff3e394>
    1406:	030100        	rsr.lend	a0
    1409:	030901        	l32r	a0, fffc2030 <_etext+0xbff3e39c>
    140c:	030100        	rsr.lend	a0
    140f:	020901        	l32r	a0, fffc1c34 <_etext+0xbff3dfa0>
    1412:	030100        	rsr.lend	a0
    1415:	060901        	l32r	a0, fffc2c3c <_etext+0xbff3efa8>
    1418:	030100        	rsr.lend	a0
    141b:	020901        	l32r	a0, fffc1c40 <_etext+0xbff3dfac>
    141e:	030100        	rsr.lend	a0
    1421:	030901        	l32r	a0, fffc2048 <_etext+0xbff3e3b4>
    1424:	030100        	rsr.lend	a0
    1427:	020901        	l32r	a0, fffc1c4c <_etext+0xbff3dfb8>
    142a:	030100        	rsr.lend	a0
    142d:	020901        	l32r	a0, fffc1c54 <_etext+0xbff3dfc0>
    1430:	030100        	rsr.lend	a0
    1433:	020901        	l32r	a0, fffc1c58 <_etext+0xbff3dfc4>
    1436:	030100        	rsr.lend	a0
    1439:	030901        	l32r	a0, fffc2060 <_etext+0xbff3e3cc>
    143c:	030100        	rsr.lend	a0
    143f:	030901        	l32r	a0, fffc2064 <_etext+0xbff3e3d0>
    1442:	030100        	rsr.lend	a0
    1445:	030901        	l32r	a0, fffc206c <_etext+0xbff3e3d8>
    1448:	030100        	rsr.lend	a0
    144b:	020901        	l32r	a0, fffc1c70 <_etext+0xbff3dfdc>
    144e:	030100        	rsr.lend	a0
    1451:	060901        	l32r	a0, fffc2c78 <_etext+0xbff3efe4>
    1454:	030100        	rsr.lend	a0
    1457:	020901        	l32r	a0, fffc1c7c <_etext+0xbff3dfe8>
    145a:	030100        	rsr.lend	a0
    145d:	030901        	l32r	a0, fffc2084 <_etext+0xbff3e3f0>
    1460:	030100        	rsr.lend	a0
    1463:	020901        	l32r	a0, fffc1c88 <_etext+0xbff3dff4>
    1466:	030100        	rsr.lend	a0
    1469:	020901        	l32r	a0, fffc1c90 <_etext+0xbff3dffc>
    146c:	030100        	rsr.lend	a0
    146f:	020901        	l32r	a0, fffc1c94 <_etext+0xbff3e000>
    1472:	030100        	rsr.lend	a0
    1475:	060901        	l32r	a0, fffc2c9c <_etext+0xbff3f008>
    1478:	030100        	rsr.lend	a0
    147b:	030901        	l32r	a0, fffc20a0 <_etext+0xbff3e40c>
    147e:	030100        	rsr.lend	a0
    1481:	030901        	l32r	a0, fffc20a8 <_etext+0xbff3e414>
    1484:	030100        	rsr.lend	a0
    1487:	030901        	l32r	a0, fffc20ac <_etext+0xbff3e418>
    148a:	030100        	rsr.lend	a0
    148d:	060901        	l32r	a0, fffc2cb4 <_etext+0xbff3f020>
    1490:	030100        	rsr.lend	a0
    1493:	030901        	l32r	a0, fffc20b8 <_etext+0xbff3e424>
    1496:	030100        	rsr.lend	a0
    1499:	030901        	l32r	a0, fffc20c0 <_etext+0xbff3e42c>
    149c:	030100        	rsr.lend	a0
    149f:	060901        	l32r	a0, fffc2cc4 <_etext+0xbff3f030>
    14a2:	030100        	rsr.lend	a0
    14a5:	060902        	l8ui	a0, a9, 6
    14a8:	030100        	rsr.lend	a0
    14ab:	020901        	l32r	a0, fffc1cd0 <_etext+0xbff3e03c>
    14ae:	030100        	rsr.lend	a0
    14b1:	020901        	l32r	a0, fffc1cd8 <_etext+0xbff3e044>
    14b4:	030100        	rsr.lend	a0
    14b7:	030901        	l32r	a0, fffc20dc <_etext+0xbff3e448>
    14ba:	030100        	rsr.lend	a0
    14bd:	030901        	l32r	a0, fffc20e4 <_etext+0xbff3e450>
    14c0:	030100        	rsr.lend	a0
    14c3:	020901        	l32r	a0, fffc1ce8 <_etext+0xbff3e054>
    14c6:	030100        	rsr.lend	a0
    14c9:	020901        	l32r	a0, fffc1cf0 <_etext+0xbff3e05c>
    14cc:	030100        	rsr.lend	a0
    14cf:	030901        	l32r	a0, fffc20f4 <_etext+0xbff3e460>
    14d2:	030100        	rsr.lend	a0
    14d5:	020901        	l32r	a0, fffc1cfc <_etext+0xbff3e068>
    14d8:	030100        	rsr.lend	a0
    14db:	020901        	l32r	a0, fffc1d00 <_etext+0xbff3e06c>
    14de:	030100        	rsr.lend	a0
    14e1:	020901        	l32r	a0, fffc1d08 <_etext+0xbff3e074>
    14e4:	030100        	rsr.lend	a0
    14e7:	030902        	l8ui	a0, a9, 3
    14ea:	030100        	rsr.lend	a0
    14ed:	060901        	l32r	a0, fffc2d14 <_etext+0xbff3f080>
    14f0:	030100        	rsr.lend	a0
    14f3:	030901        	l32r	a0, fffc2118 <_etext+0xbff3e484>
    14f6:	030100        	rsr.lend	a0
    14f9:	030901        	l32r	a0, fffc2120 <_etext+0xbff3e48c>
    14fc:	030100        	rsr.lend	a0
    14ff:	020901        	l32r	a0, fffc1d24 <_etext+0xbff3e090>
    1502:	030100        	rsr.lend	a0
    1505:	060901        	l32r	a0, fffc2d2c <_etext+0xbff3f098>
    1508:	030100        	rsr.lend	a0
    150b:	060901        	l32r	a0, fffc2d30 <_etext+0xbff3f09c>
    150e:	090100        	l32e	a0, a1, -64
    1511:	000002        	l8ui	a0, a0, 0
    1514:	000101        	l32r	a0, fffc1518 <_etext+0xbff3d884>
    1517:	c80205        	call0	fffc9538 <_etext+0xbff458a4>
    151a:	083b      	addi.n	a0, a8, 3
    151c:	d60340        	lsi	f4, a3, 0x358
    151f:	030102        	l8ui	a0, a1, 3
    1522:	030901        	l32r	a0, fffc2148 <_etext+0xbff3e4b4>
    1525:	030100        	rsr.lend	a0
    1528:	030901        	l32r	a0, fffc214c <_etext+0xbff3e4b8>
    152b:	030100        	rsr.lend	a0
    152e:	030901        	l32r	a0, fffc2154 <_etext+0xbff3e4c0>
    1531:	030100        	rsr.lend	a0
    1534:	060901        	l32r	a0, fffc2d58 <_etext+0xbff3f0c4>
    1537:	090100        	l32e	a0, a1, -64
    153a:	000005        	call0	153c <EXCVADDR+0x144e>
    153d:	550101        	l32r	a0, fffd6944 <_etext+0xbff52cb0>
    1540:	0e          	.byte 0xe
    1541:	020000        	andb	b0, b0, b0
    1544:	002f00        	lsi	f0, a15, 0
    1547:	010000        	slli	a0, a0, 32
    154a:	0efb01        	l32r	a0, fffc5138 <_etext+0xbff414a4>
    154d:	000d      	mov.n	a0, a0
    154f:	010101        	l32r	a0, fffc1954 <_etext+0xbff3dcc0>
    1552:	000001        	l32r	a0, fffc1554 <_etext+0xbff3d8c0>
    1555:	000100        	lsi	f0, a1, 0
    1558:	620100        	lsi	f0, a1, 0x188
    155b:	6c6975        	call12	6dbf0 <EXCVADDR+0x6db02>
    155e:	000064        	lsi	f6, a0, 0
    1561:	727241        	l32r	a4, fffddf2c <_etext+0xbff5a298>
    1564:	417961        	l32r	a6, fffd1b48 <_etext+0xbff4deb4>
    1567:	697373        	lsi	f7, a3, 0x1a4
    156a:	6d6e67        	bbci	a14, 6, 15db <EXCVADDR+0x14ed>
    156d:	746e65        	call8	75c54 <EXCVADDR+0x75b66>
    1570:	532e73        	lsi	f7, a14, 0x14c
    1573:	000100        	lsi	f0, a1, 0
    1576:	000000        	ill
    1579:	200205        	call0	2159c <EXCVADDR+0x214ae>
    157c:	400812        	l8ui	a1, a8, 64
    157f:	00c903        	ssip	f0, a9, 0
    1582:	010301        	l32r	a0, fffc1990 <_etext+0xbff3dcfc>
    1585:	0309      	s32i.n	a0, a3, 0
    1587:	030100        	rsr.lend	a0
    158a:	020901        	l32r	a0, fffc1db0 <_etext+0xbff3e11c>
    158d:	030100        	rsr.lend	a0
    1590:	020901        	l32r	a0, fffc1db4 <_etext+0xbff3e120>
    1593:	030100        	rsr.lend	a0
    1596:	030901        	l32r	a0, fffc21bc <_etext+0xbff3e528>
    1599:	030100        	rsr.lend	a0
    159c:	030901        	l32r	a0, fffc21c0 <_etext+0xbff3e52c>
    159f:	030100        	rsr.lend	a0
    15a2:	020901        	l32r	a0, fffc1dc8 <_etext+0xbff3e134>
    15a5:	030100        	rsr.lend	a0
    15a8:	060901        	l32r	a0, fffc2dcc <_etext+0xbff3f138>
    15ab:	030100        	rsr.lend	a0
    15ae:	060901        	l32r	a0, fffc2dd4 <_etext+0xbff3f140>
    15b1:	030100        	rsr.lend	a0
    15b4:	030901        	l32r	a0, fffc21d8 <_etext+0xbff3e544>
    15b7:	030100        	rsr.lend	a0
    15ba:	060901        	l32r	a0, fffc2de0 <_etext+0xbff3f14c>
    15bd:	030100        	rsr.lend	a0
    15c0:	020901        	l32r	a0, fffc1de4 <_etext+0xbff3e150>
    15c3:	030100        	rsr.lend	a0
    15c6:	020901        	l32r	a0, fffc1dec <_etext+0xbff3e158>
    15c9:	030100        	rsr.lend	a0
    15cc:	020901        	l32r	a0, fffc1df0 <_etext+0xbff3e15c>
    15cf:	030100        	rsr.lend	a0
    15d2:	030901        	l32r	a0, fffc21f8 <_etext+0xbff3e564>
    15d5:	030100        	rsr.lend	a0
    15d8:	020901        	l32r	a0, fffc1dfc <_etext+0xbff3e168>
    15db:	030100        	rsr.lend	a0
    15de:	030901        	l32r	a0, fffc2204 <_etext+0xbff3e570>
    15e1:	030100        	rsr.lend	a0
    15e4:	020901        	l32r	a0, fffc1e08 <_etext+0xbff3e174>
    15e7:	030100        	rsr.lend	a0
    15ea:	020901        	l32r	a0, fffc1e10 <_etext+0xbff3e17c>
    15ed:	030100        	rsr.lend	a0
    15f0:	020901        	l32r	a0, fffc1e14 <_etext+0xbff3e180>
    15f3:	030100        	rsr.lend	a0
    15f6:	020902        	l8ui	a0, a9, 2
    15f9:	030100        	rsr.lend	a0
    15fc:	020901        	l32r	a0, fffc1e20 <_etext+0xbff3e18c>
    15ff:	030100        	rsr.lend	a0
    1602:	020901        	l32r	a0, fffc1e28 <_etext+0xbff3e194>
    1605:	030100        	rsr.lend	a0
    1608:	030901        	l32r	a0, fffc222c <_etext+0xbff3e598>
    160b:	030100        	rsr.lend	a0
    160e:	020901        	l32r	a0, fffc1e34 <_etext+0xbff3e1a0>
    1611:	030100        	rsr.lend	a0
    1614:	020901        	l32r	a0, fffc1e38 <_etext+0xbff3e1a4>
    1617:	030100        	rsr.lend	a0
    161a:	030901        	l32r	a0, fffc2240 <_etext+0xbff3e5ac>
    161d:	030100        	rsr.lend	a0
    1620:	020901        	l32r	a0, fffc1e44 <_etext+0xbff3e1b0>
    1623:	030100        	rsr.lend	a0
    1626:	020901        	l32r	a0, fffc1e4c <_etext+0xbff3e1b8>
    1629:	030100        	rsr.lend	a0
    162c:	030901        	l32r	a0, fffc2250 <_etext+0xbff3e5bc>
    162f:	030100        	rsr.lend	a0
    1632:	020901        	l32r	a0, fffc1e58 <_etext+0xbff3e1c4>
    1635:	030100        	rsr.lend	a0
    1638:	030902        	l8ui	a0, a9, 3
    163b:	030100        	rsr.lend	a0
    163e:	020902        	l8ui	a0, a9, 2
    1641:	030100        	rsr.lend	a0
    1644:	030901        	l32r	a0, fffc2268 <_etext+0xbff3e5d4>
    1647:	030100        	rsr.lend	a0
    164a:	030901        	l32r	a0, fffc2270 <_etext+0xbff3e5dc>
    164d:	030100        	rsr.lend	a0
    1650:	020901        	l32r	a0, fffc1e74 <_etext+0xbff3e1e0>
    1653:	030100        	rsr.lend	a0
    1656:	060901        	l32r	a0, fffc2e7c <_etext+0xbff3f1e8>
    1659:	030100        	rsr.lend	a0
    165c:	020901        	l32r	a0, fffc1e80 <_etext+0xbff3e1ec>
    165f:	030100        	rsr.lend	a0
    1662:	020901        	l32r	a0, fffc1e88 <_etext+0xbff3e1f4>
    1665:	030100        	rsr.lend	a0
    1668:	020901        	l32r	a0, fffc1e8c <_etext+0xbff3e1f8>
    166b:	030100        	rsr.lend	a0
    166e:	020901        	l32r	a0, fffc1e94 <_etext+0xbff3e200>
    1671:	030100        	rsr.lend	a0
    1674:	030901        	l32r	a0, fffc2298 <_etext+0xbff3e604>
    1677:	030100        	rsr.lend	a0
    167a:	020901        	l32r	a0, fffc1ea0 <_etext+0xbff3e20c>
    167d:	030100        	rsr.lend	a0
    1680:	020901        	l32r	a0, fffc1ea4 <_etext+0xbff3e210>
    1683:	030100        	rsr.lend	a0
    1686:	030901        	l32r	a0, fffc22ac <_etext+0xbff3e618>
    1689:	030100        	rsr.lend	a0
    168c:	020901        	l32r	a0, fffc1eb0 <_etext+0xbff3e21c>
    168f:	030100        	rsr.lend	a0
    1692:	040902        	l8ui	a0, a9, 4
    1695:	030100        	rsr.lend	a0
    1698:	020902        	l8ui	a0, a9, 2
    169b:	030100        	rsr.lend	a0
    169e:	030901        	l32r	a0, fffc22c4 <_etext+0xbff3e630>
    16a1:	030100        	rsr.lend	a0
    16a4:	030901        	l32r	a0, fffc22c8 <_etext+0xbff3e634>
    16a7:	030100        	rsr.lend	a0
    16aa:	020901        	l32r	a0, fffc1ed0 <_etext+0xbff3e23c>
    16ad:	030100        	rsr.lend	a0
    16b0:	060901        	l32r	a0, fffc2ed4 <_etext+0xbff3f240>
    16b3:	030100        	rsr.lend	a0
    16b6:	020901        	l32r	a0, fffc1edc <_etext+0xbff3e248>
    16b9:	030100        	rsr.lend	a0
    16bc:	020901        	l32r	a0, fffc1ee0 <_etext+0xbff3e24c>
    16bf:	030100        	rsr.lend	a0
    16c2:	020901        	l32r	a0, fffc1ee8 <_etext+0xbff3e254>
    16c5:	030100        	rsr.lend	a0
    16c8:	030901        	l32r	a0, fffc22ec <_etext+0xbff3e658>
    16cb:	030100        	rsr.lend	a0
    16ce:	020901        	l32r	a0, fffc1ef4 <_etext+0xbff3e260>
    16d1:	030100        	rsr.lend	a0
    16d4:	020901        	l32r	a0, fffc1ef8 <_etext+0xbff3e264>
    16d7:	030100        	rsr.lend	a0
    16da:	020901        	l32r	a0, fffc1f00 <_etext+0xbff3e26c>
    16dd:	030100        	rsr.lend	a0
    16e0:	020902        	l8ui	a0, a9, 2
    16e3:	030100        	rsr.lend	a0
    16e6:	020901        	l32r	a0, fffc1f0c <_etext+0xbff3e278>
    16e9:	030100        	rsr.lend	a0
    16ec:	020901        	l32r	a0, fffc1f10 <_etext+0xbff3e27c>
    16ef:	030100        	rsr.lend	a0
    16f2:	030901        	l32r	a0, fffc2318 <_etext+0xbff3e684>
    16f5:	030100        	rsr.lend	a0
    16f8:	020901        	l32r	a0, fffc1f1c <_etext+0xbff3e288>
    16fb:	030100        	rsr.lend	a0
    16fe:	020901        	l32r	a0, fffc1f24 <_etext+0xbff3e290>
    1701:	030100        	rsr.lend	a0
    1704:	030901        	l32r	a0, fffc2328 <_etext+0xbff3e694>
    1707:	030100        	rsr.lend	a0
    170a:	020901        	l32r	a0, fffc1f30 <_etext+0xbff3e29c>
    170d:	030100        	rsr.lend	a0
    1710:	030902        	l8ui	a0, a9, 3
    1713:	030100        	rsr.lend	a0
    1716:	020902        	l8ui	a0, a9, 2
    1719:	030100        	rsr.lend	a0
    171c:	030901        	l32r	a0, fffc2340 <_etext+0xbff3e6ac>
    171f:	030100        	rsr.lend	a0
    1722:	030901        	l32r	a0, fffc2348 <_etext+0xbff3e6b4>
    1725:	030100        	rsr.lend	a0
    1728:	020901        	l32r	a0, fffc1f4c <_etext+0xbff3e2b8>
    172b:	030100        	rsr.lend	a0
    172e:	060901        	l32r	a0, fffc2f54 <_etext+0xbff3f2c0>
    1731:	030100        	rsr.lend	a0
    1734:	020901        	l32r	a0, fffc1f58 <_etext+0xbff3e2c4>
    1737:	030100        	rsr.lend	a0
    173a:	020901        	l32r	a0, fffc1f60 <_etext+0xbff3e2cc>
    173d:	030100        	rsr.lend	a0
    1740:	020901        	l32r	a0, fffc1f64 <_etext+0xbff3e2d0>
    1743:	030100        	rsr.lend	a0
    1746:	020901        	l32r	a0, fffc1f6c <_etext+0xbff3e2d8>
    1749:	030100        	rsr.lend	a0
    174c:	030901        	l32r	a0, fffc2370 <_etext+0xbff3e6dc>
    174f:	030100        	rsr.lend	a0
    1752:	020901        	l32r	a0, fffc1f78 <_etext+0xbff3e2e4>
    1755:	030100        	rsr.lend	a0
    1758:	020901        	l32r	a0, fffc1f7c <_etext+0xbff3e2e8>
    175b:	030100        	rsr.lend	a0
    175e:	030901        	l32r	a0, fffc2384 <_etext+0xbff3e6f0>
    1761:	030100        	rsr.lend	a0
    1764:	020901        	l32r	a0, fffc1f88 <_etext+0xbff3e2f4>
    1767:	030100        	rsr.lend	a0
    176a:	020901        	l32r	a0, fffc1f90 <_etext+0xbff3e2fc>
    176d:	030100        	rsr.lend	a0
    1770:	020901        	l32r	a0, fffc1f94 <_etext+0xbff3e300>
    1773:	030100        	rsr.lend	a0
    1776:	030901        	l32r	a0, fffc239c <_etext+0xbff3e708>
    1779:	030100        	rsr.lend	a0
    177c:	020901        	l32r	a0, fffc1fa0 <_etext+0xbff3e30c>
    177f:	030100        	rsr.lend	a0
    1782:	030902        	l8ui	a0, a9, 3
    1785:	030100        	rsr.lend	a0
    1788:	020902        	l8ui	a0, a9, 2
    178b:	030100        	rsr.lend	a0
    178e:	030901        	l32r	a0, fffc23b4 <_etext+0xbff3e720>
    1791:	030100        	rsr.lend	a0
    1794:	030901        	l32r	a0, fffc23b8 <_etext+0xbff3e724>
    1797:	030100        	rsr.lend	a0
    179a:	020901        	l32r	a0, fffc1fc0 <_etext+0xbff3e32c>
    179d:	030100        	rsr.lend	a0
    17a0:	060901        	l32r	a0, fffc2fc4 <_etext+0xbff3f330>
    17a3:	030100        	rsr.lend	a0
    17a6:	020901        	l32r	a0, fffc1fcc <_etext+0xbff3e338>
    17a9:	030100        	rsr.lend	a0
    17ac:	020901        	l32r	a0, fffc1fd0 <_etext+0xbff3e33c>
    17af:	030100        	rsr.lend	a0
    17b2:	020901        	l32r	a0, fffc1fd8 <_etext+0xbff3e344>
    17b5:	030100        	rsr.lend	a0
    17b8:	030901        	l32r	a0, fffc23dc <_etext+0xbff3e748>
    17bb:	030100        	rsr.lend	a0
    17be:	020901        	l32r	a0, fffc1fe4 <_etext+0xbff3e350>
    17c1:	030100        	rsr.lend	a0
    17c4:	020901        	l32r	a0, fffc1fe8 <_etext+0xbff3e354>
    17c7:	030100        	rsr.lend	a0
    17ca:	020901        	l32r	a0, fffc1ff0 <_etext+0xbff3e35c>
    17cd:	030100        	rsr.lend	a0
    17d0:	020902        	l8ui	a0, a9, 2
    17d3:	030100        	rsr.lend	a0
    17d6:	020901        	l32r	a0, fffc1ffc <_etext+0xbff3e368>
    17d9:	030100        	rsr.lend	a0
    17dc:	020901        	l32r	a0, fffc2000 <_etext+0xbff3e36c>
    17df:	030100        	rsr.lend	a0
    17e2:	020901        	l32r	a0, fffc2008 <_etext+0xbff3e374>
    17e5:	030100        	rsr.lend	a0
    17e8:	020901        	l32r	a0, fffc200c <_etext+0xbff3e378>
    17eb:	030100        	rsr.lend	a0
    17ee:	030901        	l32r	a0, fffc2414 <_etext+0xbff3e780>
    17f1:	030100        	rsr.lend	a0
    17f4:	020901        	l32r	a0, fffc2018 <_etext+0xbff3e384>
    17f7:	030100        	rsr.lend	a0
    17fa:	020901        	l32r	a0, fffc2020 <_etext+0xbff3e38c>
    17fd:	030100        	rsr.lend	a0
    1800:	030901        	l32r	a0, fffc2424 <_etext+0xbff3e790>
    1803:	030100        	rsr.lend	a0
    1806:	020901        	l32r	a0, fffc202c <_etext+0xbff3e398>
    1809:	030100        	rsr.lend	a0
    180c:	020901        	l32r	a0, fffc2030 <_etext+0xbff3e39c>
    180f:	030100        	rsr.lend	a0
    1812:	020901        	l32r	a0, fffc2038 <_etext+0xbff3e3a4>
    1815:	030100        	rsr.lend	a0
    1818:	030901        	l32r	a0, fffc243c <_etext+0xbff3e7a8>
    181b:	030100        	rsr.lend	a0
    181e:	020901        	l32r	a0, fffc2044 <_etext+0xbff3e3b0>
    1821:	030100        	rsr.lend	a0
    1824:	060902        	l8ui	a0, a9, 6
    1827:	030100        	rsr.lend	a0
    182a:	020902        	l8ui	a0, a9, 2
    182d:	030100        	rsr.lend	a0
    1830:	030901        	l32r	a0, fffc2454 <_etext+0xbff3e7c0>
    1833:	030100        	rsr.lend	a0
    1836:	030901        	l32r	a0, fffc245c <_etext+0xbff3e7c8>
    1839:	030100        	rsr.lend	a0
    183c:	030901        	l32r	a0, fffc2460 <_etext+0xbff3e7cc>
    183f:	030100        	rsr.lend	a0
    1842:	060901        	l32r	a0, fffc3068 <_etext+0xbff3f3d4>
    1845:	030100        	rsr.lend	a0
    1848:	030901        	l32r	a0, fffc246c <_etext+0xbff3e7d8>
    184b:	030100        	rsr.lend	a0
    184e:	030901        	l32r	a0, fffc2474 <_etext+0xbff3e7e0>
    1851:	030100        	rsr.lend	a0
    1854:	020901        	l32r	a0, fffc2078 <_etext+0xbff3e3e4>
    1857:	030100        	rsr.lend	a0
    185a:	030901        	l32r	a0, fffc2480 <_etext+0xbff3e7ec>
    185d:	030100        	rsr.lend	a0
    1860:	020901        	l32r	a0, fffc2084 <_etext+0xbff3e3f0>
    1863:	030100        	rsr.lend	a0
    1866:	020901        	l32r	a0, fffc208c <_etext+0xbff3e3f8>
    1869:	030100        	rsr.lend	a0
    186c:	020901        	l32r	a0, fffc2090 <_etext+0xbff3e3fc>
    186f:	030100        	rsr.lend	a0
    1872:	020902        	l8ui	a0, a9, 2
    1875:	030100        	rsr.lend	a0
    1878:	030901        	l32r	a0, fffc249c <_etext+0xbff3e808>
    187b:	030100        	rsr.lend	a0
    187e:	020901        	l32r	a0, fffc20a4 <_etext+0xbff3e410>
    1881:	030100        	rsr.lend	a0
    1884:	030901        	l32r	a0, fffc24a8 <_etext+0xbff3e814>
    1887:	030100        	rsr.lend	a0
    188a:	020901        	l32r	a0, fffc20b0 <_etext+0xbff3e41c>
    188d:	030100        	rsr.lend	a0
    1890:	060902        	l8ui	a0, a9, 6
    1893:	030100        	rsr.lend	a0
    1896:	020902        	l8ui	a0, a9, 2
    1899:	030100        	rsr.lend	a0
    189c:	030901        	l32r	a0, fffc24c0 <_etext+0xbff3e82c>
    189f:	030100        	rsr.lend	a0
    18a2:	030901        	l32r	a0, fffc24c8 <_etext+0xbff3e834>
    18a5:	030100        	rsr.lend	a0
    18a8:	020901        	l32r	a0, fffc20cc <_etext+0xbff3e438>
    18ab:	030100        	rsr.lend	a0
    18ae:	060901        	l32r	a0, fffc30d4 <_etext+0xbff3f440>
    18b1:	030100        	rsr.lend	a0
    18b4:	020901        	l32r	a0, fffc20d8 <_etext+0xbff3e444>
    18b7:	030100        	rsr.lend	a0
    18ba:	030901        	l32r	a0, fffc24e0 <_etext+0xbff3e84c>
    18bd:	030100        	rsr.lend	a0
    18c0:	030901        	l32r	a0, fffc24e4 <_etext+0xbff3e850>
    18c3:	030100        	rsr.lend	a0
    18c6:	020901        	l32r	a0, fffc20ec <_etext+0xbff3e458>
    18c9:	030100        	rsr.lend	a0
    18cc:	030901        	l32r	a0, fffc24f0 <_etext+0xbff3e85c>
    18cf:	030100        	rsr.lend	a0
    18d2:	020901        	l32r	a0, fffc20f8 <_etext+0xbff3e464>
    18d5:	030100        	rsr.lend	a0
    18d8:	050902        	l8ui	a0, a9, 5
    18db:	030100        	rsr.lend	a0
    18de:	020902        	l8ui	a0, a9, 2
    18e1:	030100        	rsr.lend	a0
    18e4:	030901        	l32r	a0, fffc2508 <_etext+0xbff3e874>
    18e7:	030100        	rsr.lend	a0
    18ea:	030901        	l32r	a0, fffc2510 <_etext+0xbff3e87c>
    18ed:	030100        	rsr.lend	a0
    18f0:	020901        	l32r	a0, fffc2114 <_etext+0xbff3e480>
    18f3:	030100        	rsr.lend	a0
    18f6:	020901        	l32r	a0, fffc211c <_etext+0xbff3e488>
    18f9:	030100        	rsr.lend	a0
    18fc:	060901        	l32r	a0, fffc3120 <_etext+0xbff3f48c>
    18ff:	030100        	rsr.lend	a0
    1902:	020901        	l32r	a0, fffc2128 <_etext+0xbff3e494>
    1905:	030100        	rsr.lend	a0
    1908:	030901        	l32r	a0, fffc252c <_etext+0xbff3e898>
    190b:	030100        	rsr.lend	a0
    190e:	020901        	l32r	a0, fffc2134 <_etext+0xbff3e4a0>
    1911:	030100        	rsr.lend	a0
    1914:	030901        	l32r	a0, fffc2538 <_etext+0xbff3e8a4>
    1917:	030100        	rsr.lend	a0
    191a:	020901        	l32r	a0, fffc2140 <_etext+0xbff3e4ac>
    191d:	030100        	rsr.lend	a0
    1920:	020901        	l32r	a0, fffc2144 <_etext+0xbff3e4b0>
    1923:	030100        	rsr.lend	a0
    1926:	020901        	l32r	a0, fffc214c <_etext+0xbff3e4b8>
    1929:	030100        	rsr.lend	a0
    192c:	020902        	l8ui	a0, a9, 2
    192f:	030100        	rsr.lend	a0
    1932:	020901        	l32r	a0, fffc2158 <_etext+0xbff3e4c4>
    1935:	030100        	rsr.lend	a0
    1938:	020901        	l32r	a0, fffc215c <_etext+0xbff3e4c8>
    193b:	030100        	rsr.lend	a0
    193e:	030901        	l32r	a0, fffc2564 <_etext+0xbff3e8d0>
    1941:	030100        	rsr.lend	a0
    1944:	020901        	l32r	a0, fffc2168 <_etext+0xbff3e4d4>
    1947:	030100        	rsr.lend	a0
    194a:	030902        	l8ui	a0, a9, 3
    194d:	030100        	rsr.lend	a0
    1950:	020902        	l8ui	a0, a9, 2
    1953:	030100        	rsr.lend	a0
    1956:	030901        	l32r	a0, fffc257c <_etext+0xbff3e8e8>
    1959:	030100        	rsr.lend	a0
    195c:	030901        	l32r	a0, fffc2580 <_etext+0xbff3e8ec>
    195f:	030100        	rsr.lend	a0
    1962:	020901        	l32r	a0, fffc2188 <_etext+0xbff3e4f4>
    1965:	030100        	rsr.lend	a0
    1968:	020901        	l32r	a0, fffc218c <_etext+0xbff3e4f8>
    196b:	030100        	rsr.lend	a0
    196e:	060901        	l32r	a0, fffc3194 <_etext+0xbff3f500>
    1971:	030100        	rsr.lend	a0
    1974:	020901        	l32r	a0, fffc2198 <_etext+0xbff3e504>
    1977:	030100        	rsr.lend	a0
    197a:	030901        	l32r	a0, fffc25a0 <_etext+0xbff3e90c>
    197d:	030100        	rsr.lend	a0
    1980:	030901        	l32r	a0, fffc25a4 <_etext+0xbff3e910>
    1983:	030100        	rsr.lend	a0
    1986:	030901        	l32r	a0, fffc25ac <_etext+0xbff3e918>
    1989:	030100        	rsr.lend	a0
    198c:	020901        	l32r	a0, fffc21b0 <_etext+0xbff3e51c>
    198f:	030100        	rsr.lend	a0
    1992:	030901        	l32r	a0, fffc25b8 <_etext+0xbff3e924>
    1995:	030100        	rsr.lend	a0
    1998:	020901        	l32r	a0, fffc21bc <_etext+0xbff3e528>
    199b:	030100        	rsr.lend	a0
    199e:	020901        	l32r	a0, fffc21c4 <_etext+0xbff3e530>
    19a1:	030100        	rsr.lend	a0
    19a4:	020901        	l32r	a0, fffc21c8 <_etext+0xbff3e534>
    19a7:	030100        	rsr.lend	a0
    19aa:	020902        	l8ui	a0, a9, 2
    19ad:	030100        	rsr.lend	a0
    19b0:	030901        	l32r	a0, fffc25d4 <_etext+0xbff3e940>
    19b3:	030100        	rsr.lend	a0
    19b6:	020901        	l32r	a0, fffc21dc <_etext+0xbff3e548>
    19b9:	030100        	rsr.lend	a0
    19bc:	030901        	l32r	a0, fffc25e0 <_etext+0xbff3e94c>
    19bf:	030100        	rsr.lend	a0
    19c2:	030901        	l32r	a0, fffc25e8 <_etext+0xbff3e954>
    19c5:	030100        	rsr.lend	a0
    19c8:	030901        	l32r	a0, fffc25ec <_etext+0xbff3e958>
    19cb:	030100        	rsr.lend	a0
    19ce:	030901        	l32r	a0, fffc25f4 <_etext+0xbff3e960>
    19d1:	030100        	rsr.lend	a0
    19d4:	030901        	l32r	a0, fffc25f8 <_etext+0xbff3e964>
    19d7:	030100        	rsr.lend	a0
    19da:	030901        	l32r	a0, fffc2600 <_etext+0xbff3e96c>
    19dd:	030100        	rsr.lend	a0
    19e0:	030901        	l32r	a0, fffc2604 <_etext+0xbff3e970>
    19e3:	030100        	rsr.lend	a0
    19e6:	020901        	l32r	a0, fffc220c <_etext+0xbff3e578>
    19e9:	030100        	rsr.lend	a0
    19ec:	060902        	l8ui	a0, a9, 6
    19ef:	030100        	rsr.lend	a0
    19f2:	020902        	l8ui	a0, a9, 2
    19f5:	030100        	rsr.lend	a0
    19f8:	030901        	l32r	a0, fffc261c <_etext+0xbff3e988>
    19fb:	030100        	rsr.lend	a0
    19fe:	030901        	l32r	a0, fffc2624 <_etext+0xbff3e990>
    1a01:	030100        	rsr.lend	a0
    1a04:	020901        	l32r	a0, fffc2228 <_etext+0xbff3e594>
    1a07:	030100        	rsr.lend	a0
    1a0a:	020901        	l32r	a0, fffc2230 <_etext+0xbff3e59c>
    1a0d:	030100        	rsr.lend	a0
    1a10:	060901        	l32r	a0, fffc3234 <_etext+0xbff3f5a0>
    1a13:	030100        	rsr.lend	a0
    1a16:	020901        	l32r	a0, fffc223c <_etext+0xbff3e5a8>
    1a19:	030100        	rsr.lend	a0
    1a1c:	030901        	l32r	a0, fffc2640 <_etext+0xbff3e9ac>
    1a1f:	030100        	rsr.lend	a0
    1a22:	030901        	l32r	a0, fffc2648 <_etext+0xbff3e9b4>
    1a25:	030100        	rsr.lend	a0
    1a28:	020901        	l32r	a0, fffc224c <_etext+0xbff3e5b8>
    1a2b:	030100        	rsr.lend	a0
    1a2e:	030901        	l32r	a0, fffc2654 <_etext+0xbff3e9c0>
    1a31:	030100        	rsr.lend	a0
    1a34:	030901        	l32r	a0, fffc2658 <_etext+0xbff3e9c4>
    1a37:	030100        	rsr.lend	a0
    1a3a:	020901        	l32r	a0, fffc2260 <_etext+0xbff3e5cc>
    1a3d:	030100        	rsr.lend	a0
    1a40:	030901        	l32r	a0, fffc2664 <_etext+0xbff3e9d0>
    1a43:	030100        	rsr.lend	a0
    1a46:	020901        	l32r	a0, fffc226c <_etext+0xbff3e5d8>
    1a49:	030100        	rsr.lend	a0
    1a4c:	030902        	l8ui	a0, a9, 3
    1a4f:	030100        	rsr.lend	a0
    1a52:	020902        	l8ui	a0, a9, 2
    1a55:	030100        	rsr.lend	a0
    1a58:	030901        	l32r	a0, fffc267c <_etext+0xbff3e9e8>
    1a5b:	030100        	rsr.lend	a0
    1a5e:	030901        	l32r	a0, fffc2684 <_etext+0xbff3e9f0>
    1a61:	030100        	rsr.lend	a0
    1a64:	020901        	l32r	a0, fffc2288 <_etext+0xbff3e5f4>
    1a67:	030100        	rsr.lend	a0
    1a6a:	020901        	l32r	a0, fffc2290 <_etext+0xbff3e5fc>
    1a6d:	030100        	rsr.lend	a0
    1a70:	060901        	l32r	a0, fffc3294 <_etext+0xbff3f600>
    1a73:	030100        	rsr.lend	a0
    1a76:	020901        	l32r	a0, fffc229c <_etext+0xbff3e608>
    1a79:	030100        	rsr.lend	a0
    1a7c:	030901        	l32r	a0, fffc26a0 <_etext+0xbff3ea0c>
    1a7f:	030100        	rsr.lend	a0
    1a82:	030901        	l32r	a0, fffc26a8 <_etext+0xbff3ea14>
    1a85:	030100        	rsr.lend	a0
    1a88:	030901        	l32r	a0, fffc26ac <_etext+0xbff3ea18>
    1a8b:	030100        	rsr.lend	a0
    1a8e:	020901        	l32r	a0, fffc22b4 <_etext+0xbff3e620>
    1a91:	030100        	rsr.lend	a0
    1a94:	030901        	l32r	a0, fffc26b8 <_etext+0xbff3ea24>
    1a97:	030100        	rsr.lend	a0
    1a9a:	020901        	l32r	a0, fffc22c0 <_etext+0xbff3e62c>
    1a9d:	030100        	rsr.lend	a0
    1aa0:	020901        	l32r	a0, fffc22c4 <_etext+0xbff3e630>
    1aa3:	030100        	rsr.lend	a0
    1aa6:	020901        	l32r	a0, fffc22cc <_etext+0xbff3e638>
    1aa9:	030100        	rsr.lend	a0
    1aac:	020902        	l8ui	a0, a9, 2
    1aaf:	030100        	rsr.lend	a0
    1ab2:	020901        	l32r	a0, fffc22d8 <_etext+0xbff3e644>
    1ab5:	030100        	rsr.lend	a0
    1ab8:	020901        	l32r	a0, fffc22dc <_etext+0xbff3e648>
    1abb:	030100        	rsr.lend	a0
    1abe:	030901        	l32r	a0, fffc26e4 <_etext+0xbff3ea50>
    1ac1:	030100        	rsr.lend	a0
    1ac4:	020901        	l32r	a0, fffc22e8 <_etext+0xbff3e654>
    1ac7:	030100        	rsr.lend	a0
    1aca:	050902        	l8ui	a0, a9, 5
    1acd:	030100        	rsr.lend	a0
    1ad0:	020902        	l8ui	a0, a9, 2
    1ad3:	030100        	rsr.lend	a0
    1ad6:	030901        	l32r	a0, fffc26fc <_etext+0xbff3ea68>
    1ad9:	030100        	rsr.lend	a0
    1adc:	030901        	l32r	a0, fffc2700 <_etext+0xbff3ea6c>
    1adf:	030100        	rsr.lend	a0
    1ae2:	020901        	l32r	a0, fffc2308 <_etext+0xbff3e674>
    1ae5:	030100        	rsr.lend	a0
    1ae8:	020901        	l32r	a0, fffc230c <_etext+0xbff3e678>
    1aeb:	030100        	rsr.lend	a0
    1aee:	060901        	l32r	a0, fffc3314 <_etext+0xbff3f680>
    1af1:	030100        	rsr.lend	a0
    1af4:	020901        	l32r	a0, fffc2318 <_etext+0xbff3e684>
    1af7:	030100        	rsr.lend	a0
    1afa:	020901        	l32r	a0, fffc2320 <_etext+0xbff3e68c>
    1afd:	030100        	rsr.lend	a0
    1b00:	030901        	l32r	a0, fffc2724 <_etext+0xbff3ea90>
    1b03:	030100        	rsr.lend	a0
    1b06:	020901        	l32r	a0, fffc232c <_etext+0xbff3e698>
    1b09:	030100        	rsr.lend	a0
    1b0c:	030901        	l32r	a0, fffc2730 <_etext+0xbff3ea9c>
    1b0f:	030100        	rsr.lend	a0
    1b12:	020901        	l32r	a0, fffc2338 <_etext+0xbff3e6a4>
    1b15:	030100        	rsr.lend	a0
    1b18:	020901        	l32r	a0, fffc233c <_etext+0xbff3e6a8>
    1b1b:	030100        	rsr.lend	a0
    1b1e:	030901        	l32r	a0, fffc2744 <_etext+0xbff3eab0>
    1b21:	030100        	rsr.lend	a0
    1b24:	020901        	l32r	a0, fffc2348 <_etext+0xbff3e6b4>
    1b27:	030100        	rsr.lend	a0
    1b2a:	050902        	l8ui	a0, a9, 5
    1b2d:	030100        	rsr.lend	a0
    1b30:	020902        	l8ui	a0, a9, 2
    1b33:	030100        	rsr.lend	a0
    1b36:	030901        	l32r	a0, fffc275c <_etext+0xbff3eac8>
    1b39:	030100        	rsr.lend	a0
    1b3c:	030901        	l32r	a0, fffc2760 <_etext+0xbff3eacc>
    1b3f:	030100        	rsr.lend	a0
    1b42:	020901        	l32r	a0, fffc2368 <_etext+0xbff3e6d4>
    1b45:	030100        	rsr.lend	a0
    1b48:	020901        	l32r	a0, fffc236c <_etext+0xbff3e6d8>
    1b4b:	030100        	rsr.lend	a0
    1b4e:	060901        	l32r	a0, fffc3374 <_etext+0xbff3f6e0>
    1b51:	030100        	rsr.lend	a0
    1b54:	020901        	l32r	a0, fffc2378 <_etext+0xbff3e6e4>
    1b57:	030100        	rsr.lend	a0
    1b5a:	030901        	l32r	a0, fffc2780 <_etext+0xbff3eaec>
    1b5d:	030100        	rsr.lend	a0
    1b60:	030901        	l32r	a0, fffc2784 <_etext+0xbff3eaf0>
    1b63:	030100        	rsr.lend	a0
    1b66:	020901        	l32r	a0, fffc238c <_etext+0xbff3e6f8>
    1b69:	030100        	rsr.lend	a0
    1b6c:	030901        	l32r	a0, fffc2790 <_etext+0xbff3eafc>
    1b6f:	030100        	rsr.lend	a0
    1b72:	030901        	l32r	a0, fffc2798 <_etext+0xbff3eb04>
    1b75:	030100        	rsr.lend	a0
    1b78:	030901        	l32r	a0, fffc279c <_etext+0xbff3eb08>
    1b7b:	030100        	rsr.lend	a0
    1b7e:	030901        	l32r	a0, fffc27a4 <_etext+0xbff3eb10>
    1b81:	030100        	rsr.lend	a0
    1b84:	020901        	l32r	a0, fffc23a8 <_etext+0xbff3e714>
    1b87:	030100        	rsr.lend	a0
    1b8a:	020901        	l32r	a0, fffc23b0 <_etext+0xbff3e71c>
    1b8d:	030100        	rsr.lend	a0
    1b90:	020901        	l32r	a0, fffc23b4 <_etext+0xbff3e720>
    1b93:	030100        	rsr.lend	a0
    1b96:	020902        	l8ui	a0, a9, 2
    1b99:	030100        	rsr.lend	a0
    1b9c:	030901        	l32r	a0, fffc27c0 <_etext+0xbff3eb2c>
    1b9f:	030100        	rsr.lend	a0
    1ba2:	020901        	l32r	a0, fffc23c8 <_etext+0xbff3e734>
    1ba5:	030100        	rsr.lend	a0
    1ba8:	030901        	l32r	a0, fffc27cc <_etext+0xbff3eb38>
    1bab:	030100        	rsr.lend	a0
    1bae:	030901        	l32r	a0, fffc27d4 <_etext+0xbff3eb40>
    1bb1:	030100        	rsr.lend	a0
    1bb4:	020901        	l32r	a0, fffc23d8 <_etext+0xbff3e744>
    1bb7:	030100        	rsr.lend	a0
    1bba:	030901        	l32r	a0, fffc27e0 <_etext+0xbff3eb4c>
    1bbd:	030100        	rsr.lend	a0
    1bc0:	020901        	l32r	a0, fffc23e4 <_etext+0xbff3e750>
    1bc3:	030100        	rsr.lend	a0
    1bc6:	060902        	l8ui	a0, a9, 6
    1bc9:	030100        	rsr.lend	a0
    1bcc:	020902        	l8ui	a0, a9, 2
    1bcf:	030100        	rsr.lend	a0
    1bd2:	030901        	l32r	a0, fffc27f8 <_etext+0xbff3eb64>
    1bd5:	030100        	rsr.lend	a0
    1bd8:	030901        	l32r	a0, fffc27fc <_etext+0xbff3eb68>
    1bdb:	030100        	rsr.lend	a0
    1bde:	020901        	l32r	a0, fffc2404 <_etext+0xbff3e770>
    1be1:	030100        	rsr.lend	a0
    1be4:	020901        	l32r	a0, fffc2408 <_etext+0xbff3e774>
    1be7:	030100        	rsr.lend	a0
    1bea:	060901        	l32r	a0, fffc3410 <_etext+0xbff3f77c>
    1bed:	030100        	rsr.lend	a0
    1bf0:	020901        	l32r	a0, fffc2414 <_etext+0xbff3e780>
    1bf3:	030100        	rsr.lend	a0
    1bf6:	030901        	l32r	a0, fffc281c <_etext+0xbff3eb88>
    1bf9:	030100        	rsr.lend	a0
    1bfc:	030901        	l32r	a0, fffc2820 <_etext+0xbff3eb8c>
    1bff:	030100        	rsr.lend	a0
    1c02:	020901        	l32r	a0, fffc2428 <_etext+0xbff3e794>
    1c05:	030100        	rsr.lend	a0
    1c08:	030901        	l32r	a0, fffc282c <_etext+0xbff3eb98>
    1c0b:	030100        	rsr.lend	a0
    1c0e:	030901        	l32r	a0, fffc2834 <_etext+0xbff3eba0>
    1c11:	030100        	rsr.lend	a0
    1c14:	020901        	l32r	a0, fffc2438 <_etext+0xbff3e7a4>
    1c17:	030100        	rsr.lend	a0
    1c1a:	030901        	l32r	a0, fffc2840 <_etext+0xbff3ebac>
    1c1d:	030100        	rsr.lend	a0
    1c20:	020901        	l32r	a0, fffc2444 <_etext+0xbff3e7b0>
    1c23:	030100        	rsr.lend	a0
    1c26:	030902        	l8ui	a0, a9, 3
    1c29:	030100        	rsr.lend	a0
    1c2c:	020902        	l8ui	a0, a9, 2
    1c2f:	030100        	rsr.lend	a0
    1c32:	030901        	l32r	a0, fffc2858 <_etext+0xbff3ebc4>
    1c35:	030100        	rsr.lend	a0
    1c38:	030901        	l32r	a0, fffc285c <_etext+0xbff3ebc8>
    1c3b:	030100        	rsr.lend	a0
    1c3e:	030901        	l32r	a0, fffc2864 <_etext+0xbff3ebd0>
    1c41:	030100        	rsr.lend	a0
    1c44:	030901        	l32r	a0, fffc2868 <_etext+0xbff3ebd4>
    1c47:	030100        	rsr.lend	a0
    1c4a:	060901        	l32r	a0, fffc3470 <_etext+0xbff3f7dc>
    1c4d:	030100        	rsr.lend	a0
    1c50:	030901        	l32r	a0, fffc2874 <_etext+0xbff3ebe0>
    1c53:	030100        	rsr.lend	a0
    1c56:	020901        	l32r	a0, fffc247c <_etext+0xbff3e7e8>
    1c59:	030100        	rsr.lend	a0
    1c5c:	020901        	l32r	a0, fffc2480 <_etext+0xbff3e7ec>
    1c5f:	030100        	rsr.lend	a0
    1c62:	030901        	l32r	a0, fffc2888 <_etext+0xbff3ebf4>
    1c65:	030100        	rsr.lend	a0
    1c68:	020901        	l32r	a0, fffc248c <_etext+0xbff3e7f8>
    1c6b:	030100        	rsr.lend	a0
    1c6e:	020901        	l32r	a0, fffc2494 <_etext+0xbff3e800>
    1c71:	030100        	rsr.lend	a0
    1c74:	020901        	l32r	a0, fffc2498 <_etext+0xbff3e804>
    1c77:	030100        	rsr.lend	a0
    1c7a:	020902        	l8ui	a0, a9, 2
    1c7d:	030100        	rsr.lend	a0
    1c80:	020901        	l32r	a0, fffc24a4 <_etext+0xbff3e810>
    1c83:	030100        	rsr.lend	a0
    1c86:	020901        	l32r	a0, fffc24ac <_etext+0xbff3e818>
    1c89:	030100        	rsr.lend	a0
    1c8c:	030901        	l32r	a0, fffc28b0 <_etext+0xbff3ec1c>
    1c8f:	030100        	rsr.lend	a0
    1c92:	020901        	l32r	a0, fffc24b8 <_etext+0xbff3e824>
    1c95:	030100        	rsr.lend	a0
    1c98:	050902        	l8ui	a0, a9, 5
    1c9b:	030100        	rsr.lend	a0
    1c9e:	020902        	l8ui	a0, a9, 2
    1ca1:	030100        	rsr.lend	a0
    1ca4:	030901        	l32r	a0, fffc28c8 <_etext+0xbff3ec34>
    1ca7:	030100        	rsr.lend	a0
    1caa:	030901        	l32r	a0, fffc28d0 <_etext+0xbff3ec3c>
    1cad:	030100        	rsr.lend	a0
    1cb0:	020901        	l32r	a0, fffc24d4 <_etext+0xbff3e840>
    1cb3:	030100        	rsr.lend	a0
    1cb6:	020901        	l32r	a0, fffc24dc <_etext+0xbff3e848>
    1cb9:	030100        	rsr.lend	a0
    1cbc:	060901        	l32r	a0, fffc34e0 <_etext+0xbff3f84c>
    1cbf:	030100        	rsr.lend	a0
    1cc2:	020901        	l32r	a0, fffc24e8 <_etext+0xbff3e854>
    1cc5:	030100        	rsr.lend	a0
    1cc8:	020901        	l32r	a0, fffc24ec <_etext+0xbff3e858>
    1ccb:	030100        	rsr.lend	a0
    1cce:	020901        	l32r	a0, fffc24f4 <_etext+0xbff3e860>
    1cd1:	030100        	rsr.lend	a0
    1cd4:	020901        	l32r	a0, fffc24f8 <_etext+0xbff3e864>
    1cd7:	030100        	rsr.lend	a0
    1cda:	020901        	l32r	a0, fffc2500 <_etext+0xbff3e86c>
    1cdd:	030100        	rsr.lend	a0
    1ce0:	030901        	l32r	a0, fffc2904 <_etext+0xbff3ec70>
    1ce3:	030100        	rsr.lend	a0
    1ce6:	020901        	l32r	a0, fffc250c <_etext+0xbff3e878>
    1ce9:	030100        	rsr.lend	a0
    1cec:	020901        	l32r	a0, fffc2510 <_etext+0xbff3e87c>
    1cef:	030100        	rsr.lend	a0
    1cf2:	030901        	l32r	a0, fffc2918 <_etext+0xbff3ec84>
    1cf5:	030100        	rsr.lend	a0
    1cf8:	020901        	l32r	a0, fffc251c <_etext+0xbff3e888>
    1cfb:	030100        	rsr.lend	a0
    1cfe:	040902        	l8ui	a0, a9, 4
    1d01:	030100        	rsr.lend	a0
    1d04:	020902        	l8ui	a0, a9, 2
    1d07:	030100        	rsr.lend	a0
    1d0a:	030901        	l32r	a0, fffc2930 <_etext+0xbff3ec9c>
    1d0d:	030100        	rsr.lend	a0
    1d10:	030901        	l32r	a0, fffc2934 <_etext+0xbff3eca0>
    1d13:	030100        	rsr.lend	a0
    1d16:	020901        	l32r	a0, fffc253c <_etext+0xbff3e8a8>
    1d19:	030100        	rsr.lend	a0
    1d1c:	020901        	l32r	a0, fffc2540 <_etext+0xbff3e8ac>
    1d1f:	030100        	rsr.lend	a0
    1d22:	060901        	l32r	a0, fffc3548 <_etext+0xbff3f8b4>
    1d25:	030100        	rsr.lend	a0
    1d28:	020901        	l32r	a0, fffc254c <_etext+0xbff3e8b8>
    1d2b:	030100        	rsr.lend	a0
    1d2e:	030901        	l32r	a0, fffc2954 <_etext+0xbff3ecc0>
    1d31:	030100        	rsr.lend	a0
    1d34:	020901        	l32r	a0, fffc2558 <_etext+0xbff3e8c4>
    1d37:	030100        	rsr.lend	a0
    1d3a:	030901        	l32r	a0, fffc2960 <_etext+0xbff3eccc>
    1d3d:	030100        	rsr.lend	a0
    1d40:	020901        	l32r	a0, fffc2564 <_etext+0xbff3e8d0>
    1d43:	030100        	rsr.lend	a0
    1d46:	020901        	l32r	a0, fffc256c <_etext+0xbff3e8d8>
    1d49:	030100        	rsr.lend	a0
    1d4c:	020901        	l32r	a0, fffc2570 <_etext+0xbff3e8dc>
    1d4f:	030100        	rsr.lend	a0
    1d52:	020902        	l8ui	a0, a9, 2
    1d55:	030100        	rsr.lend	a0
    1d58:	020901        	l32r	a0, fffc257c <_etext+0xbff3e8e8>
    1d5b:	030100        	rsr.lend	a0
    1d5e:	020901        	l32r	a0, fffc2584 <_etext+0xbff3e8f0>
    1d61:	030100        	rsr.lend	a0
    1d64:	020901        	l32r	a0, fffc2588 <_etext+0xbff3e8f4>
    1d67:	030100        	rsr.lend	a0
    1d6a:	020901        	l32r	a0, fffc2590 <_etext+0xbff3e8fc>
    1d6d:	030100        	rsr.lend	a0
    1d70:	030901        	l32r	a0, fffc2994 <_etext+0xbff3ed00>
    1d73:	030100        	rsr.lend	a0
    1d76:	020901        	l32r	a0, fffc259c <_etext+0xbff3e908>
    1d79:	030100        	rsr.lend	a0
    1d7c:	020901        	l32r	a0, fffc25a0 <_etext+0xbff3e90c>
    1d7f:	030100        	rsr.lend	a0
    1d82:	020901        	l32r	a0, fffc25a8 <_etext+0xbff3e914>
    1d85:	030100        	rsr.lend	a0
    1d88:	030901        	l32r	a0, fffc29ac <_etext+0xbff3ed18>
    1d8b:	030100        	rsr.lend	a0
    1d8e:	020901        	l32r	a0, fffc25b4 <_etext+0xbff3e920>
    1d91:	030100        	rsr.lend	a0
    1d94:	060902        	l8ui	a0, a9, 6
    1d97:	030100        	rsr.lend	a0
    1d9a:	020902        	l8ui	a0, a9, 2
    1d9d:	030100        	rsr.lend	a0
    1da0:	030901        	l32r	a0, fffc29c4 <_etext+0xbff3ed30>
    1da3:	030100        	rsr.lend	a0
    1da6:	030901        	l32r	a0, fffc29cc <_etext+0xbff3ed38>
    1da9:	030100        	rsr.lend	a0
    1dac:	030901        	l32r	a0, fffc29d0 <_etext+0xbff3ed3c>
    1daf:	030100        	rsr.lend	a0
    1db2:	030901        	l32r	a0, fffc29d8 <_etext+0xbff3ed44>
    1db5:	030100        	rsr.lend	a0
    1db8:	060901        	l32r	a0, fffc35dc <_etext+0xbff3f948>
    1dbb:	030100        	rsr.lend	a0
    1dbe:	060901        	l32r	a0, fffc35e4 <_etext+0xbff3f950>
    1dc1:	030100        	rsr.lend	a0
    1dc4:	020906        	j	25ec <EXCVADDR+0x24fe>
    1dc7:	030100        	rsr.lend	a0
    1dca:	030901        	l32r	a0, fffc29f0 <_etext+0xbff3ed5c>
    1dcd:	030100        	rsr.lend	a0
    1dd0:	030901        	l32r	a0, fffc29f4 <_etext+0xbff3ed60>
    1dd3:	030100        	rsr.lend	a0
    1dd6:	020901        	l32r	a0, fffc25fc <_etext+0xbff3e968>
    1dd9:	030100        	rsr.lend	a0
    1ddc:	020901        	l32r	a0, fffc2600 <_etext+0xbff3e96c>
    1ddf:	030100        	rsr.lend	a0
    1de2:	020901        	l32r	a0, fffc2608 <_etext+0xbff3e974>
    1de5:	030100        	rsr.lend	a0
    1de8:	020901        	l32r	a0, fffc260c <_etext+0xbff3e978>
    1deb:	030100        	rsr.lend	a0
    1dee:	020901        	l32r	a0, fffc2614 <_etext+0xbff3e980>
    1df1:	030100        	rsr.lend	a0
    1df4:	020901        	l32r	a0, fffc2618 <_etext+0xbff3e984>
    1df7:	030100        	rsr.lend	a0
    1dfa:	030901        	l32r	a0, fffc2a20 <_etext+0xbff3ed8c>
    1dfd:	030100        	rsr.lend	a0
    1e00:	030901        	l32r	a0, fffc2a24 <_etext+0xbff3ed90>
    1e03:	030100        	rsr.lend	a0
    1e06:	030901        	l32r	a0, fffc2a2c <_etext+0xbff3ed98>
    1e09:	030100        	rsr.lend	a0
    1e0c:	020901        	l32r	a0, fffc2630 <_etext+0xbff3e99c>
    1e0f:	030100        	rsr.lend	a0
    1e12:	020901        	l32r	a0, fffc2638 <_etext+0xbff3e9a4>
    1e15:	030100        	rsr.lend	a0
    1e18:	060901        	l32r	a0, fffc363c <_etext+0xbff3f9a8>
    1e1b:	030100        	rsr.lend	a0
    1e1e:	060901        	l32r	a0, fffc3644 <_etext+0xbff3f9b0>
    1e21:	030100        	rsr.lend	a0
    1e24:	030901        	l32r	a0, fffc2a48 <_etext+0xbff3edb4>
    1e27:	030100        	rsr.lend	a0
    1e2a:	060901        	l32r	a0, fffc3650 <_etext+0xbff3f9bc>
    1e2d:	030100        	rsr.lend	a0
    1e30:	020901        	l32r	a0, fffc2654 <_etext+0xbff3e9c0>
    1e33:	030100        	rsr.lend	a0
    1e36:	020901        	l32r	a0, fffc265c <_etext+0xbff3e9c8>
    1e39:	030100        	rsr.lend	a0
    1e3c:	020901        	l32r	a0, fffc2660 <_etext+0xbff3e9cc>
    1e3f:	030100        	rsr.lend	a0
    1e42:	030901        	l32r	a0, fffc2a68 <_etext+0xbff3edd4>
    1e45:	030100        	rsr.lend	a0
    1e48:	020901        	l32r	a0, fffc266c <_etext+0xbff3e9d8>
    1e4b:	030100        	rsr.lend	a0
    1e4e:	030901        	l32r	a0, fffc2a74 <_etext+0xbff3ede0>
    1e51:	030100        	rsr.lend	a0
    1e54:	020901        	l32r	a0, fffc2678 <_etext+0xbff3e9e4>
    1e57:	030100        	rsr.lend	a0
    1e5a:	020901        	l32r	a0, fffc2680 <_etext+0xbff3e9ec>
    1e5d:	030100        	rsr.lend	a0
    1e60:	020901        	l32r	a0, fffc2684 <_etext+0xbff3e9f0>
    1e63:	030100        	rsr.lend	a0
    1e66:	020902        	l8ui	a0, a9, 2
    1e69:	030100        	rsr.lend	a0
    1e6c:	020901        	l32r	a0, fffc2690 <_etext+0xbff3e9fc>
    1e6f:	030100        	rsr.lend	a0
    1e72:	020901        	l32r	a0, fffc2698 <_etext+0xbff3ea04>
    1e75:	030100        	rsr.lend	a0
    1e78:	030901        	l32r	a0, fffc2a9c <_etext+0xbff3ee08>
    1e7b:	030100        	rsr.lend	a0
    1e7e:	020901        	l32r	a0, fffc26a4 <_etext+0xbff3ea10>
    1e81:	030100        	rsr.lend	a0
    1e84:	020901        	l32r	a0, fffc26a8 <_etext+0xbff3ea14>
    1e87:	030100        	rsr.lend	a0
    1e8a:	030901        	l32r	a0, fffc2ab0 <_etext+0xbff3ee1c>
    1e8d:	030100        	rsr.lend	a0
    1e90:	020901        	l32r	a0, fffc26b4 <_etext+0xbff3ea20>
    1e93:	030100        	rsr.lend	a0
    1e96:	020901        	l32r	a0, fffc26bc <_etext+0xbff3ea28>
    1e99:	030100        	rsr.lend	a0
    1e9c:	030901        	l32r	a0, fffc2ac0 <_etext+0xbff3ee2c>
    1e9f:	030100        	rsr.lend	a0
    1ea2:	020901        	l32r	a0, fffc26c8 <_etext+0xbff3ea34>
    1ea5:	030100        	rsr.lend	a0
    1ea8:	030902        	l8ui	a0, a9, 3
    1eab:	030100        	rsr.lend	a0
    1eae:	020902        	l8ui	a0, a9, 2
    1eb1:	030100        	rsr.lend	a0
    1eb4:	030901        	l32r	a0, fffc2ad8 <_etext+0xbff3ee44>
    1eb7:	030100        	rsr.lend	a0
    1eba:	030901        	l32r	a0, fffc2ae0 <_etext+0xbff3ee4c>
    1ebd:	030100        	rsr.lend	a0
    1ec0:	020901        	l32r	a0, fffc26e4 <_etext+0xbff3ea50>
    1ec3:	030100        	rsr.lend	a0
    1ec6:	020901        	l32r	a0, fffc26ec <_etext+0xbff3ea58>
    1ec9:	030100        	rsr.lend	a0
    1ecc:	060901        	l32r	a0, fffc36f0 <_etext+0xbff3fa5c>
    1ecf:	030100        	rsr.lend	a0
    1ed2:	020901        	l32r	a0, fffc26f8 <_etext+0xbff3ea64>
    1ed5:	030100        	rsr.lend	a0
    1ed8:	020901        	l32r	a0, fffc26fc <_etext+0xbff3ea68>
    1edb:	030100        	rsr.lend	a0
    1ede:	020901        	l32r	a0, fffc2704 <_etext+0xbff3ea70>
    1ee1:	030100        	rsr.lend	a0
    1ee4:	020901        	l32r	a0, fffc2708 <_etext+0xbff3ea74>
    1ee7:	030100        	rsr.lend	a0
    1eea:	030901        	l32r	a0, fffc2b10 <_etext+0xbff3ee7c>
    1eed:	030100        	rsr.lend	a0
    1ef0:	020901        	l32r	a0, fffc2714 <_etext+0xbff3ea80>
    1ef3:	030100        	rsr.lend	a0
    1ef6:	020901        	l32r	a0, fffc271c <_etext+0xbff3ea88>
    1ef9:	030100        	rsr.lend	a0
    1efc:	030901        	l32r	a0, fffc2b20 <_etext+0xbff3ee8c>
    1eff:	030100        	rsr.lend	a0
    1f02:	020901        	l32r	a0, fffc2728 <_etext+0xbff3ea94>
    1f05:	030100        	rsr.lend	a0
    1f08:	060902        	l8ui	a0, a9, 6
    1f0b:	030100        	rsr.lend	a0
    1f0e:	020902        	l8ui	a0, a9, 2
    1f11:	030100        	rsr.lend	a0
    1f14:	030901        	l32r	a0, fffc2b38 <_etext+0xbff3eea4>
    1f17:	030100        	rsr.lend	a0
    1f1a:	030901        	l32r	a0, fffc2b40 <_etext+0xbff3eeac>
    1f1d:	030100        	rsr.lend	a0
    1f20:	030901        	l32r	a0, fffc2b44 <_etext+0xbff3eeb0>
    1f23:	030100        	rsr.lend	a0
    1f26:	030901        	l32r	a0, fffc2b4c <_etext+0xbff3eeb8>
    1f29:	030100        	rsr.lend	a0
    1f2c:	060901        	l32r	a0, fffc3750 <_etext+0xbff3fabc>
    1f2f:	030100        	rsr.lend	a0
    1f32:	030901        	l32r	a0, fffc2b58 <_etext+0xbff3eec4>
    1f35:	030100        	rsr.lend	a0
    1f38:	030901        	l32r	a0, fffc2b5c <_etext+0xbff3eec8>
    1f3b:	030100        	rsr.lend	a0
    1f3e:	030901        	l32r	a0, fffc2b64 <_etext+0xbff3eed0>
    1f41:	030100        	rsr.lend	a0
    1f44:	030901        	l32r	a0, fffc2b68 <_etext+0xbff3eed4>
    1f47:	030100        	rsr.lend	a0
    1f4a:	020901        	l32r	a0, fffc2770 <_etext+0xbff3eadc>
    1f4d:	030100        	rsr.lend	a0
    1f50:	020901        	l32r	a0, fffc2774 <_etext+0xbff3eae0>
    1f53:	030100        	rsr.lend	a0
    1f56:	020901        	l32r	a0, fffc277c <_etext+0xbff3eae8>
    1f59:	030100        	rsr.lend	a0
    1f5c:	020902        	l8ui	a0, a9, 2
    1f5f:	030100        	rsr.lend	a0
    1f62:	030901        	l32r	a0, fffc2b88 <_etext+0xbff3eef4>
    1f65:	030100        	rsr.lend	a0
    1f68:	020901        	l32r	a0, fffc278c <_etext+0xbff3eaf8>
    1f6b:	030100        	rsr.lend	a0
    1f6e:	030901        	l32r	a0, fffc2b94 <_etext+0xbff3ef00>
    1f71:	030100        	rsr.lend	a0
    1f74:	020901        	l32r	a0, fffc2798 <_etext+0xbff3eb04>
    1f77:	030100        	rsr.lend	a0
    1f7a:	060902        	l8ui	a0, a9, 6
    1f7d:	030100        	rsr.lend	a0
    1f80:	020902        	l8ui	a0, a9, 2
    1f83:	030100        	rsr.lend	a0
    1f86:	030901        	l32r	a0, fffc2bac <_etext+0xbff3ef18>
    1f89:	030100        	rsr.lend	a0
    1f8c:	030901        	l32r	a0, fffc2bb0 <_etext+0xbff3ef1c>
    1f8f:	030100        	rsr.lend	a0
    1f92:	020901        	l32r	a0, fffc27b8 <_etext+0xbff3eb24>
    1f95:	030100        	rsr.lend	a0
    1f98:	020901        	l32r	a0, fffc27bc <_etext+0xbff3eb28>
    1f9b:	030100        	rsr.lend	a0
    1f9e:	060901        	l32r	a0, fffc37c4 <_etext+0xbff3fb30>
    1fa1:	030100        	rsr.lend	a0
    1fa4:	020901        	l32r	a0, fffc27c8 <_etext+0xbff3eb34>
    1fa7:	030100        	rsr.lend	a0
    1faa:	030901        	l32r	a0, fffc2bd0 <_etext+0xbff3ef3c>
    1fad:	030100        	rsr.lend	a0
    1fb0:	030901        	l32r	a0, fffc2bd4 <_etext+0xbff3ef40>
    1fb3:	030100        	rsr.lend	a0
    1fb6:	020901        	l32r	a0, fffc27dc <_etext+0xbff3eb48>
    1fb9:	030100        	rsr.lend	a0
    1fbc:	030901        	l32r	a0, fffc2be0 <_etext+0xbff3ef4c>
    1fbf:	030100        	rsr.lend	a0
    1fc2:	020901        	l32r	a0, fffc27e8 <_etext+0xbff3eb54>
    1fc5:	030100        	rsr.lend	a0
    1fc8:	030902        	l8ui	a0, a9, 3
    1fcb:	030100        	rsr.lend	a0
    1fce:	020902        	l8ui	a0, a9, 2
    1fd1:	030100        	rsr.lend	a0
    1fd4:	030901        	l32r	a0, fffc2bf8 <_etext+0xbff3ef64>
    1fd7:	030100        	rsr.lend	a0
    1fda:	030901        	l32r	a0, fffc2c00 <_etext+0xbff3ef6c>
    1fdd:	030100        	rsr.lend	a0
    1fe0:	020901        	l32r	a0, fffc2804 <_etext+0xbff3eb70>
    1fe3:	030100        	rsr.lend	a0
    1fe6:	020901        	l32r	a0, fffc280c <_etext+0xbff3eb78>
    1fe9:	030100        	rsr.lend	a0
    1fec:	060901        	l32r	a0, fffc3810 <_etext+0xbff3fb7c>
    1fef:	030100        	rsr.lend	a0
    1ff2:	020901        	l32r	a0, fffc2818 <_etext+0xbff3eb84>
    1ff5:	030100        	rsr.lend	a0
    1ff8:	030901        	l32r	a0, fffc2c1c <_etext+0xbff3ef88>
    1ffb:	030100        	rsr.lend	a0
    1ffe:	020901        	l32r	a0, fffc2824 <_etext+0xbff3eb90>
    2001:	030100        	rsr.lend	a0
    2004:	030901        	l32r	a0, fffc2c28 <_etext+0xbff3ef94>
    2007:	030100        	rsr.lend	a0
    200a:	020901        	l32r	a0, fffc2830 <_etext+0xbff3eb9c>
    200d:	030100        	rsr.lend	a0
    2010:	020901        	l32r	a0, fffc2834 <_etext+0xbff3eba0>
    2013:	030100        	rsr.lend	a0
    2016:	020901        	l32r	a0, fffc283c <_etext+0xbff3eba8>
    2019:	030100        	rsr.lend	a0
    201c:	020902        	l8ui	a0, a9, 2
    201f:	030100        	rsr.lend	a0
    2022:	020901        	l32r	a0, fffc2848 <_etext+0xbff3ebb4>
    2025:	030100        	rsr.lend	a0
    2028:	020901        	l32r	a0, fffc284c <_etext+0xbff3ebb8>
    202b:	030100        	rsr.lend	a0
    202e:	030901        	l32r	a0, fffc2c54 <_etext+0xbff3efc0>
    2031:	030100        	rsr.lend	a0
    2034:	020901        	l32r	a0, fffc2858 <_etext+0xbff3ebc4>
    2037:	030100        	rsr.lend	a0
    203a:	030902        	l8ui	a0, a9, 3
    203d:	030100        	rsr.lend	a0
    2040:	020902        	l8ui	a0, a9, 2
    2043:	030100        	rsr.lend	a0
    2046:	030901        	l32r	a0, fffc2c6c <_etext+0xbff3efd8>
    2049:	030100        	rsr.lend	a0
    204c:	030901        	l32r	a0, fffc2c70 <_etext+0xbff3efdc>
    204f:	030100        	rsr.lend	a0
    2052:	020901        	l32r	a0, fffc2878 <_etext+0xbff3ebe4>
    2055:	030100        	rsr.lend	a0
    2058:	020901        	l32r	a0, fffc287c <_etext+0xbff3ebe8>
    205b:	030100        	rsr.lend	a0
    205e:	060901        	l32r	a0, fffc3884 <_etext+0xbff3fbf0>
    2061:	030100        	rsr.lend	a0
    2064:	020901        	l32r	a0, fffc2888 <_etext+0xbff3ebf4>
    2067:	030100        	rsr.lend	a0
    206a:	030901        	l32r	a0, fffc2c90 <_etext+0xbff3effc>
    206d:	030100        	rsr.lend	a0
    2070:	030901        	l32r	a0, fffc2c94 <_etext+0xbff3f000>
    2073:	030100        	rsr.lend	a0
    2076:	030901        	l32r	a0, fffc2c9c <_etext+0xbff3f008>
    2079:	030100        	rsr.lend	a0
    207c:	020901        	l32r	a0, fffc28a0 <_etext+0xbff3ec0c>
    207f:	030100        	rsr.lend	a0
    2082:	030901        	l32r	a0, fffc2ca8 <_etext+0xbff3f014>
    2085:	030100        	rsr.lend	a0
    2088:	020901        	l32r	a0, fffc28ac <_etext+0xbff3ec18>
    208b:	030100        	rsr.lend	a0
    208e:	020901        	l32r	a0, fffc28b4 <_etext+0xbff3ec20>
    2091:	030100        	rsr.lend	a0
    2094:	020901        	l32r	a0, fffc28b8 <_etext+0xbff3ec24>
    2097:	030100        	rsr.lend	a0
    209a:	020902        	l8ui	a0, a9, 2
    209d:	030100        	rsr.lend	a0
    20a0:	020901        	l32r	a0, fffc28c4 <_etext+0xbff3ec30>
    20a3:	030100        	rsr.lend	a0
    20a6:	020901        	l32r	a0, fffc28cc <_etext+0xbff3ec38>
    20a9:	030100        	rsr.lend	a0
    20ac:	030901        	l32r	a0, fffc2cd0 <_etext+0xbff3f03c>
    20af:	030100        	rsr.lend	a0
    20b2:	020901        	l32r	a0, fffc28d8 <_etext+0xbff3ec44>
    20b5:	030100        	rsr.lend	a0
    20b8:	030901        	l32r	a0, fffc2cdc <_etext+0xbff3f048>
    20bb:	030100        	rsr.lend	a0
    20be:	030901        	l32r	a0, fffc2ce4 <_etext+0xbff3f050>
    20c1:	030100        	rsr.lend	a0
    20c4:	020901        	l32r	a0, fffc28e8 <_etext+0xbff3ec54>
    20c7:	030100        	rsr.lend	a0
    20ca:	030901        	l32r	a0, fffc2cf0 <_etext+0xbff3f05c>
    20cd:	030100        	rsr.lend	a0
    20d0:	030901        	l32r	a0, fffc2cf4 <_etext+0xbff3f060>
    20d3:	030100        	rsr.lend	a0
    20d6:	020901        	l32r	a0, fffc28fc <_etext+0xbff3ec68>
    20d9:	030100        	rsr.lend	a0
    20dc:	050902        	l8ui	a0, a9, 5
    20df:	030100        	rsr.lend	a0
    20e2:	020902        	l8ui	a0, a9, 2
    20e5:	030100        	rsr.lend	a0
    20e8:	030901        	l32r	a0, fffc2d0c <_etext+0xbff3f078>
    20eb:	030100        	rsr.lend	a0
    20ee:	030901        	l32r	a0, fffc2d14 <_etext+0xbff3f080>
    20f1:	030100        	rsr.lend	a0
    20f4:	020901        	l32r	a0, fffc2918 <_etext+0xbff3ec84>
    20f7:	030100        	rsr.lend	a0
    20fa:	020901        	l32r	a0, fffc2920 <_etext+0xbff3ec8c>
    20fd:	030100        	rsr.lend	a0
    2100:	060901        	l32r	a0, fffc3924 <_etext+0xbff3fc90>
    2103:	030100        	rsr.lend	a0
    2106:	020901        	l32r	a0, fffc292c <_etext+0xbff3ec98>
    2109:	030100        	rsr.lend	a0
    210c:	020901        	l32r	a0, fffc2930 <_etext+0xbff3ec9c>
    210f:	030100        	rsr.lend	a0
    2112:	030901        	l32r	a0, fffc2d38 <_etext+0xbff3f0a4>
    2115:	030100        	rsr.lend	a0
    2118:	020901        	l32r	a0, fffc293c <_etext+0xbff3eca8>
    211b:	030100        	rsr.lend	a0
    211e:	030901        	l32r	a0, fffc2d44 <_etext+0xbff3f0b0>
    2121:	030100        	rsr.lend	a0
    2124:	020901        	l32r	a0, fffc2948 <_etext+0xbff3ecb4>
    2127:	030100        	rsr.lend	a0
    212a:	020901        	l32r	a0, fffc2950 <_etext+0xbff3ecbc>
    212d:	030100        	rsr.lend	a0
    2130:	030901        	l32r	a0, fffc2d54 <_etext+0xbff3f0c0>
    2133:	030100        	rsr.lend	a0
    2136:	020901        	l32r	a0, fffc295c <_etext+0xbff3ecc8>
    2139:	030100        	rsr.lend	a0
    213c:	050902        	l8ui	a0, a9, 5
    213f:	030100        	rsr.lend	a0
    2142:	020902        	l8ui	a0, a9, 2
    2145:	030100        	rsr.lend	a0
    2148:	030901        	l32r	a0, fffc2d6c <_etext+0xbff3f0d8>
    214b:	030100        	rsr.lend	a0
    214e:	030901        	l32r	a0, fffc2d74 <_etext+0xbff3f0e0>
    2151:	030100        	rsr.lend	a0
    2154:	020901        	l32r	a0, fffc2978 <_etext+0xbff3ece4>
    2157:	030100        	rsr.lend	a0
    215a:	020901        	l32r	a0, fffc2980 <_etext+0xbff3ecec>
    215d:	030100        	rsr.lend	a0
    2160:	060901        	l32r	a0, fffc3984 <_etext+0xbff3fcf0>
    2163:	030100        	rsr.lend	a0
    2166:	020901        	l32r	a0, fffc298c <_etext+0xbff3ecf8>
    2169:	030100        	rsr.lend	a0
    216c:	030901        	l32r	a0, fffc2d90 <_etext+0xbff3f0fc>
    216f:	030100        	rsr.lend	a0
    2172:	030901        	l32r	a0, fffc2d98 <_etext+0xbff3f104>
    2175:	030100        	rsr.lend	a0
    2178:	030901        	l32r	a0, fffc2d9c <_etext+0xbff3f108>
    217b:	030100        	rsr.lend	a0
    217e:	020901        	l32r	a0, fffc29a4 <_etext+0xbff3ed10>
    2181:	030100        	rsr.lend	a0
    2184:	030901        	l32r	a0, fffc2da8 <_etext+0xbff3f114>
    2187:	030100        	rsr.lend	a0
    218a:	020901        	l32r	a0, fffc29b0 <_etext+0xbff3ed1c>
    218d:	030100        	rsr.lend	a0
    2190:	020901        	l32r	a0, fffc29b4 <_etext+0xbff3ed20>
    2193:	030100        	rsr.lend	a0
    2196:	020901        	l32r	a0, fffc29bc <_etext+0xbff3ed28>
    2199:	030100        	rsr.lend	a0
    219c:	020902        	l8ui	a0, a9, 2
    219f:	030100        	rsr.lend	a0
    21a2:	020901        	l32r	a0, fffc29c8 <_etext+0xbff3ed34>
    21a5:	030100        	rsr.lend	a0
    21a8:	020901        	l32r	a0, fffc29cc <_etext+0xbff3ed38>
    21ab:	030100        	rsr.lend	a0
    21ae:	030901        	l32r	a0, fffc2dd4 <_etext+0xbff3f140>
    21b1:	030100        	rsr.lend	a0
    21b4:	020901        	l32r	a0, fffc29d8 <_etext+0xbff3ed44>
    21b7:	030100        	rsr.lend	a0
    21ba:	050902        	l8ui	a0, a9, 5
    21bd:	030100        	rsr.lend	a0
    21c0:	020902        	l8ui	a0, a9, 2
    21c3:	030100        	rsr.lend	a0
    21c6:	030901        	l32r	a0, fffc2dec <_etext+0xbff3f158>
    21c9:	030100        	rsr.lend	a0
    21cc:	030901        	l32r	a0, fffc2df0 <_etext+0xbff3f15c>
    21cf:	030100        	rsr.lend	a0
    21d2:	020901        	l32r	a0, fffc29f8 <_etext+0xbff3ed64>
    21d5:	030100        	rsr.lend	a0
    21d8:	020901        	l32r	a0, fffc29fc <_etext+0xbff3ed68>
    21db:	030100        	rsr.lend	a0
    21de:	060901        	l32r	a0, fffc3a04 <_etext+0xbff3fd70>
    21e1:	030100        	rsr.lend	a0
    21e4:	020901        	l32r	a0, fffc2a08 <_etext+0xbff3ed74>
    21e7:	030100        	rsr.lend	a0
    21ea:	020901        	l32r	a0, fffc2a10 <_etext+0xbff3ed7c>
    21ed:	030100        	rsr.lend	a0
    21f0:	030901        	l32r	a0, fffc2e14 <_etext+0xbff3f180>
    21f3:	030100        	rsr.lend	a0
    21f6:	020901        	l32r	a0, fffc2a1c <_etext+0xbff3ed88>
    21f9:	030100        	rsr.lend	a0
    21fc:	030901        	l32r	a0, fffc2e20 <_etext+0xbff3f18c>
    21ff:	030100        	rsr.lend	a0
    2202:	020901        	l32r	a0, fffc2a28 <_etext+0xbff3ed94>
    2205:	030100        	rsr.lend	a0
    2208:	020901        	l32r	a0, fffc2a2c <_etext+0xbff3ed98>
    220b:	030100        	rsr.lend	a0
    220e:	030901        	l32r	a0, fffc2e34 <_etext+0xbff3f1a0>
    2211:	030100        	rsr.lend	a0
    2214:	020901        	l32r	a0, fffc2a38 <_etext+0xbff3eda4>
    2217:	030100        	rsr.lend	a0
    221a:	050902        	l8ui	a0, a9, 5
    221d:	030100        	rsr.lend	a0
    2220:	020902        	l8ui	a0, a9, 2
    2223:	030100        	rsr.lend	a0
    2226:	030901        	l32r	a0, fffc2e4c <_etext+0xbff3f1b8>
    2229:	030100        	rsr.lend	a0
    222c:	030901        	l32r	a0, fffc2e50 <_etext+0xbff3f1bc>
    222f:	030100        	rsr.lend	a0
    2232:	020901        	l32r	a0, fffc2a58 <_etext+0xbff3edc4>
    2235:	030100        	rsr.lend	a0
    2238:	020901        	l32r	a0, fffc2a5c <_etext+0xbff3edc8>
    223b:	030100        	rsr.lend	a0
    223e:	060901        	l32r	a0, fffc3a64 <_etext+0xbff3fdd0>
    2241:	030100        	rsr.lend	a0
    2244:	020901        	l32r	a0, fffc2a68 <_etext+0xbff3edd4>
    2247:	030100        	rsr.lend	a0
    224a:	030901        	l32r	a0, fffc2e70 <_etext+0xbff3f1dc>
    224d:	030100        	rsr.lend	a0
    2250:	030901        	l32r	a0, fffc2e74 <_etext+0xbff3f1e0>
    2253:	030100        	rsr.lend	a0
    2256:	020901        	l32r	a0, fffc2a7c <_etext+0xbff3ede8>
    2259:	030100        	rsr.lend	a0
    225c:	030901        	l32r	a0, fffc2e80 <_etext+0xbff3f1ec>
    225f:	030100        	rsr.lend	a0
    2262:	030901        	l32r	a0, fffc2e88 <_etext+0xbff3f1f4>
    2265:	030100        	rsr.lend	a0
    2268:	030901        	l32r	a0, fffc2e8c <_etext+0xbff3f1f8>
    226b:	030100        	rsr.lend	a0
    226e:	030901        	l32r	a0, fffc2e94 <_etext+0xbff3f200>
    2271:	030100        	rsr.lend	a0
    2274:	020901        	l32r	a0, fffc2a98 <_etext+0xbff3ee04>
    2277:	030100        	rsr.lend	a0
    227a:	020901        	l32r	a0, fffc2aa0 <_etext+0xbff3ee0c>
    227d:	030100        	rsr.lend	a0
    2280:	020901        	l32r	a0, fffc2aa4 <_etext+0xbff3ee10>
    2283:	030100        	rsr.lend	a0
    2286:	020902        	l8ui	a0, a9, 2
    2289:	030100        	rsr.lend	a0
    228c:	030901        	l32r	a0, fffc2eb0 <_etext+0xbff3f21c>
    228f:	030100        	rsr.lend	a0
    2292:	020901        	l32r	a0, fffc2ab8 <_etext+0xbff3ee24>
    2295:	030100        	rsr.lend	a0
    2298:	030901        	l32r	a0, fffc2ebc <_etext+0xbff3f228>
    229b:	030100        	rsr.lend	a0
    229e:	030901        	l32r	a0, fffc2ec4 <_etext+0xbff3f230>
    22a1:	030100        	rsr.lend	a0
    22a4:	020901        	l32r	a0, fffc2ac8 <_etext+0xbff3ee34>
    22a7:	030100        	rsr.lend	a0
    22aa:	030901        	l32r	a0, fffc2ed0 <_etext+0xbff3f23c>
    22ad:	030100        	rsr.lend	a0
    22b0:	020901        	l32r	a0, fffc2ad4 <_etext+0xbff3ee40>
    22b3:	030100        	rsr.lend	a0
    22b6:	060902        	l8ui	a0, a9, 6
    22b9:	030100        	rsr.lend	a0
    22bc:	020902        	l8ui	a0, a9, 2
    22bf:	030100        	rsr.lend	a0
    22c2:	030901        	l32r	a0, fffc2ee8 <_etext+0xbff3f254>
    22c5:	030100        	rsr.lend	a0
    22c8:	030901        	l32r	a0, fffc2eec <_etext+0xbff3f258>
    22cb:	030100        	rsr.lend	a0
    22ce:	020901        	l32r	a0, fffc2af4 <_etext+0xbff3ee60>
    22d1:	030100        	rsr.lend	a0
    22d4:	020901        	l32r	a0, fffc2af8 <_etext+0xbff3ee64>
    22d7:	030100        	rsr.lend	a0
    22da:	060901        	l32r	a0, fffc3b00 <_etext+0xbff3fe6c>
    22dd:	030100        	rsr.lend	a0
    22e0:	020901        	l32r	a0, fffc2b04 <_etext+0xbff3ee70>
    22e3:	030100        	rsr.lend	a0
    22e6:	030901        	l32r	a0, fffc2f0c <_etext+0xbff3f278>
    22e9:	030100        	rsr.lend	a0
    22ec:	030901        	l32r	a0, fffc2f10 <_etext+0xbff3f27c>
    22ef:	030100        	rsr.lend	a0
    22f2:	020901        	l32r	a0, fffc2b18 <_etext+0xbff3ee84>
    22f5:	030100        	rsr.lend	a0
    22f8:	030901        	l32r	a0, fffc2f1c <_etext+0xbff3f288>
    22fb:	030100        	rsr.lend	a0
    22fe:	030901        	l32r	a0, fffc2f24 <_etext+0xbff3f290>
    2301:	030100        	rsr.lend	a0
    2304:	020901        	l32r	a0, fffc2b28 <_etext+0xbff3ee94>
    2307:	030100        	rsr.lend	a0
    230a:	030901        	l32r	a0, fffc2f30 <_etext+0xbff3f29c>
    230d:	030100        	rsr.lend	a0
    2310:	020901        	l32r	a0, fffc2b34 <_etext+0xbff3eea0>
    2313:	030100        	rsr.lend	a0
    2316:	030902        	l8ui	a0, a9, 3
    2319:	030100        	rsr.lend	a0
    231c:	020902        	l8ui	a0, a9, 2
    231f:	030100        	rsr.lend	a0
    2322:	030901        	l32r	a0, fffc2f48 <_etext+0xbff3f2b4>
    2325:	030100        	rsr.lend	a0
    2328:	030901        	l32r	a0, fffc2f4c <_etext+0xbff3f2b8>
    232b:	030100        	rsr.lend	a0
    232e:	030901        	l32r	a0, fffc2f54 <_etext+0xbff3f2c0>
    2331:	030100        	rsr.lend	a0
    2334:	030901        	l32r	a0, fffc2f58 <_etext+0xbff3f2c4>
    2337:	030100        	rsr.lend	a0
    233a:	060901        	l32r	a0, fffc3b60 <_etext+0xbff3fecc>
    233d:	030100        	rsr.lend	a0
    2340:	060901        	l32r	a0, fffc3b64 <_etext+0xbff3fed0>
    2343:	030100        	rsr.lend	a0
    2346:	030901        	l32r	a0, fffc2f6c <_etext+0xbff3f2d8>
    2349:	030100        	rsr.lend	a0
    234c:	030901        	l32r	a0, fffc2f70 <_etext+0xbff3f2dc>
    234f:	030100        	rsr.lend	a0
    2352:	030901        	l32r	a0, fffc2f78 <_etext+0xbff3f2e4>
    2355:	030100        	rsr.lend	a0
    2358:	030901        	l32r	a0, fffc2f7c <_etext+0xbff3f2e8>
    235b:	030100        	rsr.lend	a0
    235e:	060901        	l32r	a0, fffc3b84 <_etext+0xbff3fef0>
    2361:	030100        	rsr.lend	a0
    2364:	060901        	l32r	a0, fffc3b88 <_etext+0xbff3fef4>
    2367:	090100        	l32e	a0, a1, -64
    236a:	000002        	l8ui	a0, a0, 0
    236d:	000101        	l32r	a0, fffc2374 <_etext+0xbff3e6e0>
    2370:	e00205        	call0	fffe2394 <_etext+0xbff5e700>
    2373:	083b      	addi.n	a0, a8, 3
    2375:	ef0340        	f64cmph	a0, a3, a4, 14
    2378:	030105        	call0	538c <EXCVADDR+0x529e>
    237b:	030901        	l32r	a0, fffc2fa0 <_etext+0xbff3f30c>
    237e:	030100        	rsr.lend	a0
    2381:	030901        	l32r	a0, fffc2fa8 <_etext+0xbff3f314>
    2384:	030100        	rsr.lend	a0
    2387:	030901        	l32r	a0, fffc2fac <_etext+0xbff3f318>
    238a:	030100        	rsr.lend	a0
    238d:	060901        	l32r	a0, fffc3bb4 <_etext+0xbff3ff20>
    2390:	090100        	l32e	a0, a1, -64
    2393:	000005        	call0	2394 <EXCVADDR+0x22a6>
    2396:	6b0101        	l32r	a0, fffdcf9c <_etext+0xbff59308>
    2399:	000a      	add.n	a0, a0, a0
    239b:	000200        	lsi	f0, a2, 0
    239e:	000023        	lsi	f2, a0, 0
    23a1:	010100        	slli	a0, a1, 32
    23a4:	0efb      	addi.n	a0, a14, 15
    23a6:	000d      	mov.n	a0, a0
    23a8:	010101        	l32r	a0, fffc27ac <_etext+0xbff3eb18>
    23ab:	000001        	l32r	a0, fffc23ac <_etext+0xbff3e718>
    23ae:	000100        	lsi	f0, a1, 0
    23b1:	620100        	lsi	f0, a1, 0x188
    23b4:	6c6975        	call12	6ea4c <EXCVADDR+0x6e95e>
    23b7:	000064        	lsi	f6, a0, 0
    23ba:	747942        	lsi	f4, a9, 0x1d0
    23bd:	532e65        	call8	556a4 <EXCVADDR+0x555b6>
    23c0:	000100        	lsi	f0, a1, 0
    23c3:	000000        	ill
    23c6:	780205        	call0	7a3e8 <EXCVADDR+0x7a2fa>
    23c9:	0818      	l32i.n	a1, a8, 0
    23cb:	cd0340        	lsi	f4, a3, 0x334
    23ce:	030100        	rsr.lend	a0
    23d1:	030901        	l32r	a0, fffc2ff8 <_etext+0xbff3f364>
    23d4:	030100        	rsr.lend	a0
    23d7:	020901        	l32r	a0, fffc2bfc <_etext+0xbff3ef68>
    23da:	030100        	rsr.lend	a0
    23dd:	030901        	l32r	a0, fffc3004 <_etext+0xbff3f370>
    23e0:	030100        	rsr.lend	a0
    23e3:	030901        	l32r	a0, fffc3008 <_etext+0xbff3f374>
    23e6:	030100        	rsr.lend	a0
    23e9:	020901        	l32r	a0, fffc2c10 <_etext+0xbff3ef7c>
    23ec:	030100        	rsr.lend	a0
    23ef:	030906        	j	3017 <EXCVADDR+0x2f29>
    23f2:	030100        	rsr.lend	a0
    23f5:	030901        	l32r	a0, fffc301c <_etext+0xbff3f388>
    23f8:	030100        	rsr.lend	a0
    23fb:	020901        	l32r	a0, fffc2c20 <_etext+0xbff3ef8c>
    23fe:	030100        	rsr.lend	a0
    2401:	030901        	l32r	a0, fffc3028 <_etext+0xbff3f394>
    2404:	030100        	rsr.lend	a0
    2407:	020901        	l32r	a0, fffc2c2c <_etext+0xbff3ef98>
    240a:	030100        	rsr.lend	a0
    240d:	020901        	l32r	a0, fffc2c34 <_etext+0xbff3efa0>
    2410:	030100        	rsr.lend	a0
    2413:	030901        	l32r	a0, fffc3038 <_etext+0xbff3f3a4>
    2416:	030100        	rsr.lend	a0
    2419:	030901        	l32r	a0, fffc3040 <_etext+0xbff3f3ac>
    241c:	030100        	rsr.lend	a0
    241f:	020906        	j	2c47 <EXCVADDR+0x2b59>
    2422:	030100        	rsr.lend	a0
    2425:	030901        	l32r	a0, fffc304c <_etext+0xbff3f3b8>
    2428:	030100        	rsr.lend	a0
    242b:	020901        	l32r	a0, fffc2c50 <_etext+0xbff3efbc>
    242e:	030100        	rsr.lend	a0
    2431:	030901        	l32r	a0, fffc3058 <_etext+0xbff3f3c4>
    2434:	030100        	rsr.lend	a0
    2437:	020901        	l32r	a0, fffc2c5c <_etext+0xbff3efc8>
    243a:	030100        	rsr.lend	a0
    243d:	020906        	j	2c65 <EXCVADDR+0x2b77>
    2440:	030100        	rsr.lend	a0
    2443:	030901        	l32r	a0, fffc3068 <_etext+0xbff3f3d4>
    2446:	030100        	rsr.lend	a0
    2449:	020901        	l32r	a0, fffc2c70 <_etext+0xbff3efdc>
    244c:	030100        	rsr.lend	a0
    244f:	030901        	l32r	a0, fffc3074 <_etext+0xbff3f3e0>
    2452:	030100        	rsr.lend	a0
    2455:	030901        	l32r	a0, fffc307c <_etext+0xbff3f3e8>
    2458:	030100        	rsr.lend	a0
    245b:	030901        	l32r	a0, fffc3080 <_etext+0xbff3f3ec>
    245e:	030100        	rsr.lend	a0
    2461:	030901        	l32r	a0, fffc3088 <_etext+0xbff3f3f4>
    2464:	030100        	rsr.lend	a0
    2467:	020901        	l32r	a0, fffc2c8c <_etext+0xbff3eff8>
    246a:	030100        	rsr.lend	a0
    246d:	090902        	l8ui	a0, a9, 9
    2470:	030100        	rsr.lend	a0
    2473:	020902        	l8ui	a0, a9, 2
    2476:	030100        	rsr.lend	a0
    2479:	030901        	l32r	a0, fffc30a0 <_etext+0xbff3f40c>
    247c:	030100        	rsr.lend	a0
    247f:	020901        	l32r	a0, fffc2ca4 <_etext+0xbff3f010>
    2482:	030100        	rsr.lend	a0
    2485:	060901        	l32r	a0, fffc3cac <_etext+0xbff40018>
    2488:	030100        	rsr.lend	a0
    248b:	030906        	j	30b3 <EXCVADDR+0x2fc5>
    248e:	030100        	rsr.lend	a0
    2491:	030901        	l32r	a0, fffc30b8 <_etext+0xbff3f424>
    2494:	030100        	rsr.lend	a0
    2497:	030901        	l32r	a0, fffc30bc <_etext+0xbff3f428>
    249a:	030100        	rsr.lend	a0
    249d:	020901        	l32r	a0, fffc2cc4 <_etext+0xbff3f030>
    24a0:	030100        	rsr.lend	a0
    24a3:	030901        	l32r	a0, fffc30c8 <_etext+0xbff3f434>
    24a6:	030100        	rsr.lend	a0
    24a9:	030901        	l32r	a0, fffc30d0 <_etext+0xbff3f43c>
    24ac:	030100        	rsr.lend	a0
    24af:	020906        	j	2cd7 <EXCVADDR+0x2be9>
    24b2:	030100        	rsr.lend	a0
    24b5:	030901        	l32r	a0, fffc30dc <_etext+0xbff3f448>
    24b8:	030100        	rsr.lend	a0
    24bb:	030901        	l32r	a0, fffc30e0 <_etext+0xbff3f44c>
    24be:	030100        	rsr.lend	a0
    24c1:	030901        	l32r	a0, fffc30e8 <_etext+0xbff3f454>
    24c4:	030100        	rsr.lend	a0
    24c7:	030901        	l32r	a0, fffc30ec <_etext+0xbff3f458>
    24ca:	030100        	rsr.lend	a0
    24cd:	020901        	l32r	a0, fffc2cf4 <_etext+0xbff3f060>
    24d0:	030100        	rsr.lend	a0
    24d3:	060901        	l32r	a0, fffc3cf8 <_etext+0xbff40064>
    24d6:	030100        	rsr.lend	a0
    24d9:	060901        	l32r	a0, fffc3d00 <_etext+0xbff4006c>
    24dc:	030100        	rsr.lend	a0
    24df:	020901        	l32r	a0, fffc2d04 <_etext+0xbff3f070>
    24e2:	030100        	rsr.lend	a0
    24e5:	060901        	l32r	a0, fffc3d0c <_etext+0xbff40078>
    24e8:	030100        	rsr.lend	a0
    24eb:	030901        	l32r	a0, fffc3110 <_etext+0xbff3f47c>
    24ee:	030100        	rsr.lend	a0
    24f1:	030901        	l32r	a0, fffc3118 <_etext+0xbff3f484>
    24f4:	030100        	rsr.lend	a0
    24f7:	020901        	l32r	a0, fffc2d1c <_etext+0xbff3f088>
    24fa:	030100        	rsr.lend	a0
    24fd:	030901        	l32r	a0, fffc3124 <_etext+0xbff3f490>
    2500:	030100        	rsr.lend	a0
    2503:	030901        	l32r	a0, fffc3128 <_etext+0xbff3f494>
    2506:	030100        	rsr.lend	a0
    2509:	020901        	l32r	a0, fffc2d30 <_etext+0xbff3f09c>
    250c:	030100        	rsr.lend	a0
    250f:	060902        	l8ui	a0, a9, 6
    2512:	030100        	rsr.lend	a0
    2515:	020902        	l8ui	a0, a9, 2
    2518:	030100        	rsr.lend	a0
    251b:	030901        	l32r	a0, fffc3140 <_etext+0xbff3f4ac>
    251e:	030100        	rsr.lend	a0
    2521:	030901        	l32r	a0, fffc3148 <_etext+0xbff3f4b4>
    2524:	030100        	rsr.lend	a0
    2527:	020901        	l32r	a0, fffc2d4c <_etext+0xbff3f0b8>
    252a:	030100        	rsr.lend	a0
    252d:	060901        	l32r	a0, fffc3d54 <_etext+0xbff400c0>
    2530:	030100        	rsr.lend	a0
    2533:	030901        	l32r	a0, fffc3158 <_etext+0xbff3f4c4>
    2536:	030100        	rsr.lend	a0
    2539:	030901        	l32r	a0, fffc3160 <_etext+0xbff3f4cc>
    253c:	030100        	rsr.lend	a0
    253f:	020901        	l32r	a0, fffc2d64 <_etext+0xbff3f0d0>
    2542:	030100        	rsr.lend	a0
    2545:	020901        	l32r	a0, fffc2d6c <_etext+0xbff3f0d8>
    2548:	030100        	rsr.lend	a0
    254b:	030901        	l32r	a0, fffc3170 <_etext+0xbff3f4dc>
    254e:	030100        	rsr.lend	a0
    2551:	020901        	l32r	a0, fffc2d78 <_etext+0xbff3f0e4>
    2554:	030100        	rsr.lend	a0
    2557:	050902        	l8ui	a0, a9, 5
    255a:	030100        	rsr.lend	a0
    255d:	020902        	l8ui	a0, a9, 2
    2560:	030100        	rsr.lend	a0
    2563:	030901        	l32r	a0, fffc3188 <_etext+0xbff3f4f4>
    2566:	030100        	rsr.lend	a0
    2569:	030901        	l32r	a0, fffc3190 <_etext+0xbff3f4fc>
    256c:	030100        	rsr.lend	a0
    256f:	020901        	l32r	a0, fffc2d94 <_etext+0xbff3f100>
    2572:	030100        	rsr.lend	a0
    2575:	060901        	l32r	a0, fffc3d9c <_etext+0xbff40108>
    2578:	030100        	rsr.lend	a0
    257b:	030901        	l32r	a0, fffc31a0 <_etext+0xbff3f50c>
    257e:	030100        	rsr.lend	a0
    2581:	030901        	l32r	a0, fffc31a8 <_etext+0xbff3f514>
    2584:	030100        	rsr.lend	a0
    2587:	030901        	l32r	a0, fffc31ac <_etext+0xbff3f518>
    258a:	030100        	rsr.lend	a0
    258d:	020901        	l32r	a0, fffc2db4 <_etext+0xbff3f120>
    2590:	030100        	rsr.lend	a0
    2593:	030901        	l32r	a0, fffc31b8 <_etext+0xbff3f524>
    2596:	030100        	rsr.lend	a0
    2599:	030901        	l32r	a0, fffc31c0 <_etext+0xbff3f52c>
    259c:	030100        	rsr.lend	a0
    259f:	030901        	l32r	a0, fffc31c4 <_etext+0xbff3f530>
    25a2:	030100        	rsr.lend	a0
    25a5:	020901        	l32r	a0, fffc2dcc <_etext+0xbff3f138>
    25a8:	030100        	rsr.lend	a0
    25ab:	030901        	l32r	a0, fffc31d0 <_etext+0xbff3f53c>
    25ae:	030100        	rsr.lend	a0
    25b1:	030901        	l32r	a0, fffc31d8 <_etext+0xbff3f544>
    25b4:	030100        	rsr.lend	a0
    25b7:	020901        	l32r	a0, fffc2ddc <_etext+0xbff3f148>
    25ba:	030100        	rsr.lend	a0
    25bd:	060902        	l8ui	a0, a9, 6
    25c0:	030100        	rsr.lend	a0
    25c3:	020902        	l8ui	a0, a9, 2
    25c6:	030100        	rsr.lend	a0
    25c9:	030901        	l32r	a0, fffc31f0 <_etext+0xbff3f55c>
    25cc:	030100        	rsr.lend	a0
    25cf:	030901        	l32r	a0, fffc31f4 <_etext+0xbff3f560>
    25d2:	030100        	rsr.lend	a0
    25d5:	020901        	l32r	a0, fffc2dfc <_etext+0xbff3f168>
    25d8:	030100        	rsr.lend	a0
    25db:	060901        	l32r	a0, fffc3e00 <_etext+0xbff4016c>
    25de:	030100        	rsr.lend	a0
    25e1:	030901        	l32r	a0, fffc3208 <_etext+0xbff3f574>
    25e4:	030100        	rsr.lend	a0
    25e7:	020901        	l32r	a0, fffc2e0c <_etext+0xbff3f178>
    25ea:	030100        	rsr.lend	a0
    25ed:	020901        	l32r	a0, fffc2e14 <_etext+0xbff3f180>
    25f0:	030100        	rsr.lend	a0
    25f3:	020901        	l32r	a0, fffc2e18 <_etext+0xbff3f184>
    25f6:	030100        	rsr.lend	a0
    25f9:	030901        	l32r	a0, fffc3220 <_etext+0xbff3f58c>
    25fc:	030100        	rsr.lend	a0
    25ff:	030901        	l32r	a0, fffc3224 <_etext+0xbff3f590>
    2602:	030100        	rsr.lend	a0
    2605:	020901        	l32r	a0, fffc2e2c <_etext+0xbff3f198>
    2608:	030100        	rsr.lend	a0
    260b:	030902        	l8ui	a0, a9, 3
    260e:	030100        	rsr.lend	a0
    2611:	020902        	l8ui	a0, a9, 2
    2614:	030100        	rsr.lend	a0
    2617:	030901        	l32r	a0, fffc323c <_etext+0xbff3f5a8>
    261a:	030100        	rsr.lend	a0
    261d:	030901        	l32r	a0, fffc3244 <_etext+0xbff3f5b0>
    2620:	030100        	rsr.lend	a0
    2623:	030901        	l32r	a0, fffc3248 <_etext+0xbff3f5b4>
    2626:	030100        	rsr.lend	a0
    2629:	030901        	l32r	a0, fffc3250 <_etext+0xbff3f5bc>
    262c:	030100        	rsr.lend	a0
    262f:	060901        	l32r	a0, fffc3e54 <_etext+0xbff401c0>
    2632:	030100        	rsr.lend	a0
    2635:	030901        	l32r	a0, fffc325c <_etext+0xbff3f5c8>
    2638:	030100        	rsr.lend	a0
    263b:	020901        	l32r	a0, fffc2e60 <_etext+0xbff3f1cc>
    263e:	030100        	rsr.lend	a0
    2641:	020901        	l32r	a0, fffc2e68 <_etext+0xbff3f1d4>
    2644:	030100        	rsr.lend	a0
    2647:	030901        	l32r	a0, fffc326c <_etext+0xbff3f5d8>
    264a:	030100        	rsr.lend	a0
    264d:	030901        	l32r	a0, fffc3274 <_etext+0xbff3f5e0>
    2650:	030100        	rsr.lend	a0
    2653:	020901        	l32r	a0, fffc2e78 <_etext+0xbff3f1e4>
    2656:	030100        	rsr.lend	a0
    2659:	050902        	l8ui	a0, a9, 5
    265c:	030100        	rsr.lend	a0
    265f:	020902        	l8ui	a0, a9, 2
    2662:	030100        	rsr.lend	a0
    2665:	030901        	l32r	a0, fffc328c <_etext+0xbff3f5f8>
    2668:	030100        	rsr.lend	a0
    266b:	030901        	l32r	a0, fffc3290 <_etext+0xbff3f5fc>
    266e:	030100        	rsr.lend	a0
    2671:	030901        	l32r	a0, fffc3298 <_etext+0xbff3f604>
    2674:	030100        	rsr.lend	a0
    2677:	030901        	l32r	a0, fffc329c <_etext+0xbff3f608>
    267a:	030100        	rsr.lend	a0
    267d:	060901        	l32r	a0, fffc3ea4 <_etext+0xbff40210>
    2680:	030100        	rsr.lend	a0
    2683:	030901        	l32r	a0, fffc32a8 <_etext+0xbff3f614>
    2686:	030100        	rsr.lend	a0
    2689:	030901        	l32r	a0, fffc32b0 <_etext+0xbff3f61c>
    268c:	030100        	rsr.lend	a0
    268f:	030901        	l32r	a0, fffc32b4 <_etext+0xbff3f620>
    2692:	030100        	rsr.lend	a0
    2695:	030901        	l32r	a0, fffc32bc <_etext+0xbff3f628>
    2698:	030100        	rsr.lend	a0
    269b:	030901        	l32r	a0, fffc32c0 <_etext+0xbff3f62c>
    269e:	030100        	rsr.lend	a0
    26a1:	020901        	l32r	a0, fffc2ec8 <_etext+0xbff3f234>
    26a4:	030100        	rsr.lend	a0
    26a7:	030902        	l8ui	a0, a9, 3
    26aa:	030100        	rsr.lend	a0
    26ad:	020902        	l8ui	a0, a9, 2
    26b0:	030100        	rsr.lend	a0
    26b3:	030901        	l32r	a0, fffc32d8 <_etext+0xbff3f644>
    26b6:	030100        	rsr.lend	a0
    26b9:	030901        	l32r	a0, fffc32e0 <_etext+0xbff3f64c>
    26bc:	030100        	rsr.lend	a0
    26bf:	030901        	l32r	a0, fffc32e4 <_etext+0xbff3f650>
    26c2:	030100        	rsr.lend	a0
    26c5:	030901        	l32r	a0, fffc32ec <_etext+0xbff3f658>
    26c8:	030100        	rsr.lend	a0
    26cb:	060901        	l32r	a0, fffc3ef0 <_etext+0xbff4025c>
    26ce:	030100        	rsr.lend	a0
    26d1:	030901        	l32r	a0, fffc32f8 <_etext+0xbff3f664>
    26d4:	030100        	rsr.lend	a0
    26d7:	020901        	l32r	a0, fffc2efc <_etext+0xbff3f268>
    26da:	030100        	rsr.lend	a0
    26dd:	020901        	l32r	a0, fffc2f04 <_etext+0xbff3f270>
    26e0:	030100        	rsr.lend	a0
    26e3:	030901        	l32r	a0, fffc3308 <_etext+0xbff3f674>
    26e6:	030100        	rsr.lend	a0
    26e9:	030901        	l32r	a0, fffc3310 <_etext+0xbff3f67c>
    26ec:	030100        	rsr.lend	a0
    26ef:	030901        	l32r	a0, fffc3314 <_etext+0xbff3f680>
    26f2:	030100        	rsr.lend	a0
    26f5:	030901        	l32r	a0, fffc331c <_etext+0xbff3f688>
    26f8:	030100        	rsr.lend	a0
    26fb:	020901        	l32r	a0, fffc2f20 <_etext+0xbff3f28c>
    26fe:	030100        	rsr.lend	a0
    2701:	030902        	l8ui	a0, a9, 3
    2704:	030100        	rsr.lend	a0
    2707:	020902        	l8ui	a0, a9, 2
    270a:	030100        	rsr.lend	a0
    270d:	030901        	l32r	a0, fffc3334 <_etext+0xbff3f6a0>
    2710:	030100        	rsr.lend	a0
    2713:	030901        	l32r	a0, fffc3338 <_etext+0xbff3f6a4>
    2716:	030100        	rsr.lend	a0
    2719:	030901        	l32r	a0, fffc3340 <_etext+0xbff3f6ac>
    271c:	030100        	rsr.lend	a0
    271f:	030901        	l32r	a0, fffc3344 <_etext+0xbff3f6b0>
    2722:	030100        	rsr.lend	a0
    2725:	060901        	l32r	a0, fffc3f4c <_etext+0xbff402b8>
    2728:	030100        	rsr.lend	a0
    272b:	030901        	l32r	a0, fffc3350 <_etext+0xbff3f6bc>
    272e:	030100        	rsr.lend	a0
    2731:	020901        	l32r	a0, fffc2f58 <_etext+0xbff3f2c4>
    2734:	030100        	rsr.lend	a0
    2737:	020901        	l32r	a0, fffc2f5c <_etext+0xbff3f2c8>
    273a:	030100        	rsr.lend	a0
    273d:	020901        	l32r	a0, fffc2f64 <_etext+0xbff3f2d0>
    2740:	030100        	rsr.lend	a0
    2743:	030901        	l32r	a0, fffc3368 <_etext+0xbff3f6d4>
    2746:	030100        	rsr.lend	a0
    2749:	030901        	l32r	a0, fffc3370 <_etext+0xbff3f6dc>
    274c:	030100        	rsr.lend	a0
    274f:	020901        	l32r	a0, fffc2f74 <_etext+0xbff3f2e0>
    2752:	030100        	rsr.lend	a0
    2755:	030902        	l8ui	a0, a9, 3
    2758:	030100        	rsr.lend	a0
    275b:	020902        	l8ui	a0, a9, 2
    275e:	030100        	rsr.lend	a0
    2761:	030901        	l32r	a0, fffc3388 <_etext+0xbff3f6f4>
    2764:	030100        	rsr.lend	a0
    2767:	030901        	l32r	a0, fffc338c <_etext+0xbff3f6f8>
    276a:	030100        	rsr.lend	a0
    276d:	020901        	l32r	a0, fffc2f94 <_etext+0xbff3f300>
    2770:	030100        	rsr.lend	a0
    2773:	020901        	l32r	a0, fffc2f98 <_etext+0xbff3f304>
    2776:	030100        	rsr.lend	a0
    2779:	060901        	l32r	a0, fffc3fa0 <_etext+0xbff4030c>
    277c:	030100        	rsr.lend	a0
    277f:	020901        	l32r	a0, fffc2fa4 <_etext+0xbff3f310>
    2782:	030100        	rsr.lend	a0
    2785:	030901        	l32r	a0, fffc33ac <_etext+0xbff3f718>
    2788:	030100        	rsr.lend	a0
    278b:	030901        	l32r	a0, fffc33b0 <_etext+0xbff3f71c>
    278e:	030100        	rsr.lend	a0
    2791:	030901        	l32r	a0, fffc33b8 <_etext+0xbff3f724>
    2794:	030100        	rsr.lend	a0
    2797:	030901        	l32r	a0, fffc33bc <_etext+0xbff3f728>
    279a:	030100        	rsr.lend	a0
    279d:	020901        	l32r	a0, fffc2fc4 <_etext+0xbff3f330>
    27a0:	030100        	rsr.lend	a0
    27a3:	060902        	l8ui	a0, a9, 6
    27a6:	030100        	rsr.lend	a0
    27a9:	020902        	l8ui	a0, a9, 2
    27ac:	030100        	rsr.lend	a0
    27af:	030901        	l32r	a0, fffc33d4 <_etext+0xbff3f740>
    27b2:	030100        	rsr.lend	a0
    27b5:	030901        	l32r	a0, fffc33dc <_etext+0xbff3f748>
    27b8:	030100        	rsr.lend	a0
    27bb:	030901        	l32r	a0, fffc33e0 <_etext+0xbff3f74c>
    27be:	030100        	rsr.lend	a0
    27c1:	030901        	l32r	a0, fffc33e8 <_etext+0xbff3f754>
    27c4:	030100        	rsr.lend	a0
    27c7:	060901        	l32r	a0, fffc3fec <_etext+0xbff40358>
    27ca:	030100        	rsr.lend	a0
    27cd:	030901        	l32r	a0, fffc33f4 <_etext+0xbff3f760>
    27d0:	030100        	rsr.lend	a0
    27d3:	020901        	l32r	a0, fffc2ff8 <_etext+0xbff3f364>
    27d6:	030100        	rsr.lend	a0
    27d9:	020901        	l32r	a0, fffc3000 <_etext+0xbff3f36c>
    27dc:	030100        	rsr.lend	a0
    27df:	020901        	l32r	a0, fffc3004 <_etext+0xbff3f370>
    27e2:	030100        	rsr.lend	a0
    27e5:	030901        	l32r	a0, fffc340c <_etext+0xbff3f778>
    27e8:	030100        	rsr.lend	a0
    27eb:	030901        	l32r	a0, fffc3410 <_etext+0xbff3f77c>
    27ee:	030100        	rsr.lend	a0
    27f1:	020901        	l32r	a0, fffc3018 <_etext+0xbff3f384>
    27f4:	030100        	rsr.lend	a0
    27f7:	030902        	l8ui	a0, a9, 3
    27fa:	030100        	rsr.lend	a0
    27fd:	020902        	l8ui	a0, a9, 2
    2800:	030100        	rsr.lend	a0
    2803:	030901        	l32r	a0, fffc3428 <_etext+0xbff3f794>
    2806:	030100        	rsr.lend	a0
    2809:	030901        	l32r	a0, fffc3430 <_etext+0xbff3f79c>
    280c:	030100        	rsr.lend	a0
    280f:	030901        	l32r	a0, fffc3434 <_etext+0xbff3f7a0>
    2812:	030100        	rsr.lend	a0
    2815:	030901        	l32r	a0, fffc343c <_etext+0xbff3f7a8>
    2818:	030100        	rsr.lend	a0
    281b:	060901        	l32r	a0, fffc4040 <_etext+0xbff403ac>
    281e:	030100        	rsr.lend	a0
    2821:	030901        	l32r	a0, fffc3448 <_etext+0xbff3f7b4>
    2824:	030100        	rsr.lend	a0
    2827:	020901        	l32r	a0, fffc304c <_etext+0xbff3f3b8>
    282a:	030100        	rsr.lend	a0
    282d:	020901        	l32r	a0, fffc3054 <_etext+0xbff3f3c0>
    2830:	030100        	rsr.lend	a0
    2833:	030901        	l32r	a0, fffc3458 <_etext+0xbff3f7c4>
    2836:	030100        	rsr.lend	a0
    2839:	030901        	l32r	a0, fffc3460 <_etext+0xbff3f7cc>
    283c:	030100        	rsr.lend	a0
    283f:	020901        	l32r	a0, fffc3064 <_etext+0xbff3f3d0>
    2842:	030100        	rsr.lend	a0
    2845:	050902        	l8ui	a0, a9, 5
    2848:	030100        	rsr.lend	a0
    284b:	020902        	l8ui	a0, a9, 2
    284e:	030100        	rsr.lend	a0
    2851:	030901        	l32r	a0, fffc3478 <_etext+0xbff3f7e4>
    2854:	030100        	rsr.lend	a0
    2857:	030901        	l32r	a0, fffc347c <_etext+0xbff3f7e8>
    285a:	030100        	rsr.lend	a0
    285d:	020901        	l32r	a0, fffc3084 <_etext+0xbff3f3f0>
    2860:	030100        	rsr.lend	a0
    2863:	020901        	l32r	a0, fffc3088 <_etext+0xbff3f3f4>
    2866:	030100        	rsr.lend	a0
    2869:	060901        	l32r	a0, fffc4090 <_etext+0xbff403fc>
    286c:	030100        	rsr.lend	a0
    286f:	020901        	l32r	a0, fffc3094 <_etext+0xbff3f400>
    2872:	030100        	rsr.lend	a0
    2875:	030901        	l32r	a0, fffc349c <_etext+0xbff3f808>
    2878:	030100        	rsr.lend	a0
    287b:	020901        	l32r	a0, fffc30a0 <_etext+0xbff3f40c>
    287e:	030100        	rsr.lend	a0
    2881:	030901        	l32r	a0, fffc34a8 <_etext+0xbff3f814>
    2884:	030100        	rsr.lend	a0
    2887:	030901        	l32r	a0, fffc34ac <_etext+0xbff3f818>
    288a:	030100        	rsr.lend	a0
    288d:	020901        	l32r	a0, fffc30b4 <_etext+0xbff3f420>
    2890:	030100        	rsr.lend	a0
    2893:	030902        	l8ui	a0, a9, 3
    2896:	030100        	rsr.lend	a0
    2899:	020902        	l8ui	a0, a9, 2
    289c:	030100        	rsr.lend	a0
    289f:	030901        	l32r	a0, fffc34c4 <_etext+0xbff3f830>
    28a2:	030100        	rsr.lend	a0
    28a5:	030901        	l32r	a0, fffc34cc <_etext+0xbff3f838>
    28a8:	030100        	rsr.lend	a0
    28ab:	030901        	l32r	a0, fffc34d0 <_etext+0xbff3f83c>
    28ae:	030100        	rsr.lend	a0
    28b1:	030901        	l32r	a0, fffc34d8 <_etext+0xbff3f844>
    28b4:	030100        	rsr.lend	a0
    28b7:	060901        	l32r	a0, fffc40dc <_etext+0xbff40448>
    28ba:	030100        	rsr.lend	a0
    28bd:	030901        	l32r	a0, fffc34e4 <_etext+0xbff3f850>
    28c0:	030100        	rsr.lend	a0
    28c3:	020901        	l32r	a0, fffc30e8 <_etext+0xbff3f454>
    28c6:	030100        	rsr.lend	a0
    28c9:	020901        	l32r	a0, fffc30f0 <_etext+0xbff3f45c>
    28cc:	030100        	rsr.lend	a0
    28cf:	020901        	l32r	a0, fffc30f4 <_etext+0xbff3f460>
    28d2:	030100        	rsr.lend	a0
    28d5:	020901        	l32r	a0, fffc30fc <_etext+0xbff3f468>
    28d8:	030100        	rsr.lend	a0
    28db:	030901        	l32r	a0, fffc3500 <_etext+0xbff3f86c>
    28de:	030100        	rsr.lend	a0
    28e1:	020901        	l32r	a0, fffc3108 <_etext+0xbff3f474>
    28e4:	030100        	rsr.lend	a0
    28e7:	040902        	l8ui	a0, a9, 4
    28ea:	030100        	rsr.lend	a0
    28ed:	020902        	l8ui	a0, a9, 2
    28f0:	030100        	rsr.lend	a0
    28f3:	030901        	l32r	a0, fffc3518 <_etext+0xbff3f884>
    28f6:	030100        	rsr.lend	a0
    28f9:	030901        	l32r	a0, fffc3520 <_etext+0xbff3f88c>
    28fc:	030100        	rsr.lend	a0
    28ff:	030901        	l32r	a0, fffc3524 <_etext+0xbff3f890>
    2902:	030100        	rsr.lend	a0
    2905:	030901        	l32r	a0, fffc352c <_etext+0xbff3f898>
    2908:	030100        	rsr.lend	a0
    290b:	060901        	l32r	a0, fffc4130 <_etext+0xbff4049c>
    290e:	030100        	rsr.lend	a0
    2911:	030901        	l32r	a0, fffc3538 <_etext+0xbff3f8a4>
    2914:	030100        	rsr.lend	a0
    2917:	030901        	l32r	a0, fffc353c <_etext+0xbff3f8a8>
    291a:	030100        	rsr.lend	a0
    291d:	060901        	l32r	a0, fffc4144 <_etext+0xbff404b0>
    2920:	030100        	rsr.lend	a0
    2923:	0909      	s32i.n	a0, a9, 0
    2925:	010004        	lsi	f0, a0, 4
    2928:	090103        	lsi	f0, a1, 36
    292b:	010003        	lsi	f0, a0, 4
    292e:	090103        	lsi	f0, a1, 36
    2931:	010003        	lsi	f0, a0, 4
    2934:	090103        	lsi	f0, a1, 36
    2937:	010003        	lsi	f0, a0, 4
    293a:	090103        	lsi	f0, a1, 36
    293d:	010003        	lsi	f0, a0, 4
    2940:	090103        	lsi	f0, a1, 36
    2943:	010003        	lsi	f0, a0, 4
    2946:	090103        	lsi	f0, a1, 36
    2949:	010002        	l8ui	a0, a0, 1
    294c:	090103        	lsi	f0, a1, 36
    294f:	010002        	l8ui	a0, a0, 1
    2952:	090103        	lsi	f0, a1, 36
    2955:	010006        	j	2d59 <EXCVADDR+0x2c6b>
    2958:	090103        	lsi	f0, a1, 36
    295b:	010006        	j	2d5f <EXCVADDR+0x2c71>
    295e:	090103        	lsi	f0, a1, 36
    2961:	010003        	lsi	f0, a0, 4
    2964:	090103        	lsi	f0, a1, 36
    2967:	010006        	j	2d6b <EXCVADDR+0x2c7d>
    296a:	090103        	lsi	f0, a1, 36
    296d:	010003        	lsi	f0, a0, 4
    2970:	090103        	lsi	f0, a1, 36
    2973:	010003        	lsi	f0, a0, 4
    2976:	090103        	lsi	f0, a1, 36
    2979:	010002        	l8ui	a0, a0, 1
    297c:	090103        	lsi	f0, a1, 36
    297f:	010003        	lsi	f0, a0, 4
    2982:	090103        	lsi	f0, a1, 36
    2985:	010003        	lsi	f0, a0, 4
    2988:	090103        	lsi	f0, a1, 36
    298b:	010002        	l8ui	a0, a0, 1
    298e:	090203        	lsi	f0, a2, 36
    2991:	010004        	lsi	f0, a0, 4
    2994:	090203        	lsi	f0, a2, 36
    2997:	010002        	l8ui	a0, a0, 1
    299a:	090103        	lsi	f0, a1, 36
    299d:	010003        	lsi	f0, a0, 4
    29a0:	090103        	lsi	f0, a1, 36
    29a3:	010003        	lsi	f0, a0, 4
    29a6:	090103        	lsi	f0, a1, 36
    29a9:	010003        	lsi	f0, a0, 4
    29ac:	090103        	lsi	f0, a1, 36
    29af:	010003        	lsi	f0, a0, 4
    29b2:	090103        	lsi	f0, a1, 36
    29b5:	010006        	j	2db9 <EXCVADDR+0x2ccb>
    29b8:	090103        	lsi	f0, a1, 36
    29bb:	010003        	lsi	f0, a0, 4
    29be:	090103        	lsi	f0, a1, 36
    29c1:	010003        	lsi	f0, a0, 4
    29c4:	090103        	lsi	f0, a1, 36
    29c7:	010002        	l8ui	a0, a0, 1
    29ca:	090103        	lsi	f0, a1, 36
    29cd:	010002        	l8ui	a0, a0, 1
    29d0:	090103        	lsi	f0, a1, 36
    29d3:	010003        	lsi	f0, a0, 4
    29d6:	090103        	lsi	f0, a1, 36
    29d9:	010002        	l8ui	a0, a0, 1
    29dc:	090203        	lsi	f0, a2, 36
    29df:	010005        	call0	39e0 <EXCVADDR+0x38f2>
    29e2:	090203        	lsi	f0, a2, 36
    29e5:	010002        	l8ui	a0, a0, 1
    29e8:	090103        	lsi	f0, a1, 36
    29eb:	010003        	lsi	f0, a0, 4
    29ee:	090103        	lsi	f0, a1, 36
    29f1:	010003        	lsi	f0, a0, 4
    29f4:	090103        	lsi	f0, a1, 36
    29f7:	010003        	lsi	f0, a0, 4
    29fa:	090103        	lsi	f0, a1, 36
    29fd:	010003        	lsi	f0, a0, 4
    2a00:	090103        	lsi	f0, a1, 36
    2a03:	010006        	j	2e07 <EXCVADDR+0x2d19>
    2a06:	090103        	lsi	f0, a1, 36
    2a09:	010003        	lsi	f0, a0, 4
    2a0c:	090103        	lsi	f0, a1, 36
    2a0f:	010003        	lsi	f0, a0, 4
    2a12:	090103        	lsi	f0, a1, 36
    2a15:	010003        	lsi	f0, a0, 4
    2a18:	090103        	lsi	f0, a1, 36
    2a1b:	010002        	l8ui	a0, a0, 1
    2a1e:	090103        	lsi	f0, a1, 36
    2a21:	010003        	lsi	f0, a0, 4
    2a24:	090103        	lsi	f0, a1, 36
    2a27:	010003        	lsi	f0, a0, 4
    2a2a:	090103        	lsi	f0, a1, 36
    2a2d:	010003        	lsi	f0, a0, 4
    2a30:	090103        	lsi	f0, a1, 36
    2a33:	010002        	l8ui	a0, a0, 1
    2a36:	090103        	lsi	f0, a1, 36
    2a39:	010003        	lsi	f0, a0, 4
    2a3c:	090103        	lsi	f0, a1, 36
    2a3f:	010003        	lsi	f0, a0, 4
    2a42:	090103        	lsi	f0, a1, 36
    2a45:	010002        	l8ui	a0, a0, 1
    2a48:	090203        	lsi	f0, a2, 36
    2a4b:	010006        	j	2e4f <EXCVADDR+0x2d61>
    2a4e:	090203        	lsi	f0, a2, 36
    2a51:	010002        	l8ui	a0, a0, 1
    2a54:	090103        	lsi	f0, a1, 36
    2a57:	010003        	lsi	f0, a0, 4
    2a5a:	090103        	lsi	f0, a1, 36
    2a5d:	010003        	lsi	f0, a0, 4
    2a60:	090103        	lsi	f0, a1, 36
    2a63:	010003        	lsi	f0, a0, 4
    2a66:	090103        	lsi	f0, a1, 36
    2a69:	010003        	lsi	f0, a0, 4
    2a6c:	090103        	lsi	f0, a1, 36
    2a6f:	010006        	j	2e73 <EXCVADDR+0x2d85>
    2a72:	090103        	lsi	f0, a1, 36
    2a75:	010003        	lsi	f0, a0, 4
    2a78:	090103        	lsi	f0, a1, 36
    2a7b:	010002        	l8ui	a0, a0, 1
    2a7e:	090103        	lsi	f0, a1, 36
    2a81:	010002        	l8ui	a0, a0, 1
    2a84:	090103        	lsi	f0, a1, 36
    2a87:	010002        	l8ui	a0, a0, 1
    2a8a:	090103        	lsi	f0, a1, 36
    2a8d:	010003        	lsi	f0, a0, 4
    2a90:	090103        	lsi	f0, a1, 36
    2a93:	010003        	lsi	f0, a0, 4
    2a96:	090103        	lsi	f0, a1, 36
    2a99:	010002        	l8ui	a0, a0, 1
    2a9c:	090203        	lsi	f0, a2, 36
    2a9f:	010003        	lsi	f0, a0, 4
    2aa2:	090203        	lsi	f0, a2, 36
    2aa5:	010002        	l8ui	a0, a0, 1
    2aa8:	090103        	lsi	f0, a1, 36
    2aab:	010003        	lsi	f0, a0, 4
    2aae:	090103        	lsi	f0, a1, 36
    2ab1:	010003        	lsi	f0, a0, 4
    2ab4:	090103        	lsi	f0, a1, 36
    2ab7:	010003        	lsi	f0, a0, 4
    2aba:	090103        	lsi	f0, a1, 36
    2abd:	010003        	lsi	f0, a0, 4
    2ac0:	090103        	lsi	f0, a1, 36
    2ac3:	010006        	j	2ec7 <EXCVADDR+0x2dd9>
    2ac6:	090103        	lsi	f0, a1, 36
    2ac9:	010003        	lsi	f0, a0, 4
    2acc:	090103        	lsi	f0, a1, 36
    2acf:	010002        	l8ui	a0, a0, 1
    2ad2:	090103        	lsi	f0, a1, 36
    2ad5:	010002        	l8ui	a0, a0, 1
    2ad8:	090103        	lsi	f0, a1, 36
    2adb:	010003        	lsi	f0, a0, 4
    2ade:	090103        	lsi	f0, a1, 36
    2ae1:	010003        	lsi	f0, a0, 4
    2ae4:	090103        	lsi	f0, a1, 36
    2ae7:	010002        	l8ui	a0, a0, 1
    2aea:	090203        	lsi	f0, a2, 36
    2aed:	010005        	call0	3af0 <EXCVADDR+0x3a02>
    2af0:	090203        	lsi	f0, a2, 36
    2af3:	010002        	l8ui	a0, a0, 1
    2af6:	090103        	lsi	f0, a1, 36
    2af9:	010003        	lsi	f0, a0, 4
    2afc:	090103        	lsi	f0, a1, 36
    2aff:	010003        	lsi	f0, a0, 4
    2b02:	090103        	lsi	f0, a1, 36
    2b05:	010003        	lsi	f0, a0, 4
    2b08:	090103        	lsi	f0, a1, 36
    2b0b:	010003        	lsi	f0, a0, 4
    2b0e:	090103        	lsi	f0, a1, 36
    2b11:	010006        	j	2f15 <EXCVADDR+0x2e27>
    2b14:	090103        	lsi	f0, a1, 36
    2b17:	010003        	lsi	f0, a0, 4
    2b1a:	090103        	lsi	f0, a1, 36
    2b1d:	010003        	lsi	f0, a0, 4
    2b20:	090103        	lsi	f0, a1, 36
    2b23:	010003        	lsi	f0, a0, 4
    2b26:	090103        	lsi	f0, a1, 36
    2b29:	010003        	lsi	f0, a0, 4
    2b2c:	090103        	lsi	f0, a1, 36
    2b2f:	010003        	lsi	f0, a0, 4
    2b32:	090103        	lsi	f0, a1, 36
    2b35:	010002        	l8ui	a0, a0, 1
    2b38:	090203        	lsi	f0, a2, 36
    2b3b:	010003        	lsi	f0, a0, 4
    2b3e:	090203        	lsi	f0, a2, 36
    2b41:	010002        	l8ui	a0, a0, 1
    2b44:	090103        	lsi	f0, a1, 36
    2b47:	010003        	lsi	f0, a0, 4
    2b4a:	090103        	lsi	f0, a1, 36
    2b4d:	010003        	lsi	f0, a0, 4
    2b50:	090103        	lsi	f0, a1, 36
    2b53:	010003        	lsi	f0, a0, 4
    2b56:	090103        	lsi	f0, a1, 36
    2b59:	010003        	lsi	f0, a0, 4
    2b5c:	090103        	lsi	f0, a1, 36
    2b5f:	010006        	j	2f63 <EXCVADDR+0x2e75>
    2b62:	090103        	lsi	f0, a1, 36
    2b65:	010003        	lsi	f0, a0, 4
    2b68:	090103        	lsi	f0, a1, 36
    2b6b:	010002        	l8ui	a0, a0, 1
    2b6e:	090103        	lsi	f0, a1, 36
    2b71:	010002        	l8ui	a0, a0, 1
    2b74:	090103        	lsi	f0, a1, 36
    2b77:	010003        	lsi	f0, a0, 4
    2b7a:	090103        	lsi	f0, a1, 36
    2b7d:	010003        	lsi	f0, a0, 4
    2b80:	090103        	lsi	f0, a1, 36
    2b83:	010003        	lsi	f0, a0, 4
    2b86:	090103        	lsi	f0, a1, 36
    2b89:	010003        	lsi	f0, a0, 4
    2b8c:	090103        	lsi	f0, a1, 36
    2b8f:	010002        	l8ui	a0, a0, 1
    2b92:	090203        	lsi	f0, a2, 36
    2b95:	010003        	lsi	f0, a0, 4
    2b98:	090203        	lsi	f0, a2, 36
    2b9b:	010002        	l8ui	a0, a0, 1
    2b9e:	090103        	lsi	f0, a1, 36
    2ba1:	010003        	lsi	f0, a0, 4
    2ba4:	090103        	lsi	f0, a1, 36
    2ba7:	010003        	lsi	f0, a0, 4
    2baa:	090103        	lsi	f0, a1, 36
    2bad:	010003        	lsi	f0, a0, 4
    2bb0:	090103        	lsi	f0, a1, 36
    2bb3:	010003        	lsi	f0, a0, 4
    2bb6:	090103        	lsi	f0, a1, 36
    2bb9:	010006        	j	2fbd <EXCVADDR+0x2ecf>
    2bbc:	090103        	lsi	f0, a1, 36
    2bbf:	010003        	lsi	f0, a0, 4
    2bc2:	090103        	lsi	f0, a1, 36
    2bc5:	010002        	l8ui	a0, a0, 1
    2bc8:	090103        	lsi	f0, a1, 36
    2bcb:	010002        	l8ui	a0, a0, 1
    2bce:	090103        	lsi	f0, a1, 36
    2bd1:	010002        	l8ui	a0, a0, 1
    2bd4:	090103        	lsi	f0, a1, 36
    2bd7:	010003        	lsi	f0, a0, 4
    2bda:	090103        	lsi	f0, a1, 36
    2bdd:	010003        	lsi	f0, a0, 4
    2be0:	090103        	lsi	f0, a1, 36
    2be3:	010002        	l8ui	a0, a0, 1
    2be6:	090203        	lsi	f0, a2, 36
    2be9:	010003        	lsi	f0, a0, 4
    2bec:	090203        	lsi	f0, a2, 36
    2bef:	010002        	l8ui	a0, a0, 1
    2bf2:	090103        	lsi	f0, a1, 36
    2bf5:	010003        	lsi	f0, a0, 4
    2bf8:	090103        	lsi	f0, a1, 36
    2bfb:	010003        	lsi	f0, a0, 4
    2bfe:	090103        	lsi	f0, a1, 36
    2c01:	010002        	l8ui	a0, a0, 1
    2c04:	090103        	lsi	f0, a1, 36
    2c07:	010002        	l8ui	a0, a0, 1
    2c0a:	090103        	lsi	f0, a1, 36
    2c0d:	010006        	j	3011 <EXCVADDR+0x2f23>
    2c10:	090103        	lsi	f0, a1, 36
    2c13:	010002        	l8ui	a0, a0, 1
    2c16:	090103        	lsi	f0, a1, 36
    2c19:	010003        	lsi	f0, a0, 4
    2c1c:	090103        	lsi	f0, a1, 36
    2c1f:	010003        	lsi	f0, a0, 4
    2c22:	090103        	lsi	f0, a1, 36
    2c25:	010003        	lsi	f0, a0, 4
    2c28:	090103        	lsi	f0, a1, 36
    2c2b:	010003        	lsi	f0, a0, 4
    2c2e:	090103        	lsi	f0, a1, 36
    2c31:	010002        	l8ui	a0, a0, 1
    2c34:	090203        	lsi	f0, a2, 36
    2c37:	010006        	j	303b <EXCVADDR+0x2f4d>
    2c3a:	090203        	lsi	f0, a2, 36
    2c3d:	010002        	l8ui	a0, a0, 1
    2c40:	090103        	lsi	f0, a1, 36
    2c43:	010003        	lsi	f0, a0, 4
    2c46:	090103        	lsi	f0, a1, 36
    2c49:	010003        	lsi	f0, a0, 4
    2c4c:	090103        	lsi	f0, a1, 36
    2c4f:	010003        	lsi	f0, a0, 4
    2c52:	090103        	lsi	f0, a1, 36
    2c55:	010003        	lsi	f0, a0, 4
    2c58:	090103        	lsi	f0, a1, 36
    2c5b:	010006        	j	305f <EXCVADDR+0x2f71>
    2c5e:	090103        	lsi	f0, a1, 36
    2c61:	010003        	lsi	f0, a0, 4
    2c64:	090103        	lsi	f0, a1, 36
    2c67:	010002        	l8ui	a0, a0, 1
    2c6a:	090103        	lsi	f0, a1, 36
    2c6d:	010002        	l8ui	a0, a0, 1
    2c70:	090103        	lsi	f0, a1, 36
    2c73:	010002        	l8ui	a0, a0, 1
    2c76:	090103        	lsi	f0, a1, 36
    2c79:	010003        	lsi	f0, a0, 4
    2c7c:	090103        	lsi	f0, a1, 36
    2c7f:	010003        	lsi	f0, a0, 4
    2c82:	090103        	lsi	f0, a1, 36
    2c85:	010002        	l8ui	a0, a0, 1
    2c88:	090203        	lsi	f0, a2, 36
    2c8b:	010003        	lsi	f0, a0, 4
    2c8e:	090203        	lsi	f0, a2, 36
    2c91:	010002        	l8ui	a0, a0, 1
    2c94:	090103        	lsi	f0, a1, 36
    2c97:	010003        	lsi	f0, a0, 4
    2c9a:	090103        	lsi	f0, a1, 36
    2c9d:	010003        	lsi	f0, a0, 4
    2ca0:	090103        	lsi	f0, a1, 36
    2ca3:	010003        	lsi	f0, a0, 4
    2ca6:	090103        	lsi	f0, a1, 36
    2ca9:	010003        	lsi	f0, a0, 4
    2cac:	090103        	lsi	f0, a1, 36
    2caf:	010006        	j	30b3 <EXCVADDR+0x2fc5>
    2cb2:	090103        	lsi	f0, a1, 36
    2cb5:	010003        	lsi	f0, a0, 4
    2cb8:	090103        	lsi	f0, a1, 36
    2cbb:	010002        	l8ui	a0, a0, 1
    2cbe:	090103        	lsi	f0, a1, 36
    2cc1:	010002        	l8ui	a0, a0, 1
    2cc4:	090103        	lsi	f0, a1, 36
    2cc7:	010003        	lsi	f0, a0, 4
    2cca:	090103        	lsi	f0, a1, 36
    2ccd:	010003        	lsi	f0, a0, 4
    2cd0:	090103        	lsi	f0, a1, 36
    2cd3:	010002        	l8ui	a0, a0, 1
    2cd6:	090203        	lsi	f0, a2, 36
    2cd9:	010005        	call0	3cdc <EXCVADDR+0x3bee>
    2cdc:	090203        	lsi	f0, a2, 36
    2cdf:	010002        	l8ui	a0, a0, 1
    2ce2:	090103        	lsi	f0, a1, 36
    2ce5:	010003        	lsi	f0, a0, 4
    2ce8:	090103        	lsi	f0, a1, 36
    2ceb:	010003        	lsi	f0, a0, 4
    2cee:	090103        	lsi	f0, a1, 36
    2cf1:	010002        	l8ui	a0, a0, 1
    2cf4:	090103        	lsi	f0, a1, 36
    2cf7:	010002        	l8ui	a0, a0, 1
    2cfa:	090103        	lsi	f0, a1, 36
    2cfd:	010006        	j	3101 <EXCVADDR+0x3013>
    2d00:	090103        	lsi	f0, a1, 36
    2d03:	010002        	l8ui	a0, a0, 1
    2d06:	090103        	lsi	f0, a1, 36
    2d09:	010003        	lsi	f0, a0, 4
    2d0c:	090103        	lsi	f0, a1, 36
    2d0f:	010002        	l8ui	a0, a0, 1
    2d12:	090103        	lsi	f0, a1, 36
    2d15:	010003        	lsi	f0, a0, 4
    2d18:	090103        	lsi	f0, a1, 36
    2d1b:	010003        	lsi	f0, a0, 4
    2d1e:	090103        	lsi	f0, a1, 36
    2d21:	010002        	l8ui	a0, a0, 1
    2d24:	090203        	lsi	f0, a2, 36
    2d27:	010003        	lsi	f0, a0, 4
    2d2a:	090203        	lsi	f0, a2, 36
    2d2d:	010002        	l8ui	a0, a0, 1
    2d30:	090103        	lsi	f0, a1, 36
    2d33:	010003        	lsi	f0, a0, 4
    2d36:	090103        	lsi	f0, a1, 36
    2d39:	010003        	lsi	f0, a0, 4
    2d3c:	090103        	lsi	f0, a1, 36
    2d3f:	010003        	lsi	f0, a0, 4
    2d42:	090103        	lsi	f0, a1, 36
    2d45:	010003        	lsi	f0, a0, 4
    2d48:	090103        	lsi	f0, a1, 36
    2d4b:	010006        	j	314f <EXCVADDR+0x3061>
    2d4e:	090103        	lsi	f0, a1, 36
    2d51:	010003        	lsi	f0, a0, 4
    2d54:	090103        	lsi	f0, a1, 36
    2d57:	010002        	l8ui	a0, a0, 1
    2d5a:	090103        	lsi	f0, a1, 36
    2d5d:	010002        	l8ui	a0, a0, 1
    2d60:	090103        	lsi	f0, a1, 36
    2d63:	010002        	l8ui	a0, a0, 1
    2d66:	090103        	lsi	f0, a1, 36
    2d69:	010002        	l8ui	a0, a0, 1
    2d6c:	090103        	lsi	f0, a1, 36
    2d6f:	010003        	lsi	f0, a0, 4
    2d72:	090103        	lsi	f0, a1, 36
    2d75:	010002        	l8ui	a0, a0, 1
    2d78:	090203        	lsi	f0, a2, 36
    2d7b:	010004        	lsi	f0, a0, 4
    2d7e:	090203        	lsi	f0, a2, 36
    2d81:	010002        	l8ui	a0, a0, 1
    2d84:	090103        	lsi	f0, a1, 36
    2d87:	010003        	lsi	f0, a0, 4
    2d8a:	090103        	lsi	f0, a1, 36
    2d8d:	010003        	lsi	f0, a0, 4
    2d90:	090103        	lsi	f0, a1, 36
    2d93:	010003        	lsi	f0, a0, 4
    2d96:	090103        	lsi	f0, a1, 36
    2d99:	010003        	lsi	f0, a0, 4
    2d9c:	090103        	lsi	f0, a1, 36
    2d9f:	010006        	j	31a3 <EXCVADDR+0x30b5>
    2da2:	090103        	lsi	f0, a1, 36
    2da5:	010003        	lsi	f0, a0, 4
    2da8:	090103        	lsi	f0, a1, 36
    2dab:	010003        	lsi	f0, a0, 4
    2dae:	090103        	lsi	f0, a1, 36
    2db1:	010006        	j	31b5 <EXCVADDR+0x30c7>
    2db4:	090103        	lsi	f0, a1, 36
    2db7:	010003        	lsi	f0, a0, 4
    2dba:	090103        	lsi	f0, a1, 36
    2dbd:	010003        	lsi	f0, a0, 4
    2dc0:	090103        	lsi	f0, a1, 36
    2dc3:	010002        	l8ui	a0, a0, 1
    2dc6:	090103        	lsi	f0, a1, 36
    2dc9:	010002        	l8ui	a0, a0, 1
    2dcc:	090103        	lsi	f0, a1, 36
    2dcf:	010006        	j	31d3 <EXCVADDR+0x30e5>
    2dd2:	090103        	lsi	f0, a1, 36
    2dd5:	010006        	j	31d9 <EXCVADDR+0x30eb>
    2dd8:	0209      	s32i.n	a0, a2, 0
    2dda:	010000        	slli	a0, a0, 32
    2ddd:	050001        	l32r	a0, fffc41e0 <_etext+0xbff4054c>
    2de0:	3bf802        	s32ri	a0, a8, 236
    2de3:	4008      	l32i.n	a0, a0, 16
    2de5:	04d803        	lsi	f0, a8, 16
    2de8:	010301        	l32r	a0, fffc31f4 <_etext+0xbff3f560>
    2deb:	0309      	s32i.n	a0, a3, 0
    2ded:	030100        	rsr.lend	a0
    2df0:	030901        	l32r	a0, fffc3a14 <_etext+0xbff3fd80>
    2df3:	030100        	rsr.lend	a0
    2df6:	030901        	l32r	a0, fffc3a1c <_etext+0xbff3fd88>
    2df9:	030100        	rsr.lend	a0
    2dfc:	060901        	l32r	a0, fffc4620 <_etext+0xbff4098c>
    2dff:	090100        	l32e	a0, a1, -64
    2e02:	000005        	call0	2e04 <EXCVADDR+0x2d16>
    2e05:	bf0101        	l32r	a0, ffff2a0c <_etext+0xbff6ed78>
    2e08:	000c      	movi.n	a0, 0
    2e0a:	000200        	lsi	f0, a2, 0
    2e0d:	000026        	beqi	a0, -1, 2e11 <EXCVADDR+0x2d23>
    2e10:	010100        	slli	a0, a1, 32
    2e13:	0efb      	addi.n	a0, a14, 15
    2e15:	000d      	mov.n	a0, a0
    2e17:	010101        	l32r	a0, fffc321c <_etext+0xbff3f588>
    2e1a:	000001        	l32r	a0, fffc2e1c <_etext+0xbff3f188>
    2e1d:	000100        	lsi	f0, a1, 0
    2e20:	620100        	lsi	f0, a1, 0x188
    2e23:	6c6975        	call12	6f4b8 <EXCVADDR+0x6f3ca>
    2e26:	000064        	lsi	f6, a0, 0
    2e29:	666544        	lsi	f4, a5, 0x198
    2e2c:	6e7546        	j	1e805 <EXCVADDR+0x1e717>
    2e2f:	532e63        	lsi	f6, a14, 0x14c
    2e32:	000100        	lsi	f0, a1, 0
    2e35:	000000        	ill
    2e38:	8c0205        	call0	fff8ee5c <_etext+0xbff0b1c8>
    2e3b:	081d      	mov.n	a1, a8
    2e3d:	300340        	xor	a0, a3, a4
    2e40:	010301        	l32r	a0, fffc324c <_etext+0xbff3f5b8>
    2e43:	0309      	s32i.n	a0, a3, 0
    2e45:	030100        	rsr.lend	a0
    2e48:	020901        	l32r	a0, fffc366c <_etext+0xbff3f9d8>
    2e4b:	030100        	rsr.lend	a0
    2e4e:	020901        	l32r	a0, fffc3674 <_etext+0xbff3f9e0>
    2e51:	030100        	rsr.lend	a0
    2e54:	030901        	l32r	a0, fffc3a78 <_etext+0xbff3fde4>
    2e57:	030100        	rsr.lend	a0
    2e5a:	020901        	l32r	a0, fffc3680 <_etext+0xbff3f9ec>
    2e5d:	030100        	rsr.lend	a0
    2e60:	0909      	s32i.n	a0, a9, 0
    2e62:	010030        	slli	a0, a0, 29
    2e65:	090103        	lsi	f0, a1, 36
    2e68:	010003        	lsi	f0, a0, 4
    2e6b:	090103        	lsi	f0, a1, 36
    2e6e:	010003        	lsi	f0, a0, 4
    2e71:	090103        	lsi	f0, a1, 36
    2e74:	010003        	lsi	f0, a0, 4
    2e77:	090103        	lsi	f0, a1, 36
    2e7a:	010002        	l8ui	a0, a0, 1
    2e7d:	090103        	lsi	f0, a1, 36
    2e80:	010006        	j	3284 <EXCVADDR+0x3196>
    2e83:	090103        	lsi	f0, a1, 36
    2e86:	010006        	j	328a <EXCVADDR+0x319c>
    2e89:	090103        	lsi	f0, a1, 36
    2e8c:	010002        	l8ui	a0, a0, 1
    2e8f:	090103        	lsi	f0, a1, 36
    2e92:	010002        	l8ui	a0, a0, 1
    2e95:	090103        	lsi	f0, a1, 36
    2e98:	010002        	l8ui	a0, a0, 1
    2e9b:	090103        	lsi	f0, a1, 36
    2e9e:	010003        	lsi	f0, a0, 4
    2ea1:	090103        	lsi	f0, a1, 36
    2ea4:	010003        	lsi	f0, a0, 4
    2ea7:	090103        	lsi	f0, a1, 36
    2eaa:	010002        	l8ui	a0, a0, 1
    2ead:	090103        	lsi	f0, a1, 36
    2eb0:	010003        	lsi	f0, a0, 4
    2eb3:	090103        	lsi	f0, a1, 36
    2eb6:	010003        	lsi	f0, a0, 4
    2eb9:	090103        	lsi	f0, a1, 36
    2ebc:	010003        	lsi	f0, a0, 4
    2ebf:	090103        	lsi	f0, a1, 36
    2ec2:	010003        	lsi	f0, a0, 4
    2ec5:	090103        	lsi	f0, a1, 36
    2ec8:	010003        	lsi	f0, a0, 4
    2ecb:	090103        	lsi	f0, a1, 36
    2ece:	010003        	lsi	f0, a0, 4
    2ed1:	090103        	lsi	f0, a1, 36
    2ed4:	010003        	lsi	f0, a0, 4
    2ed7:	090103        	lsi	f0, a1, 36
    2eda:	010003        	lsi	f0, a0, 4
    2edd:	090103        	lsi	f0, a1, 36
    2ee0:	010003        	lsi	f0, a0, 4
    2ee3:	090103        	lsi	f0, a1, 36
    2ee6:	010002        	l8ui	a0, a0, 1
    2ee9:	090103        	lsi	f0, a1, 36
    2eec:	010002        	l8ui	a0, a0, 1
    2eef:	090103        	lsi	f0, a1, 36
    2ef2:	010003        	lsi	f0, a0, 4
    2ef5:	090103        	lsi	f0, a1, 36
    2ef8:	010003        	lsi	f0, a0, 4
    2efb:	090103        	lsi	f0, a1, 36
    2efe:	010002        	l8ui	a0, a0, 1
    2f01:	090103        	lsi	f0, a1, 36
    2f04:	010003        	lsi	f0, a0, 4
    2f07:	090103        	lsi	f0, a1, 36
    2f0a:	010002        	l8ui	a0, a0, 1
    2f0d:	090103        	lsi	f0, a1, 36
    2f10:	010003        	lsi	f0, a0, 4
    2f13:	090103        	lsi	f0, a1, 36
    2f16:	010003        	lsi	f0, a0, 4
    2f19:	090103        	lsi	f0, a1, 36
    2f1c:	010002        	l8ui	a0, a0, 1
    2f1f:	090103        	lsi	f0, a1, 36
    2f22:	010003        	lsi	f0, a0, 4
    2f25:	090103        	lsi	f0, a1, 36
    2f28:	010002        	l8ui	a0, a0, 1
    2f2b:	090103        	lsi	f0, a1, 36
    2f2e:	010002        	l8ui	a0, a0, 1
    2f31:	090103        	lsi	f0, a1, 36
    2f34:	010002        	l8ui	a0, a0, 1
    2f37:	090103        	lsi	f0, a1, 36
    2f3a:	010002        	l8ui	a0, a0, 1
    2f3d:	090103        	lsi	f0, a1, 36
    2f40:	010002        	l8ui	a0, a0, 1
    2f43:	090103        	lsi	f0, a1, 36
    2f46:	010002        	l8ui	a0, a0, 1
    2f49:	090103        	lsi	f0, a1, 36
    2f4c:	010003        	lsi	f0, a0, 4
    2f4f:	090103        	lsi	f0, a1, 36
    2f52:	010002        	l8ui	a0, a0, 1
    2f55:	090103        	lsi	f0, a1, 36
    2f58:	010003        	lsi	f0, a0, 4
    2f5b:	090103        	lsi	f0, a1, 36
    2f5e:	010002        	l8ui	a0, a0, 1
    2f61:	090103        	lsi	f0, a1, 36
    2f64:	010003        	lsi	f0, a0, 4
    2f67:	090103        	lsi	f0, a1, 36
    2f6a:	010003        	lsi	f0, a0, 4
    2f6d:	090103        	lsi	f0, a1, 36
    2f70:	010003        	lsi	f0, a0, 4
    2f73:	090103        	lsi	f0, a1, 36
    2f76:	010002        	l8ui	a0, a0, 1
    2f79:	090103        	lsi	f0, a1, 36
    2f7c:	010002        	l8ui	a0, a0, 1
    2f7f:	090103        	lsi	f0, a1, 36
    2f82:	010002        	l8ui	a0, a0, 1
    2f85:	090103        	lsi	f0, a1, 36
    2f88:	010002        	l8ui	a0, a0, 1
    2f8b:	090103        	lsi	f0, a1, 36
    2f8e:	010002        	l8ui	a0, a0, 1
    2f91:	090103        	lsi	f0, a1, 36
    2f94:	010003        	lsi	f0, a0, 4
    2f97:	090103        	lsi	f0, a1, 36
    2f9a:	010003        	lsi	f0, a0, 4
    2f9d:	090103        	lsi	f0, a1, 36
    2fa0:	010002        	l8ui	a0, a0, 1
    2fa3:	090103        	lsi	f0, a1, 36
    2fa6:	010002        	l8ui	a0, a0, 1
    2fa9:	090103        	lsi	f0, a1, 36
    2fac:	010002        	l8ui	a0, a0, 1
    2faf:	090103        	lsi	f0, a1, 36
    2fb2:	010002        	l8ui	a0, a0, 1
    2fb5:	090103        	lsi	f0, a1, 36
    2fb8:	010002        	l8ui	a0, a0, 1
    2fbb:	090103        	lsi	f0, a1, 36
    2fbe:	010002        	l8ui	a0, a0, 1
    2fc1:	090103        	lsi	f0, a1, 36
    2fc4:	010002        	l8ui	a0, a0, 1
    2fc7:	090103        	lsi	f0, a1, 36
    2fca:	010002        	l8ui	a0, a0, 1
    2fcd:	090103        	lsi	f0, a1, 36
    2fd0:	010002        	l8ui	a0, a0, 1
    2fd3:	090103        	lsi	f0, a1, 36
    2fd6:	010002        	l8ui	a0, a0, 1
    2fd9:	090103        	lsi	f0, a1, 36
    2fdc:	010002        	l8ui	a0, a0, 1
    2fdf:	090103        	lsi	f0, a1, 36
    2fe2:	010002        	l8ui	a0, a0, 1
    2fe5:	090103        	lsi	f0, a1, 36
    2fe8:	010002        	l8ui	a0, a0, 1
    2feb:	090103        	lsi	f0, a1, 36
    2fee:	010002        	l8ui	a0, a0, 1
    2ff1:	090103        	lsi	f0, a1, 36
    2ff4:	010002        	l8ui	a0, a0, 1
    2ff7:	090103        	lsi	f0, a1, 36
    2ffa:	010002        	l8ui	a0, a0, 1
    2ffd:	090103        	lsi	f0, a1, 36
    3000:	010002        	l8ui	a0, a0, 1
    3003:	090103        	lsi	f0, a1, 36
    3006:	010002        	l8ui	a0, a0, 1
    3009:	090103        	lsi	f0, a1, 36
    300c:	010003        	lsi	f0, a0, 4
    300f:	090103        	lsi	f0, a1, 36
    3012:	010002        	l8ui	a0, a0, 1
    3015:	090103        	lsi	f0, a1, 36
    3018:	010002        	l8ui	a0, a0, 1
    301b:	090103        	lsi	f0, a1, 36
    301e:	010003        	lsi	f0, a0, 4
    3021:	090103        	lsi	f0, a1, 36
    3024:	010003        	lsi	f0, a0, 4
    3027:	090103        	lsi	f0, a1, 36
    302a:	010002        	l8ui	a0, a0, 1
    302d:	090103        	lsi	f0, a1, 36
    3030:	010002        	l8ui	a0, a0, 1
    3033:	090103        	lsi	f0, a1, 36
    3036:	010002        	l8ui	a0, a0, 1
    3039:	090103        	lsi	f0, a1, 36
    303c:	010003        	lsi	f0, a0, 4
    303f:	090103        	lsi	f0, a1, 36
    3042:	010003        	lsi	f0, a0, 4
    3045:	090103        	lsi	f0, a1, 36
    3048:	010002        	l8ui	a0, a0, 1
    304b:	090103        	lsi	f0, a1, 36
    304e:	010002        	l8ui	a0, a0, 1
    3051:	090103        	lsi	f0, a1, 36
    3054:	010003        	lsi	f0, a0, 4
    3057:	090103        	lsi	f0, a1, 36
    305a:	010003        	lsi	f0, a0, 4
    305d:	090103        	lsi	f0, a1, 36
    3060:	010002        	l8ui	a0, a0, 1
    3063:	090103        	lsi	f0, a1, 36
    3066:	010002        	l8ui	a0, a0, 1
    3069:	090103        	lsi	f0, a1, 36
    306c:	010002        	l8ui	a0, a0, 1
    306f:	090103        	lsi	f0, a1, 36
    3072:	010003        	lsi	f0, a0, 4
    3075:	090103        	lsi	f0, a1, 36
    3078:	010002        	l8ui	a0, a0, 1
    307b:	090103        	lsi	f0, a1, 36
    307e:	010003        	lsi	f0, a0, 4
    3081:	090103        	lsi	f0, a1, 36
    3084:	010003        	lsi	f0, a0, 4
    3087:	090103        	lsi	f0, a1, 36
    308a:	010002        	l8ui	a0, a0, 1
    308d:	090103        	lsi	f0, a1, 36
    3090:	010002        	l8ui	a0, a0, 1
    3093:	090103        	lsi	f0, a1, 36
    3096:	010003        	lsi	f0, a0, 4
    3099:	090103        	lsi	f0, a1, 36
    309c:	010003        	lsi	f0, a0, 4
    309f:	090103        	lsi	f0, a1, 36
    30a2:	010002        	l8ui	a0, a0, 1
    30a5:	090103        	lsi	f0, a1, 36
    30a8:	010002        	l8ui	a0, a0, 1
    30ab:	090103        	lsi	f0, a1, 36
    30ae:	010002        	l8ui	a0, a0, 1
    30b1:	090103        	lsi	f0, a1, 36
    30b4:	010002        	l8ui	a0, a0, 1
    30b7:	090103        	lsi	f0, a1, 36
    30ba:	010003        	lsi	f0, a0, 4
    30bd:	090103        	lsi	f0, a1, 36
    30c0:	010003        	lsi	f0, a0, 4
    30c3:	090103        	lsi	f0, a1, 36
    30c6:	010003        	lsi	f0, a0, 4
    30c9:	090103        	lsi	f0, a1, 36
    30cc:	010002        	l8ui	a0, a0, 1
    30cf:	090103        	lsi	f0, a1, 36
    30d2:	010003        	lsi	f0, a0, 4
    30d5:	090103        	lsi	f0, a1, 36
    30d8:	010003        	lsi	f0, a0, 4
    30db:	090103        	lsi	f0, a1, 36
    30de:	010003        	lsi	f0, a0, 4
    30e1:	090103        	lsi	f0, a1, 36
    30e4:	010002        	l8ui	a0, a0, 1
    30e7:	090103        	lsi	f0, a1, 36
    30ea:	010002        	l8ui	a0, a0, 1
    30ed:	090103        	lsi	f0, a1, 36
    30f0:	010002        	l8ui	a0, a0, 1
    30f3:	090103        	lsi	f0, a1, 36
    30f6:	010002        	l8ui	a0, a0, 1
    30f9:	090103        	lsi	f0, a1, 36
    30fc:	010003        	lsi	f0, a0, 4
    30ff:	090103        	lsi	f0, a1, 36
    3102:	010003        	lsi	f0, a0, 4
    3105:	090103        	lsi	f0, a1, 36
    3108:	010002        	l8ui	a0, a0, 1
    310b:	090103        	lsi	f0, a1, 36
    310e:	010003        	lsi	f0, a0, 4
    3111:	090103        	lsi	f0, a1, 36
    3114:	010003        	lsi	f0, a0, 4
    3117:	090103        	lsi	f0, a1, 36
    311a:	010002        	l8ui	a0, a0, 1
    311d:	090103        	lsi	f0, a1, 36
    3120:	010003        	lsi	f0, a0, 4
    3123:	090103        	lsi	f0, a1, 36
    3126:	010002        	l8ui	a0, a0, 1
    3129:	090103        	lsi	f0, a1, 36
    312c:	010003        	lsi	f0, a0, 4
    312f:	090103        	lsi	f0, a1, 36
    3132:	010003        	lsi	f0, a0, 4
    3135:	090103        	lsi	f0, a1, 36
    3138:	010003        	lsi	f0, a0, 4
    313b:	090103        	lsi	f0, a1, 36
    313e:	010003        	lsi	f0, a0, 4
    3141:	090103        	lsi	f0, a1, 36
    3144:	010003        	lsi	f0, a0, 4
    3147:	090103        	lsi	f0, a1, 36
    314a:	010003        	lsi	f0, a0, 4
    314d:	090103        	lsi	f0, a1, 36
    3150:	010002        	l8ui	a0, a0, 1
    3153:	090103        	lsi	f0, a1, 36
    3156:	010002        	l8ui	a0, a0, 1
    3159:	090103        	lsi	f0, a1, 36
    315c:	010003        	lsi	f0, a0, 4
    315f:	090103        	lsi	f0, a1, 36
    3162:	010003        	lsi	f0, a0, 4
    3165:	090103        	lsi	f0, a1, 36
    3168:	010002        	l8ui	a0, a0, 1
    316b:	090103        	lsi	f0, a1, 36
    316e:	010002        	l8ui	a0, a0, 1
    3171:	090103        	lsi	f0, a1, 36
    3174:	010003        	lsi	f0, a0, 4
    3177:	090103        	lsi	f0, a1, 36
    317a:	010003        	lsi	f0, a0, 4
    317d:	090103        	lsi	f0, a1, 36
    3180:	010003        	lsi	f0, a0, 4
    3183:	090103        	lsi	f0, a1, 36
    3186:	010003        	lsi	f0, a0, 4
    3189:	090103        	lsi	f0, a1, 36
    318c:	010003        	lsi	f0, a0, 4
    318f:	090103        	lsi	f0, a1, 36
    3192:	010003        	lsi	f0, a0, 4
    3195:	090103        	lsi	f0, a1, 36
    3198:	010003        	lsi	f0, a0, 4
    319b:	090103        	lsi	f0, a1, 36
    319e:	010003        	lsi	f0, a0, 4
    31a1:	090103        	lsi	f0, a1, 36
    31a4:	010003        	lsi	f0, a0, 4
    31a7:	090103        	lsi	f0, a1, 36
    31aa:	010003        	lsi	f0, a0, 4
    31ad:	090103        	lsi	f0, a1, 36
    31b0:	010003        	lsi	f0, a0, 4
    31b3:	090103        	lsi	f0, a1, 36
    31b6:	010003        	lsi	f0, a0, 4
    31b9:	090103        	lsi	f0, a1, 36
    31bc:	010002        	l8ui	a0, a0, 1
    31bf:	090103        	lsi	f0, a1, 36
    31c2:	010006        	j	35c6 <EXCVADDR+0x34d8>
    31c5:	090103        	lsi	f0, a1, 36
    31c8:	010002        	l8ui	a0, a0, 1
    31cb:	090103        	lsi	f0, a1, 36
    31ce:	010003        	lsi	f0, a0, 4
    31d1:	090103        	lsi	f0, a1, 36
    31d4:	010003        	lsi	f0, a0, 4
    31d7:	090103        	lsi	f0, a1, 36
    31da:	010002        	l8ui	a0, a0, 1
    31dd:	090103        	lsi	f0, a1, 36
    31e0:	010006        	j	35e4 <EXCVADDR+0x34f6>
    31e3:	090103        	lsi	f0, a1, 36
    31e6:	010002        	l8ui	a0, a0, 1
    31e9:	090103        	lsi	f0, a1, 36
    31ec:	010002        	l8ui	a0, a0, 1
    31ef:	090103        	lsi	f0, a1, 36
    31f2:	010003        	lsi	f0, a0, 4
    31f5:	090103        	lsi	f0, a1, 36
    31f8:	010002        	l8ui	a0, a0, 1
    31fb:	090203        	lsi	f0, a2, 36
    31fe:	010005        	call0	4200 <EXCVADDR+0x4112>
    3201:	090203        	lsi	f0, a2, 36
    3204:	010002        	l8ui	a0, a0, 1
    3207:	090103        	lsi	f0, a1, 36
    320a:	010003        	lsi	f0, a0, 4
    320d:	090103        	lsi	f0, a1, 36
    3210:	010003        	lsi	f0, a0, 4
    3213:	090103        	lsi	f0, a1, 36
    3216:	010002        	l8ui	a0, a0, 1
    3219:	090103        	lsi	f0, a1, 36
    321c:	010006        	j	3620 <EXCVADDR+0x3532>
    321f:	090103        	lsi	f0, a1, 36
    3222:	010002        	l8ui	a0, a0, 1
    3225:	090103        	lsi	f0, a1, 36
    3228:	010002        	l8ui	a0, a0, 1
    322b:	090103        	lsi	f0, a1, 36
    322e:	010003        	lsi	f0, a0, 4
    3231:	090103        	lsi	f0, a1, 36
    3234:	010002        	l8ui	a0, a0, 1
    3237:	090203        	lsi	f0, a2, 36
    323a:	010003        	lsi	f0, a0, 4
    323d:	090203        	lsi	f0, a2, 36
    3240:	010002        	l8ui	a0, a0, 1
    3243:	090103        	lsi	f0, a1, 36
    3246:	010003        	lsi	f0, a0, 4
    3249:	090103        	lsi	f0, a1, 36
    324c:	010003        	lsi	f0, a0, 4
    324f:	090103        	lsi	f0, a1, 36
    3252:	010002        	l8ui	a0, a0, 1
    3255:	090103        	lsi	f0, a1, 36
    3258:	010006        	j	365c <EXCVADDR+0x356e>
    325b:	090103        	lsi	f0, a1, 36
    325e:	010003        	lsi	f0, a0, 4
    3261:	090103        	lsi	f0, a1, 36
    3264:	010003        	lsi	f0, a0, 4
    3267:	090103        	lsi	f0, a1, 36
    326a:	010003        	lsi	f0, a0, 4
    326d:	090103        	lsi	f0, a1, 36
    3270:	010002        	l8ui	a0, a0, 1
    3273:	090203        	lsi	f0, a2, 36
    3276:	010005        	call0	4278 <EXCVADDR+0x418a>
    3279:	090203        	lsi	f0, a2, 36
    327c:	010002        	l8ui	a0, a0, 1
    327f:	090103        	lsi	f0, a1, 36
    3282:	010003        	lsi	f0, a0, 4
    3285:	090103        	lsi	f0, a1, 36
    3288:	010003        	lsi	f0, a0, 4
    328b:	090103        	lsi	f0, a1, 36
    328e:	010002        	l8ui	a0, a0, 1
    3291:	090103        	lsi	f0, a1, 36
    3294:	010006        	j	3698 <EXCVADDR+0x35aa>
    3297:	090103        	lsi	f0, a1, 36
    329a:	010003        	lsi	f0, a0, 4
    329d:	090103        	lsi	f0, a1, 36
    32a0:	010003        	lsi	f0, a0, 4
    32a3:	090103        	lsi	f0, a1, 36
    32a6:	010003        	lsi	f0, a0, 4
    32a9:	090103        	lsi	f0, a1, 36
    32ac:	010002        	l8ui	a0, a0, 1
    32af:	090203        	lsi	f0, a2, 36
    32b2:	010005        	call0	42b4 <EXCVADDR+0x41c6>
    32b5:	090203        	lsi	f0, a2, 36
    32b8:	010002        	l8ui	a0, a0, 1
    32bb:	090103        	lsi	f0, a1, 36
    32be:	010003        	lsi	f0, a0, 4
    32c1:	090103        	lsi	f0, a1, 36
    32c4:	010003        	lsi	f0, a0, 4
    32c7:	090103        	lsi	f0, a1, 36
    32ca:	010002        	l8ui	a0, a0, 1
    32cd:	090103        	lsi	f0, a1, 36
    32d0:	010006        	j	36d4 <EXCVADDR+0x35e6>
    32d3:	090103        	lsi	f0, a1, 36
    32d6:	010003        	lsi	f0, a0, 4
    32d9:	090103        	lsi	f0, a1, 36
    32dc:	010002        	l8ui	a0, a0, 1
    32df:	090103        	lsi	f0, a1, 36
    32e2:	010003        	lsi	f0, a0, 4
    32e5:	090103        	lsi	f0, a1, 36
    32e8:	010002        	l8ui	a0, a0, 1
    32eb:	090203        	lsi	f0, a2, 36
    32ee:	010006        	j	36f2 <EXCVADDR+0x3604>
    32f1:	090203        	lsi	f0, a2, 36
    32f4:	010002        	l8ui	a0, a0, 1
    32f7:	090103        	lsi	f0, a1, 36
    32fa:	010003        	lsi	f0, a0, 4
    32fd:	090103        	lsi	f0, a1, 36
    3300:	010003        	lsi	f0, a0, 4
    3303:	090103        	lsi	f0, a1, 36
    3306:	010002        	l8ui	a0, a0, 1
    3309:	090103        	lsi	f0, a1, 36
    330c:	010006        	j	3710 <EXCVADDR+0x3622>
    330f:	090103        	lsi	f0, a1, 36
    3312:	010003        	lsi	f0, a0, 4
    3315:	090103        	lsi	f0, a1, 36
    3318:	010002        	l8ui	a0, a0, 1
    331b:	090103        	lsi	f0, a1, 36
    331e:	010003        	lsi	f0, a0, 4
    3321:	090103        	lsi	f0, a1, 36
    3324:	010002        	l8ui	a0, a0, 1
    3327:	090203        	lsi	f0, a2, 36
    332a:	010006        	j	372e <EXCVADDR+0x3640>
    332d:	090203        	lsi	f0, a2, 36
    3330:	010002        	l8ui	a0, a0, 1
    3333:	090103        	lsi	f0, a1, 36
    3336:	010003        	lsi	f0, a0, 4
    3339:	090103        	lsi	f0, a1, 36
    333c:	010003        	lsi	f0, a0, 4
    333f:	090103        	lsi	f0, a1, 36
    3342:	010002        	l8ui	a0, a0, 1
    3345:	090103        	lsi	f0, a1, 36
    3348:	010006        	j	374c <EXCVADDR+0x365e>
    334b:	090103        	lsi	f0, a1, 36
    334e:	010002        	l8ui	a0, a0, 1
    3351:	090103        	lsi	f0, a1, 36
    3354:	010002        	l8ui	a0, a0, 1
    3357:	090103        	lsi	f0, a1, 36
    335a:	010003        	lsi	f0, a0, 4
    335d:	090103        	lsi	f0, a1, 36
    3360:	010002        	l8ui	a0, a0, 1
    3363:	090203        	lsi	f0, a2, 36
    3366:	010003        	lsi	f0, a0, 4
    3369:	090203        	lsi	f0, a2, 36
    336c:	010002        	l8ui	a0, a0, 1
    336f:	090103        	lsi	f0, a1, 36
    3372:	010003        	lsi	f0, a0, 4
    3375:	090103        	lsi	f0, a1, 36
    3378:	010003        	lsi	f0, a0, 4
    337b:	090103        	lsi	f0, a1, 36
    337e:	010002        	l8ui	a0, a0, 1
    3381:	090103        	lsi	f0, a1, 36
    3384:	010006        	j	3788 <EXCVADDR+0x369a>
    3387:	090103        	lsi	f0, a1, 36
    338a:	010002        	l8ui	a0, a0, 1
    338d:	090103        	lsi	f0, a1, 36
    3390:	010002        	l8ui	a0, a0, 1
    3393:	090103        	lsi	f0, a1, 36
    3396:	010003        	lsi	f0, a0, 4
    3399:	090103        	lsi	f0, a1, 36
    339c:	010002        	l8ui	a0, a0, 1
    339f:	090203        	lsi	f0, a2, 36
    33a2:	010003        	lsi	f0, a0, 4
    33a5:	090203        	lsi	f0, a2, 36
    33a8:	010002        	l8ui	a0, a0, 1
    33ab:	090103        	lsi	f0, a1, 36
    33ae:	010003        	lsi	f0, a0, 4
    33b1:	090103        	lsi	f0, a1, 36
    33b4:	010003        	lsi	f0, a0, 4
    33b7:	090103        	lsi	f0, a1, 36
    33ba:	010002        	l8ui	a0, a0, 1
    33bd:	090103        	lsi	f0, a1, 36
    33c0:	010006        	j	37c4 <EXCVADDR+0x36d6>
    33c3:	090103        	lsi	f0, a1, 36
    33c6:	010002        	l8ui	a0, a0, 1
    33c9:	090103        	lsi	f0, a1, 36
    33cc:	010002        	l8ui	a0, a0, 1
    33cf:	090103        	lsi	f0, a1, 36
    33d2:	010003        	lsi	f0, a0, 4
    33d5:	090103        	lsi	f0, a1, 36
    33d8:	010002        	l8ui	a0, a0, 1
    33db:	090203        	lsi	f0, a2, 36
    33de:	010003        	lsi	f0, a0, 4
    33e1:	090203        	lsi	f0, a2, 36
    33e4:	010002        	l8ui	a0, a0, 1
    33e7:	090103        	lsi	f0, a1, 36
    33ea:	010003        	lsi	f0, a0, 4
    33ed:	090103        	lsi	f0, a1, 36
    33f0:	010003        	lsi	f0, a0, 4
    33f3:	090103        	lsi	f0, a1, 36
    33f6:	010002        	l8ui	a0, a0, 1
    33f9:	090103        	lsi	f0, a1, 36
    33fc:	010006        	j	3800 <EXCVADDR+0x3712>
    33ff:	090103        	lsi	f0, a1, 36
    3402:	010002        	l8ui	a0, a0, 1
    3405:	090103        	lsi	f0, a1, 36
    3408:	010002        	l8ui	a0, a0, 1
    340b:	090103        	lsi	f0, a1, 36
    340e:	010003        	lsi	f0, a0, 4
    3411:	090103        	lsi	f0, a1, 36
    3414:	010002        	l8ui	a0, a0, 1
    3417:	090203        	lsi	f0, a2, 36
    341a:	010003        	lsi	f0, a0, 4
    341d:	090203        	lsi	f0, a2, 36
    3420:	010002        	l8ui	a0, a0, 1
    3423:	090103        	lsi	f0, a1, 36
    3426:	010003        	lsi	f0, a0, 4
    3429:	090103        	lsi	f0, a1, 36
    342c:	010003        	lsi	f0, a0, 4
    342f:	090103        	lsi	f0, a1, 36
    3432:	010002        	l8ui	a0, a0, 1
    3435:	090103        	lsi	f0, a1, 36
    3438:	010002        	l8ui	a0, a0, 1
    343b:	090103        	lsi	f0, a1, 36
    343e:	010006        	j	3842 <EXCVADDR+0x3754>
    3441:	090103        	lsi	f0, a1, 36
    3444:	010002        	l8ui	a0, a0, 1
    3447:	090103        	lsi	f0, a1, 36
    344a:	010003        	lsi	f0, a0, 4
    344d:	090103        	lsi	f0, a1, 36
    3450:	010003        	lsi	f0, a0, 4
    3453:	090103        	lsi	f0, a1, 36
    3456:	010002        	l8ui	a0, a0, 1
    3459:	090203        	lsi	f0, a2, 36
    345c:	010004        	lsi	f0, a0, 4
    345f:	090203        	lsi	f0, a2, 36
    3462:	010002        	l8ui	a0, a0, 1
    3465:	090103        	lsi	f0, a1, 36
    3468:	010003        	lsi	f0, a0, 4
    346b:	090103        	lsi	f0, a1, 36
    346e:	010003        	lsi	f0, a0, 4
    3471:	090103        	lsi	f0, a1, 36
    3474:	010002        	l8ui	a0, a0, 1
    3477:	090103        	lsi	f0, a1, 36
    347a:	010002        	l8ui	a0, a0, 1
    347d:	090103        	lsi	f0, a1, 36
    3480:	010006        	j	3884 <EXCVADDR+0x3796>
    3483:	090103        	lsi	f0, a1, 36
    3486:	010002        	l8ui	a0, a0, 1
    3489:	090103        	lsi	f0, a1, 36
    348c:	010003        	lsi	f0, a0, 4
    348f:	090103        	lsi	f0, a1, 36
    3492:	010003        	lsi	f0, a0, 4
    3495:	090103        	lsi	f0, a1, 36
    3498:	010002        	l8ui	a0, a0, 1
    349b:	090203        	lsi	f0, a2, 36
    349e:	010004        	lsi	f0, a0, 4
    34a1:	090203        	lsi	f0, a2, 36
    34a4:	010002        	l8ui	a0, a0, 1
    34a7:	090103        	lsi	f0, a1, 36
    34aa:	010003        	lsi	f0, a0, 4
    34ad:	090103        	lsi	f0, a1, 36
    34b0:	010003        	lsi	f0, a0, 4
    34b3:	090103        	lsi	f0, a1, 36
    34b6:	010003        	lsi	f0, a0, 4
    34b9:	090103        	lsi	f0, a1, 36
    34bc:	010003        	lsi	f0, a0, 4
    34bf:	090103        	lsi	f0, a1, 36
    34c2:	010006        	j	38c6 <EXCVADDR+0x37d8>
    34c5:	090103        	lsi	f0, a1, 36
    34c8:	010003        	lsi	f0, a0, 4
    34cb:	090103        	lsi	f0, a1, 36
    34ce:	010003        	lsi	f0, a0, 4
    34d1:	090103        	lsi	f0, a1, 36
    34d4:	010003        	lsi	f0, a0, 4
    34d7:	090103        	lsi	f0, a1, 36
    34da:	010002        	l8ui	a0, a0, 1
    34dd:	090203        	lsi	f0, a2, 36
    34e0:	010005        	call0	44e4 <EXCVADDR+0x43f6>
    34e3:	090203        	lsi	f0, a2, 36
    34e6:	010002        	l8ui	a0, a0, 1
    34e9:	090103        	lsi	f0, a1, 36
    34ec:	010003        	lsi	f0, a0, 4
    34ef:	090103        	lsi	f0, a1, 36
    34f2:	010003        	lsi	f0, a0, 4
    34f5:	090103        	lsi	f0, a1, 36
    34f8:	010002        	l8ui	a0, a0, 1
    34fb:	090103        	lsi	f0, a1, 36
    34fe:	010002        	l8ui	a0, a0, 1
    3501:	090103        	lsi	f0, a1, 36
    3504:	010006        	j	3908 <EXCVADDR+0x381a>
    3507:	090103        	lsi	f0, a1, 36
    350a:	010002        	l8ui	a0, a0, 1
    350d:	090103        	lsi	f0, a1, 36
    3510:	010003        	lsi	f0, a0, 4
    3513:	090103        	lsi	f0, a1, 36
    3516:	010003        	lsi	f0, a0, 4
    3519:	090103        	lsi	f0, a1, 36
    351c:	010002        	l8ui	a0, a0, 1
    351f:	090203        	lsi	f0, a2, 36
    3522:	010004        	lsi	f0, a0, 4
    3525:	090203        	lsi	f0, a2, 36
    3528:	010002        	l8ui	a0, a0, 1
    352b:	090103        	lsi	f0, a1, 36
    352e:	010003        	lsi	f0, a0, 4
    3531:	090103        	lsi	f0, a1, 36
    3534:	010003        	lsi	f0, a0, 4
    3537:	090103        	lsi	f0, a1, 36
    353a:	010002        	l8ui	a0, a0, 1
    353d:	090103        	lsi	f0, a1, 36
    3540:	010002        	l8ui	a0, a0, 1
    3543:	090103        	lsi	f0, a1, 36
    3546:	010006        	j	394a <EXCVADDR+0x385c>
    3549:	090103        	lsi	f0, a1, 36
    354c:	010002        	l8ui	a0, a0, 1
    354f:	090103        	lsi	f0, a1, 36
    3552:	010002        	l8ui	a0, a0, 1
    3555:	090103        	lsi	f0, a1, 36
    3558:	010003        	lsi	f0, a0, 4
    355b:	090103        	lsi	f0, a1, 36
    355e:	010002        	l8ui	a0, a0, 1
    3561:	090203        	lsi	f0, a2, 36
    3564:	010005        	call0	4568 <EXCVADDR+0x447a>
    3567:	090203        	lsi	f0, a2, 36
    356a:	010002        	l8ui	a0, a0, 1
    356d:	090103        	lsi	f0, a1, 36
    3570:	010003        	lsi	f0, a0, 4
    3573:	090103        	lsi	f0, a1, 36
    3576:	010003        	lsi	f0, a0, 4
    3579:	090103        	lsi	f0, a1, 36
    357c:	010002        	l8ui	a0, a0, 1
    357f:	090103        	lsi	f0, a1, 36
    3582:	010002        	l8ui	a0, a0, 1
    3585:	090103        	lsi	f0, a1, 36
    3588:	010006        	j	398c <EXCVADDR+0x389e>
    358b:	090103        	lsi	f0, a1, 36
    358e:	010002        	l8ui	a0, a0, 1
    3591:	090103        	lsi	f0, a1, 36
    3594:	010002        	l8ui	a0, a0, 1
    3597:	090103        	lsi	f0, a1, 36
    359a:	010003        	lsi	f0, a0, 4
    359d:	090103        	lsi	f0, a1, 36
    35a0:	010002        	l8ui	a0, a0, 1
    35a3:	090203        	lsi	f0, a2, 36
    35a6:	010005        	call0	45a8 <EXCVADDR+0x44ba>
    35a9:	090203        	lsi	f0, a2, 36
    35ac:	010002        	l8ui	a0, a0, 1
    35af:	090103        	lsi	f0, a1, 36
    35b2:	010003        	lsi	f0, a0, 4
    35b5:	090103        	lsi	f0, a1, 36
    35b8:	010003        	lsi	f0, a0, 4
    35bb:	090103        	lsi	f0, a1, 36
    35be:	010003        	lsi	f0, a0, 4
    35c1:	090103        	lsi	f0, a1, 36
    35c4:	010003        	lsi	f0, a0, 4
    35c7:	090103        	lsi	f0, a1, 36
    35ca:	010006        	j	39ce <EXCVADDR+0x38e0>
    35cd:	090103        	lsi	f0, a1, 36
    35d0:	010003        	lsi	f0, a0, 4
    35d3:	090103        	lsi	f0, a1, 36
    35d6:	010003        	lsi	f0, a0, 4
    35d9:	090103        	lsi	f0, a1, 36
    35dc:	010003        	lsi	f0, a0, 4
    35df:	090103        	lsi	f0, a1, 36
    35e2:	010002        	l8ui	a0, a0, 1
    35e5:	090203        	lsi	f0, a2, 36
    35e8:	010005        	call0	45ec <EXCVADDR+0x44fe>
    35eb:	090203        	lsi	f0, a2, 36
    35ee:	010002        	l8ui	a0, a0, 1
    35f1:	090103        	lsi	f0, a1, 36
    35f4:	010003        	lsi	f0, a0, 4
    35f7:	090103        	lsi	f0, a1, 36
    35fa:	010003        	lsi	f0, a0, 4
    35fd:	090103        	lsi	f0, a1, 36
    3600:	010002        	l8ui	a0, a0, 1
    3603:	090103        	lsi	f0, a1, 36
    3606:	010002        	l8ui	a0, a0, 1
    3609:	090103        	lsi	f0, a1, 36
    360c:	010006        	j	3a10 <EXCVADDR+0x3922>
    360f:	090103        	lsi	f0, a1, 36
    3612:	010002        	l8ui	a0, a0, 1
    3615:	090103        	lsi	f0, a1, 36
    3618:	010002        	l8ui	a0, a0, 1
    361b:	090103        	lsi	f0, a1, 36
    361e:	010003        	lsi	f0, a0, 4
    3621:	090103        	lsi	f0, a1, 36
    3624:	010002        	l8ui	a0, a0, 1
    3627:	090203        	lsi	f0, a2, 36
    362a:	010005        	call0	462c <EXCVADDR+0x453e>
    362d:	090203        	lsi	f0, a2, 36
    3630:	010002        	l8ui	a0, a0, 1
    3633:	090103        	lsi	f0, a1, 36
    3636:	010003        	lsi	f0, a0, 4
    3639:	090103        	lsi	f0, a1, 36
    363c:	010003        	lsi	f0, a0, 4
    363f:	090103        	lsi	f0, a1, 36
    3642:	010002        	l8ui	a0, a0, 1
    3645:	090103        	lsi	f0, a1, 36
    3648:	010002        	l8ui	a0, a0, 1
    364b:	090103        	lsi	f0, a1, 36
    364e:	010006        	j	3a52 <EXCVADDR+0x3964>
    3651:	090103        	lsi	f0, a1, 36
    3654:	010002        	l8ui	a0, a0, 1
    3657:	090103        	lsi	f0, a1, 36
    365a:	010002        	l8ui	a0, a0, 1
    365d:	090103        	lsi	f0, a1, 36
    3660:	010003        	lsi	f0, a0, 4
    3663:	090103        	lsi	f0, a1, 36
    3666:	010002        	l8ui	a0, a0, 1
    3669:	090203        	lsi	f0, a2, 36
    366c:	010005        	call0	4670 <EXCVADDR+0x4582>
    366f:	090203        	lsi	f0, a2, 36
    3672:	010002        	l8ui	a0, a0, 1
    3675:	090103        	lsi	f0, a1, 36
    3678:	010003        	lsi	f0, a0, 4
    367b:	090103        	lsi	f0, a1, 36
    367e:	010003        	lsi	f0, a0, 4
    3681:	090103        	lsi	f0, a1, 36
    3684:	010002        	l8ui	a0, a0, 1
    3687:	090103        	lsi	f0, a1, 36
    368a:	010002        	l8ui	a0, a0, 1
    368d:	090103        	lsi	f0, a1, 36
    3690:	010006        	j	3a94 <EXCVADDR+0x39a6>
    3693:	090103        	lsi	f0, a1, 36
    3696:	010002        	l8ui	a0, a0, 1
    3699:	090103        	lsi	f0, a1, 36
    369c:	010002        	l8ui	a0, a0, 1
    369f:	090103        	lsi	f0, a1, 36
    36a2:	010003        	lsi	f0, a0, 4
    36a5:	090103        	lsi	f0, a1, 36
    36a8:	010002        	l8ui	a0, a0, 1
    36ab:	090203        	lsi	f0, a2, 36
    36ae:	010005        	call0	46b0 <EXCVADDR+0x45c2>
    36b1:	090203        	lsi	f0, a2, 36
    36b4:	010002        	l8ui	a0, a0, 1
    36b7:	090103        	lsi	f0, a1, 36
    36ba:	010003        	lsi	f0, a0, 4
    36bd:	090103        	lsi	f0, a1, 36
    36c0:	010003        	lsi	f0, a0, 4
    36c3:	090103        	lsi	f0, a1, 36
    36c6:	010002        	l8ui	a0, a0, 1
    36c9:	090103        	lsi	f0, a1, 36
    36cc:	010002        	l8ui	a0, a0, 1
    36cf:	090103        	lsi	f0, a1, 36
    36d2:	010006        	j	3ad6 <EXCVADDR+0x39e8>
    36d5:	090103        	lsi	f0, a1, 36
    36d8:	010002        	l8ui	a0, a0, 1
    36db:	090103        	lsi	f0, a1, 36
    36de:	010002        	l8ui	a0, a0, 1
    36e1:	090103        	lsi	f0, a1, 36
    36e4:	010003        	lsi	f0, a0, 4
    36e7:	090103        	lsi	f0, a1, 36
    36ea:	010002        	l8ui	a0, a0, 1
    36ed:	090203        	lsi	f0, a2, 36
    36f0:	010005        	call0	46f4 <EXCVADDR+0x4606>
    36f3:	090203        	lsi	f0, a2, 36
    36f6:	010002        	l8ui	a0, a0, 1
    36f9:	090103        	lsi	f0, a1, 36
    36fc:	010003        	lsi	f0, a0, 4
    36ff:	090103        	lsi	f0, a1, 36
    3702:	010003        	lsi	f0, a0, 4
    3705:	090103        	lsi	f0, a1, 36
    3708:	010003        	lsi	f0, a0, 4
    370b:	090103        	lsi	f0, a1, 36
    370e:	010003        	lsi	f0, a0, 4
    3711:	090103        	lsi	f0, a1, 36
    3714:	010006        	j	3b18 <EXCVADDR+0x3a2a>
    3717:	090103        	lsi	f0, a1, 36
    371a:	010003        	lsi	f0, a0, 4
    371d:	090103        	lsi	f0, a1, 36
    3720:	010003        	lsi	f0, a0, 4
    3723:	090103        	lsi	f0, a1, 36
    3726:	010003        	lsi	f0, a0, 4
    3729:	090103        	lsi	f0, a1, 36
    372c:	010002        	l8ui	a0, a0, 1
    372f:	090203        	lsi	f0, a2, 36
    3732:	010005        	call0	4734 <EXCVADDR+0x4646>
    3735:	090203        	lsi	f0, a2, 36
    3738:	010002        	l8ui	a0, a0, 1
    373b:	090103        	lsi	f0, a1, 36
    373e:	010003        	lsi	f0, a0, 4
    3741:	090103        	lsi	f0, a1, 36
    3744:	010003        	lsi	f0, a0, 4
    3747:	090103        	lsi	f0, a1, 36
    374a:	010003        	lsi	f0, a0, 4
    374d:	090103        	lsi	f0, a1, 36
    3750:	010003        	lsi	f0, a0, 4
    3753:	090103        	lsi	f0, a1, 36
    3756:	010006        	j	3b5a <EXCVADDR+0x3a6c>
    3759:	090103        	lsi	f0, a1, 36
    375c:	010003        	lsi	f0, a0, 4
    375f:	090103        	lsi	f0, a1, 36
    3762:	010002        	l8ui	a0, a0, 1
    3765:	090103        	lsi	f0, a1, 36
    3768:	010003        	lsi	f0, a0, 4
    376b:	090103        	lsi	f0, a1, 36
    376e:	010002        	l8ui	a0, a0, 1
    3771:	090203        	lsi	f0, a2, 36
    3774:	010006        	j	3b78 <EXCVADDR+0x3a8a>
    3777:	090203        	lsi	f0, a2, 36
    377a:	010002        	l8ui	a0, a0, 1
    377d:	090103        	lsi	f0, a1, 36
    3780:	010003        	lsi	f0, a0, 4
    3783:	090103        	lsi	f0, a1, 36
    3786:	010003        	lsi	f0, a0, 4
    3789:	090103        	lsi	f0, a1, 36
    378c:	010003        	lsi	f0, a0, 4
    378f:	090103        	lsi	f0, a1, 36
    3792:	010003        	lsi	f0, a0, 4
    3795:	090103        	lsi	f0, a1, 36
    3798:	010006        	j	3b9c <EXCVADDR+0x3aae>
    379b:	090103        	lsi	f0, a1, 36
    379e:	010003        	lsi	f0, a0, 4
    37a1:	090103        	lsi	f0, a1, 36
    37a4:	010003        	lsi	f0, a0, 4
    37a7:	090103        	lsi	f0, a1, 36
    37aa:	010003        	lsi	f0, a0, 4
    37ad:	090103        	lsi	f0, a1, 36
    37b0:	010002        	l8ui	a0, a0, 1
    37b3:	090203        	lsi	f0, a2, 36
    37b6:	010005        	call0	47b8 <EXCVADDR+0x46ca>
    37b9:	090203        	lsi	f0, a2, 36
    37bc:	010002        	l8ui	a0, a0, 1
    37bf:	090103        	lsi	f0, a1, 36
    37c2:	010003        	lsi	f0, a0, 4
    37c5:	090103        	lsi	f0, a1, 36
    37c8:	010003        	lsi	f0, a0, 4
    37cb:	090103        	lsi	f0, a1, 36
    37ce:	010003        	lsi	f0, a0, 4
    37d1:	090103        	lsi	f0, a1, 36
    37d4:	010003        	lsi	f0, a0, 4
    37d7:	090103        	lsi	f0, a1, 36
    37da:	010006        	j	3bde <EXCVADDR+0x3af0>
    37dd:	090103        	lsi	f0, a1, 36
    37e0:	010003        	lsi	f0, a0, 4
    37e3:	090103        	lsi	f0, a1, 36
    37e6:	010002        	l8ui	a0, a0, 1
    37e9:	090103        	lsi	f0, a1, 36
    37ec:	010003        	lsi	f0, a0, 4
    37ef:	090103        	lsi	f0, a1, 36
    37f2:	010002        	l8ui	a0, a0, 1
    37f5:	090203        	lsi	f0, a2, 36
    37f8:	010006        	j	3bfc <EXCVADDR+0x3b0e>
    37fb:	090203        	lsi	f0, a2, 36
    37fe:	010002        	l8ui	a0, a0, 1
    3801:	090103        	lsi	f0, a1, 36
    3804:	010003        	lsi	f0, a0, 4
    3807:	090103        	lsi	f0, a1, 36
    380a:	010003        	lsi	f0, a0, 4
    380d:	090103        	lsi	f0, a1, 36
    3810:	010002        	l8ui	a0, a0, 1
    3813:	090103        	lsi	f0, a1, 36
    3816:	010002        	l8ui	a0, a0, 1
    3819:	090103        	lsi	f0, a1, 36
    381c:	010006        	j	3c20 <EXCVADDR+0x3b32>
    381f:	090103        	lsi	f0, a1, 36
    3822:	010002        	l8ui	a0, a0, 1
    3825:	090103        	lsi	f0, a1, 36
    3828:	010003        	lsi	f0, a0, 4
    382b:	090103        	lsi	f0, a1, 36
    382e:	010003        	lsi	f0, a0, 4
    3831:	090103        	lsi	f0, a1, 36
    3834:	010002        	l8ui	a0, a0, 1
    3837:	090203        	lsi	f0, a2, 36
    383a:	010004        	lsi	f0, a0, 4
    383d:	090203        	lsi	f0, a2, 36
    3840:	010002        	l8ui	a0, a0, 1
    3843:	090103        	lsi	f0, a1, 36
    3846:	010003        	lsi	f0, a0, 4
    3849:	090103        	lsi	f0, a1, 36
    384c:	010003        	lsi	f0, a0, 4
    384f:	090103        	lsi	f0, a1, 36
    3852:	010003        	lsi	f0, a0, 4
    3855:	090103        	lsi	f0, a1, 36
    3858:	010003        	lsi	f0, a0, 4
    385b:	090103        	lsi	f0, a1, 36
    385e:	010006        	j	3c62 <EXCVADDR+0x3b74>
    3861:	090103        	lsi	f0, a1, 36
    3864:	010003        	lsi	f0, a0, 4
    3867:	090103        	lsi	f0, a1, 36
    386a:	010003        	lsi	f0, a0, 4
    386d:	090103        	lsi	f0, a1, 36
    3870:	010003        	lsi	f0, a0, 4
    3873:	090103        	lsi	f0, a1, 36
    3876:	010002        	l8ui	a0, a0, 1
    3879:	090203        	lsi	f0, a2, 36
    387c:	010005        	call0	4880 <EXCVADDR+0x4792>
    387f:	090203        	lsi	f0, a2, 36
    3882:	010002        	l8ui	a0, a0, 1
    3885:	090103        	lsi	f0, a1, 36
    3888:	010003        	lsi	f0, a0, 4
    388b:	090103        	lsi	f0, a1, 36
    388e:	010003        	lsi	f0, a0, 4
    3891:	090103        	lsi	f0, a1, 36
    3894:	010003        	lsi	f0, a0, 4
    3897:	090103        	lsi	f0, a1, 36
    389a:	010003        	lsi	f0, a0, 4
    389d:	090103        	lsi	f0, a1, 36
    38a0:	010006        	j	3ca4 <EXCVADDR+0x3bb6>
    38a3:	090103        	lsi	f0, a1, 36
    38a6:	010003        	lsi	f0, a0, 4
    38a9:	090103        	lsi	f0, a1, 36
    38ac:	010003        	lsi	f0, a0, 4
    38af:	090103        	lsi	f0, a1, 36
    38b2:	010003        	lsi	f0, a0, 4
    38b5:	090103        	lsi	f0, a1, 36
    38b8:	010002        	l8ui	a0, a0, 1
    38bb:	090203        	lsi	f0, a2, 36
    38be:	010005        	call0	48c0 <EXCVADDR+0x47d2>
    38c1:	090203        	lsi	f0, a2, 36
    38c4:	010002        	l8ui	a0, a0, 1
    38c7:	090103        	lsi	f0, a1, 36
    38ca:	010003        	lsi	f0, a0, 4
    38cd:	090103        	lsi	f0, a1, 36
    38d0:	010003        	lsi	f0, a0, 4
    38d3:	090103        	lsi	f0, a1, 36
    38d6:	010003        	lsi	f0, a0, 4
    38d9:	090103        	lsi	f0, a1, 36
    38dc:	010003        	lsi	f0, a0, 4
    38df:	090103        	lsi	f0, a1, 36
    38e2:	010006        	j	3ce6 <EXCVADDR+0x3bf8>
    38e5:	090103        	lsi	f0, a1, 36
    38e8:	010003        	lsi	f0, a0, 4
    38eb:	090103        	lsi	f0, a1, 36
    38ee:	010003        	lsi	f0, a0, 4
    38f1:	090103        	lsi	f0, a1, 36
    38f4:	010003        	lsi	f0, a0, 4
    38f7:	090103        	lsi	f0, a1, 36
    38fa:	010002        	l8ui	a0, a0, 1
    38fd:	090203        	lsi	f0, a2, 36
    3900:	010005        	call0	4904 <EXCVADDR+0x4816>
    3903:	090203        	lsi	f0, a2, 36
    3906:	010002        	l8ui	a0, a0, 1
    3909:	090103        	lsi	f0, a1, 36
    390c:	010003        	lsi	f0, a0, 4
    390f:	090103        	lsi	f0, a1, 36
    3912:	010003        	lsi	f0, a0, 4
    3915:	090103        	lsi	f0, a1, 36
    3918:	010003        	lsi	f0, a0, 4
    391b:	090103        	lsi	f0, a1, 36
    391e:	010003        	lsi	f0, a0, 4
    3921:	090103        	lsi	f0, a1, 36
    3924:	010006        	j	3d28 <EXCVADDR+0x3c3a>
    3927:	090103        	lsi	f0, a1, 36
    392a:	010003        	lsi	f0, a0, 4
    392d:	090103        	lsi	f0, a1, 36
    3930:	010002        	l8ui	a0, a0, 1
    3933:	090103        	lsi	f0, a1, 36
    3936:	010003        	lsi	f0, a0, 4
    3939:	090103        	lsi	f0, a1, 36
    393c:	010002        	l8ui	a0, a0, 1
    393f:	090203        	lsi	f0, a2, 36
    3942:	010006        	j	3d46 <EXCVADDR+0x3c58>
    3945:	090203        	lsi	f0, a2, 36
    3948:	010002        	l8ui	a0, a0, 1
    394b:	090103        	lsi	f0, a1, 36
    394e:	010003        	lsi	f0, a0, 4
    3951:	090103        	lsi	f0, a1, 36
    3954:	010003        	lsi	f0, a0, 4
    3957:	090103        	lsi	f0, a1, 36
    395a:	010003        	lsi	f0, a0, 4
    395d:	090103        	lsi	f0, a1, 36
    3960:	010003        	lsi	f0, a0, 4
    3963:	090103        	lsi	f0, a1, 36
    3966:	010006        	j	3d6a <EXCVADDR+0x3c7c>
    3969:	090103        	lsi	f0, a1, 36
    396c:	010003        	lsi	f0, a0, 4
    396f:	090103        	lsi	f0, a1, 36
    3972:	010002        	l8ui	a0, a0, 1
    3975:	090103        	lsi	f0, a1, 36
    3978:	010003        	lsi	f0, a0, 4
    397b:	090103        	lsi	f0, a1, 36
    397e:	010002        	l8ui	a0, a0, 1
    3981:	090203        	lsi	f0, a2, 36
    3984:	010006        	j	3d88 <EXCVADDR+0x3c9a>
    3987:	090203        	lsi	f0, a2, 36
    398a:	010002        	l8ui	a0, a0, 1
    398d:	090103        	lsi	f0, a1, 36
    3990:	010003        	lsi	f0, a0, 4
    3993:	090103        	lsi	f0, a1, 36
    3996:	010003        	lsi	f0, a0, 4
    3999:	090103        	lsi	f0, a1, 36
    399c:	010003        	lsi	f0, a0, 4
    399f:	090103        	lsi	f0, a1, 36
    39a2:	010003        	lsi	f0, a0, 4
    39a5:	090103        	lsi	f0, a1, 36
    39a8:	010006        	j	3dac <EXCVADDR+0x3cbe>
    39ab:	090103        	lsi	f0, a1, 36
    39ae:	010003        	lsi	f0, a0, 4
    39b1:	090103        	lsi	f0, a1, 36
    39b4:	010003        	lsi	f0, a0, 4
    39b7:	090103        	lsi	f0, a1, 36
    39ba:	010003        	lsi	f0, a0, 4
    39bd:	090103        	lsi	f0, a1, 36
    39c0:	010002        	l8ui	a0, a0, 1
    39c3:	090203        	lsi	f0, a2, 36
    39c6:	010005        	call0	49c8 <EXCVADDR+0x48da>
    39c9:	090203        	lsi	f0, a2, 36
    39cc:	010002        	l8ui	a0, a0, 1
    39cf:	090103        	lsi	f0, a1, 36
    39d2:	010003        	lsi	f0, a0, 4
    39d5:	090103        	lsi	f0, a1, 36
    39d8:	010003        	lsi	f0, a0, 4
    39db:	090103        	lsi	f0, a1, 36
    39de:	010003        	lsi	f0, a0, 4
    39e1:	090103        	lsi	f0, a1, 36
    39e4:	010003        	lsi	f0, a0, 4
    39e7:	090103        	lsi	f0, a1, 36
    39ea:	010006        	j	3dee <EXCVADDR+0x3d00>
    39ed:	090103        	lsi	f0, a1, 36
    39f0:	010003        	lsi	f0, a0, 4
    39f3:	090103        	lsi	f0, a1, 36
    39f6:	010003        	lsi	f0, a0, 4
    39f9:	090103        	lsi	f0, a1, 36
    39fc:	010003        	lsi	f0, a0, 4
    39ff:	090103        	lsi	f0, a1, 36
    3a02:	010002        	l8ui	a0, a0, 1
    3a05:	090203        	lsi	f0, a2, 36
    3a08:	010005        	call0	4a0c <EXCVADDR+0x491e>
    3a0b:	090203        	lsi	f0, a2, 36
    3a0e:	010002        	l8ui	a0, a0, 1
    3a11:	090103        	lsi	f0, a1, 36
    3a14:	010003        	lsi	f0, a0, 4
    3a17:	090103        	lsi	f0, a1, 36
    3a1a:	010003        	lsi	f0, a0, 4
    3a1d:	090103        	lsi	f0, a1, 36
    3a20:	010003        	lsi	f0, a0, 4
    3a23:	090103        	lsi	f0, a1, 36
    3a26:	010003        	lsi	f0, a0, 4
    3a29:	090103        	lsi	f0, a1, 36
    3a2c:	010006        	j	3e30 <EXCVADDR+0x3d42>
    3a2f:	090103        	lsi	f0, a1, 36
    3a32:	010003        	lsi	f0, a0, 4
    3a35:	090103        	lsi	f0, a1, 36
    3a38:	010003        	lsi	f0, a0, 4
    3a3b:	090103        	lsi	f0, a1, 36
    3a3e:	010003        	lsi	f0, a0, 4
    3a41:	090103        	lsi	f0, a1, 36
    3a44:	010002        	l8ui	a0, a0, 1
    3a47:	090203        	lsi	f0, a2, 36
    3a4a:	010005        	call0	4a4c <EXCVADDR+0x495e>
    3a4d:	090203        	lsi	f0, a2, 36
    3a50:	010002        	l8ui	a0, a0, 1
    3a53:	090103        	lsi	f0, a1, 36
    3a56:	010003        	lsi	f0, a0, 4
    3a59:	090103        	lsi	f0, a1, 36
    3a5c:	010003        	lsi	f0, a0, 4
    3a5f:	090103        	lsi	f0, a1, 36
    3a62:	010003        	lsi	f0, a0, 4
    3a65:	090103        	lsi	f0, a1, 36
    3a68:	010003        	lsi	f0, a0, 4
    3a6b:	090103        	lsi	f0, a1, 36
    3a6e:	010006        	j	3e72 <EXCVADDR+0x3d84>
    3a71:	090103        	lsi	f0, a1, 36
    3a74:	010006        	j	3e78 <EXCVADDR+0x3d8a>
    3a77:	090103        	lsi	f0, a1, 36
    3a7a:	010003        	lsi	f0, a0, 4
    3a7d:	090103        	lsi	f0, a1, 36
    3a80:	010003        	lsi	f0, a0, 4
    3a83:	090103        	lsi	f0, a1, 36
    3a86:	010003        	lsi	f0, a0, 4
    3a89:	090103        	lsi	f0, a1, 36
    3a8c:	010003        	lsi	f0, a0, 4
    3a8f:	090103        	lsi	f0, a1, 36
    3a92:	010006        	j	3e96 <EXCVADDR+0x3da8>
    3a95:	090103        	lsi	f0, a1, 36
    3a98:	010006        	j	3e9c <EXCVADDR+0x3dae>
    3a9b:	0209      	s32i.n	a0, a2, 0
    3a9d:	010000        	slli	a0, a0, 32
    3aa0:	050001        	l32r	a0, fffc4ea0 <_etext+0xbff4120c>
    3aa3:	3c1002        	l16ui	a0, a0, 120
    3aa6:	4008      	l32i.n	a0, a0, 16
    3aa8:	059303        	lsi	f0, a3, 20
    3aab:	010301        	l32r	a0, fffc3eb8 <_etext+0xbff40224>
    3aae:	0309      	s32i.n	a0, a3, 0
    3ab0:	030100        	rsr.lend	a0
    3ab3:	030901        	l32r	a0, fffc46d8 <_etext+0xbff40a44>
    3ab6:	030100        	rsr.lend	a0
    3ab9:	030901        	l32r	a0, fffc46e0 <_etext+0xbff40a4c>
    3abc:	030100        	rsr.lend	a0
    3abf:	060901        	l32r	a0, fffc52e4 <_etext+0xbff41650>
    3ac2:	090100        	l32e	a0, a1, -64
    3ac5:	000005        	call0	3ac8 <EXCVADDR+0x39da>
    3ac8:	840101        	l32r	a0, fffe4acc <_etext+0xbff60e38>
    3acb:	000005        	call0	3acc <EXCVADDR+0x39de>
    3ace:	290002        	l8ui	a0, a0, 41
    3ad1:	000000        	ill
    3ad4:	fb0101        	l32r	a0, 26d8 <EXCVADDR+0x25ea>
    3ad7:	0e          	.byte 0xe
    3ad8:	000d      	mov.n	a0, a0
    3ada:	010101        	l32r	a0, fffc3ee0 <_etext+0xbff4024c>
    3add:	000001        	l32r	a0, fffc3ae0 <_etext+0xbff3fe4c>
    3ae0:	000100        	lsi	f0, a1, 0
    3ae3:	620100        	lsi	f0, a1, 0x188
    3ae6:	6c6975        	call12	7017c <EXCVADDR+0x7008e>
    3ae9:	000064        	lsi	f6, a0, 0
    3aec:	6d6953        	lsi	f5, a9, 0x1b4
    3aef:	656c70        	extui	a6, a7, 28, 7
    3af2:	616552        	s32i	a5, a5, 0x184
    3af5:	2e6c      	movi.n	a14, -30
    3af7:	010053        	lsi	f5, a0, 4
    3afa:	000000        	ill
    3afd:	020500        	andb	b0, b5, b0
    3b00:	0823d4        	lsi	f13, a3, 32
    3b03:	210340        	srai	a0, a4, 3
    3b06:	010301        	l32r	a0, fffc3f14 <_etext+0xbff40280>
    3b09:	0309      	s32i.n	a0, a3, 0
    3b0b:	030100        	rsr.lend	a0
    3b0e:	020901        	l32r	a0, fffc4334 <_etext+0xbff406a0>
    3b11:	030100        	rsr.lend	a0
    3b14:	030901        	l32r	a0, fffc4738 <_etext+0xbff40aa4>
    3b17:	030100        	rsr.lend	a0
    3b1a:	030901        	l32r	a0, fffc4740 <_etext+0xbff40aac>
    3b1d:	030100        	rsr.lend	a0
    3b20:	060901        	l32r	a0, fffc5344 <_etext+0xbff416b0>
    3b23:	030100        	rsr.lend	a0
    3b26:	060901        	l32r	a0, fffc534c <_etext+0xbff416b8>
    3b29:	030100        	rsr.lend	a0
    3b2c:	0909      	s32i.n	a0, a9, 0
    3b2e:	010021        	l32r	a2, fffc3f30 <_etext+0xbff4029c>
    3b31:	090103        	lsi	f0, a1, 36
    3b34:	010003        	lsi	f0, a0, 4
    3b37:	090103        	lsi	f0, a1, 36
    3b3a:	010003        	lsi	f0, a0, 4
    3b3d:	090103        	lsi	f0, a1, 36
    3b40:	010003        	lsi	f0, a0, 4
    3b43:	090103        	lsi	f0, a1, 36
    3b46:	010002        	l8ui	a0, a0, 1
    3b49:	090103        	lsi	f0, a1, 36
    3b4c:	010006        	j	3f50 <EXCVADDR+0x3e62>
    3b4f:	090103        	lsi	f0, a1, 36
    3b52:	010006        	j	3f56 <EXCVADDR+0x3e68>
    3b55:	090103        	lsi	f0, a1, 36
    3b58:	010003        	lsi	f0, a0, 4
    3b5b:	090103        	lsi	f0, a1, 36
    3b5e:	010002        	l8ui	a0, a0, 1
    3b61:	090103        	lsi	f0, a1, 36
    3b64:	010003        	lsi	f0, a0, 4
    3b67:	090103        	lsi	f0, a1, 36
    3b6a:	010002        	l8ui	a0, a0, 1
    3b6d:	090103        	lsi	f0, a1, 36
    3b70:	010003        	lsi	f0, a0, 4
    3b73:	090103        	lsi	f0, a1, 36
    3b76:	010003        	lsi	f0, a0, 4
    3b79:	090103        	lsi	f0, a1, 36
    3b7c:	010003        	lsi	f0, a0, 4
    3b7f:	090103        	lsi	f0, a1, 36
    3b82:	010003        	lsi	f0, a0, 4
    3b85:	090103        	lsi	f0, a1, 36
    3b88:	010002        	l8ui	a0, a0, 1
    3b8b:	090103        	lsi	f0, a1, 36
    3b8e:	010002        	l8ui	a0, a0, 1
    3b91:	090103        	lsi	f0, a1, 36
    3b94:	010003        	lsi	f0, a0, 4
    3b97:	090103        	lsi	f0, a1, 36
    3b9a:	010003        	lsi	f0, a0, 4
    3b9d:	090103        	lsi	f0, a1, 36
    3ba0:	010003        	lsi	f0, a0, 4
    3ba3:	090103        	lsi	f0, a1, 36
    3ba6:	010003        	lsi	f0, a0, 4
    3ba9:	090103        	lsi	f0, a1, 36
    3bac:	010003        	lsi	f0, a0, 4
    3baf:	090103        	lsi	f0, a1, 36
    3bb2:	010002        	l8ui	a0, a0, 1
    3bb5:	090103        	lsi	f0, a1, 36
    3bb8:	010003        	lsi	f0, a0, 4
    3bbb:	090103        	lsi	f0, a1, 36
    3bbe:	010002        	l8ui	a0, a0, 1
    3bc1:	090103        	lsi	f0, a1, 36
    3bc4:	010003        	lsi	f0, a0, 4
    3bc7:	090103        	lsi	f0, a1, 36
    3bca:	010002        	l8ui	a0, a0, 1
    3bcd:	090103        	lsi	f0, a1, 36
    3bd0:	010003        	lsi	f0, a0, 4
    3bd3:	090103        	lsi	f0, a1, 36
    3bd6:	010003        	lsi	f0, a0, 4
    3bd9:	090103        	lsi	f0, a1, 36
    3bdc:	010003        	lsi	f0, a0, 4
    3bdf:	090103        	lsi	f0, a1, 36
    3be2:	010003        	lsi	f0, a0, 4
    3be5:	090103        	lsi	f0, a1, 36
    3be8:	010002        	l8ui	a0, a0, 1
    3beb:	090103        	lsi	f0, a1, 36
    3bee:	010002        	l8ui	a0, a0, 1
    3bf1:	090103        	lsi	f0, a1, 36
    3bf4:	010003        	lsi	f0, a0, 4
    3bf7:	090103        	lsi	f0, a1, 36
    3bfa:	010003        	lsi	f0, a0, 4
    3bfd:	090103        	lsi	f0, a1, 36
    3c00:	010003        	lsi	f0, a0, 4
    3c03:	090103        	lsi	f0, a1, 36
    3c06:	010003        	lsi	f0, a0, 4
    3c09:	090103        	lsi	f0, a1, 36
    3c0c:	010003        	lsi	f0, a0, 4
    3c0f:	090103        	lsi	f0, a1, 36
    3c12:	010002        	l8ui	a0, a0, 1
    3c15:	090103        	lsi	f0, a1, 36
    3c18:	010003        	lsi	f0, a0, 4
    3c1b:	090103        	lsi	f0, a1, 36
    3c1e:	010002        	l8ui	a0, a0, 1
    3c21:	090103        	lsi	f0, a1, 36
    3c24:	010003        	lsi	f0, a0, 4
    3c27:	090103        	lsi	f0, a1, 36
    3c2a:	010002        	l8ui	a0, a0, 1
    3c2d:	090103        	lsi	f0, a1, 36
    3c30:	010003        	lsi	f0, a0, 4
    3c33:	090103        	lsi	f0, a1, 36
    3c36:	010003        	lsi	f0, a0, 4
    3c39:	090103        	lsi	f0, a1, 36
    3c3c:	010003        	lsi	f0, a0, 4
    3c3f:	090103        	lsi	f0, a1, 36
    3c42:	010003        	lsi	f0, a0, 4
    3c45:	090103        	lsi	f0, a1, 36
    3c48:	010002        	l8ui	a0, a0, 1
    3c4b:	090103        	lsi	f0, a1, 36
    3c4e:	010002        	l8ui	a0, a0, 1
    3c51:	090103        	lsi	f0, a1, 36
    3c54:	010003        	lsi	f0, a0, 4
    3c57:	090103        	lsi	f0, a1, 36
    3c5a:	010003        	lsi	f0, a0, 4
    3c5d:	090103        	lsi	f0, a1, 36
    3c60:	010003        	lsi	f0, a0, 4
    3c63:	090103        	lsi	f0, a1, 36
    3c66:	010003        	lsi	f0, a0, 4
    3c69:	090103        	lsi	f0, a1, 36
    3c6c:	010003        	lsi	f0, a0, 4
    3c6f:	090103        	lsi	f0, a1, 36
    3c72:	010002        	l8ui	a0, a0, 1
    3c75:	090103        	lsi	f0, a1, 36
    3c78:	010003        	lsi	f0, a0, 4
    3c7b:	090103        	lsi	f0, a1, 36
    3c7e:	010002        	l8ui	a0, a0, 1
    3c81:	090103        	lsi	f0, a1, 36
    3c84:	010003        	lsi	f0, a0, 4
    3c87:	090103        	lsi	f0, a1, 36
    3c8a:	010002        	l8ui	a0, a0, 1
    3c8d:	090103        	lsi	f0, a1, 36
    3c90:	010003        	lsi	f0, a0, 4
    3c93:	090103        	lsi	f0, a1, 36
    3c96:	010003        	lsi	f0, a0, 4
    3c99:	090103        	lsi	f0, a1, 36
    3c9c:	010002        	l8ui	a0, a0, 1
    3c9f:	090103        	lsi	f0, a1, 36
    3ca2:	010006        	j	40a6 <EXCVADDR+0x3fb8>
    3ca5:	090103        	lsi	f0, a1, 36
    3ca8:	010002        	l8ui	a0, a0, 1
    3cab:	090103        	lsi	f0, a1, 36
    3cae:	010003        	lsi	f0, a0, 4
    3cb1:	090103        	lsi	f0, a1, 36
    3cb4:	010002        	l8ui	a0, a0, 1
    3cb7:	090103        	lsi	f0, a1, 36
    3cba:	010002        	l8ui	a0, a0, 1
    3cbd:	090103        	lsi	f0, a1, 36
    3cc0:	010003        	lsi	f0, a0, 4
    3cc3:	090103        	lsi	f0, a1, 36
    3cc6:	010003        	lsi	f0, a0, 4
    3cc9:	090103        	lsi	f0, a1, 36
    3ccc:	010003        	lsi	f0, a0, 4
    3ccf:	090103        	lsi	f0, a1, 36
    3cd2:	010002        	l8ui	a0, a0, 1
    3cd5:	090103        	lsi	f0, a1, 36
    3cd8:	010006        	j	40dc <EXCVADDR+0x3fee>
    3cdb:	090103        	lsi	f0, a1, 36
    3cde:	010002        	l8ui	a0, a0, 1
    3ce1:	090103        	lsi	f0, a1, 36
    3ce4:	010003        	lsi	f0, a0, 4
    3ce7:	090103        	lsi	f0, a1, 36
    3cea:	010002        	l8ui	a0, a0, 1
    3ced:	090103        	lsi	f0, a1, 36
    3cf0:	010002        	l8ui	a0, a0, 1
    3cf3:	090103        	lsi	f0, a1, 36
    3cf6:	010006        	j	40fa <EXCVADDR+0x400c>
    3cf9:	090103        	lsi	f0, a1, 36
    3cfc:	010002        	l8ui	a0, a0, 1
    3cff:	090103        	lsi	f0, a1, 36
    3d02:	010003        	lsi	f0, a0, 4
    3d05:	090103        	lsi	f0, a1, 36
    3d08:	010003        	lsi	f0, a0, 4
    3d0b:	090103        	lsi	f0, a1, 36
    3d0e:	010002        	l8ui	a0, a0, 1
    3d11:	090203        	lsi	f0, a2, 36
    3d14:	0009      	s32i.n	a0, a0, 0
    3d16:	020301        	l32r	a0, fffc4524 <_etext+0xbff40890>
    3d19:	0209      	s32i.n	a0, a2, 0
    3d1b:	030100        	rsr.lend	a0
    3d1e:	030901        	l32r	a0, fffc4944 <_etext+0xbff40cb0>
    3d21:	030100        	rsr.lend	a0
    3d24:	030901        	l32r	a0, fffc4948 <_etext+0xbff40cb4>
    3d27:	030100        	rsr.lend	a0
    3d2a:	020901        	l32r	a0, fffc4550 <_etext+0xbff408bc>
    3d2d:	030100        	rsr.lend	a0
    3d30:	060901        	l32r	a0, fffc5554 <_etext+0xbff418c0>
    3d33:	030100        	rsr.lend	a0
    3d36:	020901        	l32r	a0, fffc455c <_etext+0xbff408c8>
    3d39:	030100        	rsr.lend	a0
    3d3c:	030901        	l32r	a0, fffc4960 <_etext+0xbff40ccc>
    3d3f:	030100        	rsr.lend	a0
    3d42:	030901        	l32r	a0, fffc4968 <_etext+0xbff40cd4>
    3d45:	030100        	rsr.lend	a0
    3d48:	020901        	l32r	a0, fffc456c <_etext+0xbff408d8>
    3d4b:	030100        	rsr.lend	a0
    3d4e:	0a0902        	l8ui	a0, a9, 10
    3d51:	030100        	rsr.lend	a0
    3d54:	020902        	l8ui	a0, a9, 2
    3d57:	030100        	rsr.lend	a0
    3d5a:	030901        	l32r	a0, fffc4980 <_etext+0xbff40cec>
    3d5d:	030100        	rsr.lend	a0
    3d60:	030901        	l32r	a0, fffc4984 <_etext+0xbff40cf0>
    3d63:	030100        	rsr.lend	a0
    3d66:	020901        	l32r	a0, fffc458c <_etext+0xbff408f8>
    3d69:	030100        	rsr.lend	a0
    3d6c:	060901        	l32r	a0, fffc5590 <_etext+0xbff418fc>
    3d6f:	030100        	rsr.lend	a0
    3d72:	020901        	l32r	a0, fffc4598 <_etext+0xbff40904>
    3d75:	030100        	rsr.lend	a0
    3d78:	030901        	l32r	a0, fffc499c <_etext+0xbff40d08>
    3d7b:	030100        	rsr.lend	a0
    3d7e:	030901        	l32r	a0, fffc49a4 <_etext+0xbff40d10>
    3d81:	030100        	rsr.lend	a0
    3d84:	020901        	l32r	a0, fffc45a8 <_etext+0xbff40914>
    3d87:	030100        	rsr.lend	a0
    3d8a:	060902        	l8ui	a0, a9, 6
    3d8d:	030100        	rsr.lend	a0
    3d90:	020902        	l8ui	a0, a9, 2
    3d93:	030100        	rsr.lend	a0
    3d96:	030901        	l32r	a0, fffc49bc <_etext+0xbff40d28>
    3d99:	030100        	rsr.lend	a0
    3d9c:	030901        	l32r	a0, fffc49c0 <_etext+0xbff40d2c>
    3d9f:	030100        	rsr.lend	a0
    3da2:	020901        	l32r	a0, fffc45c8 <_etext+0xbff40934>
    3da5:	030100        	rsr.lend	a0
    3da8:	060901        	l32r	a0, fffc55cc <_etext+0xbff41938>
    3dab:	030100        	rsr.lend	a0
    3dae:	020901        	l32r	a0, fffc45d4 <_etext+0xbff40940>
    3db1:	030100        	rsr.lend	a0
    3db4:	030901        	l32r	a0, fffc49d8 <_etext+0xbff40d44>
    3db7:	030100        	rsr.lend	a0
    3dba:	030901        	l32r	a0, fffc49e0 <_etext+0xbff40d4c>
    3dbd:	030100        	rsr.lend	a0
    3dc0:	020901        	l32r	a0, fffc45e4 <_etext+0xbff40950>
    3dc3:	030100        	rsr.lend	a0
    3dc6:	060902        	l8ui	a0, a9, 6
    3dc9:	030100        	rsr.lend	a0
    3dcc:	020902        	l8ui	a0, a9, 2
    3dcf:	030100        	rsr.lend	a0
    3dd2:	030901        	l32r	a0, fffc49f8 <_etext+0xbff40d64>
    3dd5:	030100        	rsr.lend	a0
    3dd8:	030901        	l32r	a0, fffc49fc <_etext+0xbff40d68>
    3ddb:	030100        	rsr.lend	a0
    3dde:	020901        	l32r	a0, fffc4604 <_etext+0xbff40970>
    3de1:	030100        	rsr.lend	a0
    3de4:	060901        	l32r	a0, fffc5608 <_etext+0xbff41974>
    3de7:	030100        	rsr.lend	a0
    3dea:	020901        	l32r	a0, fffc4610 <_etext+0xbff4097c>
    3ded:	030100        	rsr.lend	a0
    3df0:	030901        	l32r	a0, fffc4a14 <_etext+0xbff40d80>
    3df3:	030100        	rsr.lend	a0
    3df6:	030901        	l32r	a0, fffc4a1c <_etext+0xbff40d88>
    3df9:	030100        	rsr.lend	a0
    3dfc:	020901        	l32r	a0, fffc4620 <_etext+0xbff4098c>
    3dff:	030100        	rsr.lend	a0
    3e02:	060902        	l8ui	a0, a9, 6
    3e05:	030100        	rsr.lend	a0
    3e08:	020902        	l8ui	a0, a9, 2
    3e0b:	030100        	rsr.lend	a0
    3e0e:	030901        	l32r	a0, fffc4a34 <_etext+0xbff40da0>
    3e11:	030100        	rsr.lend	a0
    3e14:	030901        	l32r	a0, fffc4a38 <_etext+0xbff40da4>
    3e17:	030100        	rsr.lend	a0
    3e1a:	020901        	l32r	a0, fffc4640 <_etext+0xbff409ac>
    3e1d:	030100        	rsr.lend	a0
    3e20:	060901        	l32r	a0, fffc5644 <_etext+0xbff419b0>
    3e23:	030100        	rsr.lend	a0
    3e26:	020901        	l32r	a0, fffc464c <_etext+0xbff409b8>
    3e29:	030100        	rsr.lend	a0
    3e2c:	020901        	l32r	a0, fffc4650 <_etext+0xbff409bc>
    3e2f:	030100        	rsr.lend	a0
    3e32:	030901        	l32r	a0, fffc4a58 <_etext+0xbff40dc4>
    3e35:	030100        	rsr.lend	a0
    3e38:	020901        	l32r	a0, fffc465c <_etext+0xbff409c8>
    3e3b:	030100        	rsr.lend	a0
    3e3e:	030902        	l8ui	a0, a9, 3
    3e41:	030100        	rsr.lend	a0
    3e44:	020902        	l8ui	a0, a9, 2
    3e47:	030100        	rsr.lend	a0
    3e4a:	030901        	l32r	a0, fffc4a70 <_etext+0xbff40ddc>
    3e4d:	030100        	rsr.lend	a0
    3e50:	030901        	l32r	a0, fffc4a74 <_etext+0xbff40de0>
    3e53:	030100        	rsr.lend	a0
    3e56:	020901        	l32r	a0, fffc467c <_etext+0xbff409e8>
    3e59:	030100        	rsr.lend	a0
    3e5c:	060901        	l32r	a0, fffc5680 <_etext+0xbff419ec>
    3e5f:	030100        	rsr.lend	a0
    3e62:	020901        	l32r	a0, fffc4688 <_etext+0xbff409f4>
    3e65:	030100        	rsr.lend	a0
    3e68:	030901        	l32r	a0, fffc4a8c <_etext+0xbff40df8>
    3e6b:	030100        	rsr.lend	a0
    3e6e:	030901        	l32r	a0, fffc4a94 <_etext+0xbff40e00>
    3e71:	030100        	rsr.lend	a0
    3e74:	020901        	l32r	a0, fffc4698 <_etext+0xbff40a04>
    3e77:	030100        	rsr.lend	a0
    3e7a:	0a0902        	l8ui	a0, a9, 10
    3e7d:	030100        	rsr.lend	a0
    3e80:	020902        	l8ui	a0, a9, 2
    3e83:	030100        	rsr.lend	a0
    3e86:	030901        	l32r	a0, fffc4aac <_etext+0xbff40e18>
    3e89:	030100        	rsr.lend	a0
    3e8c:	030901        	l32r	a0, fffc4ab0 <_etext+0xbff40e1c>
    3e8f:	030100        	rsr.lend	a0
    3e92:	020901        	l32r	a0, fffc46b8 <_etext+0xbff40a24>
    3e95:	030100        	rsr.lend	a0
    3e98:	060901        	l32r	a0, fffc56bc <_etext+0xbff41a28>
    3e9b:	030100        	rsr.lend	a0
    3e9e:	020901        	l32r	a0, fffc46c4 <_etext+0xbff40a30>
    3ea1:	030100        	rsr.lend	a0
    3ea4:	030901        	l32r	a0, fffc4ac8 <_etext+0xbff40e34>
    3ea7:	030100        	rsr.lend	a0
    3eaa:	030901        	l32r	a0, fffc4ad0 <_etext+0xbff40e3c>
    3ead:	030100        	rsr.lend	a0
    3eb0:	020901        	l32r	a0, fffc46d4 <_etext+0xbff40a40>
    3eb3:	030100        	rsr.lend	a0
    3eb6:	0a0902        	l8ui	a0, a9, 10
    3eb9:	030100        	rsr.lend	a0
    3ebc:	020902        	l8ui	a0, a9, 2
    3ebf:	030100        	rsr.lend	a0
    3ec2:	030901        	l32r	a0, fffc4ae8 <_etext+0xbff40e54>
    3ec5:	030100        	rsr.lend	a0
    3ec8:	030901        	l32r	a0, fffc4aec <_etext+0xbff40e58>
    3ecb:	030100        	rsr.lend	a0
    3ece:	020901        	l32r	a0, fffc46f4 <_etext+0xbff40a60>
    3ed1:	030100        	rsr.lend	a0
    3ed4:	060901        	l32r	a0, fffc56f8 <_etext+0xbff41a64>
    3ed7:	030100        	rsr.lend	a0
    3eda:	020901        	l32r	a0, fffc4700 <_etext+0xbff40a6c>
    3edd:	030100        	rsr.lend	a0
    3ee0:	030901        	l32r	a0, fffc4b04 <_etext+0xbff40e70>
    3ee3:	030100        	rsr.lend	a0
    3ee6:	030901        	l32r	a0, fffc4b0c <_etext+0xbff40e78>
    3ee9:	030100        	rsr.lend	a0
    3eec:	020901        	l32r	a0, fffc4710 <_etext+0xbff40a7c>
    3eef:	030100        	rsr.lend	a0
    3ef2:	060902        	l8ui	a0, a9, 6
    3ef5:	030100        	rsr.lend	a0
    3ef8:	020902        	l8ui	a0, a9, 2
    3efb:	030100        	rsr.lend	a0
    3efe:	030901        	l32r	a0, fffc4b24 <_etext+0xbff40e90>
    3f01:	030100        	rsr.lend	a0
    3f04:	030901        	l32r	a0, fffc4b28 <_etext+0xbff40e94>
    3f07:	030100        	rsr.lend	a0
    3f0a:	020901        	l32r	a0, fffc4730 <_etext+0xbff40a9c>
    3f0d:	030100        	rsr.lend	a0
    3f10:	060901        	l32r	a0, fffc5734 <_etext+0xbff41aa0>
    3f13:	030100        	rsr.lend	a0
    3f16:	020901        	l32r	a0, fffc473c <_etext+0xbff40aa8>
    3f19:	030100        	rsr.lend	a0
    3f1c:	030901        	l32r	a0, fffc4b40 <_etext+0xbff40eac>
    3f1f:	030100        	rsr.lend	a0
    3f22:	030901        	l32r	a0, fffc4b48 <_etext+0xbff40eb4>
    3f25:	030100        	rsr.lend	a0
    3f28:	020901        	l32r	a0, fffc474c <_etext+0xbff40ab8>
    3f2b:	030100        	rsr.lend	a0
    3f2e:	030901        	l32r	a0, fffc4b54 <_etext+0xbff40ec0>
    3f31:	030100        	rsr.lend	a0
    3f34:	020901        	l32r	a0, fffc4758 <_etext+0xbff40ac4>
    3f37:	030100        	rsr.lend	a0
    3f3a:	050902        	l8ui	a0, a9, 5
    3f3d:	030100        	rsr.lend	a0
    3f40:	020902        	l8ui	a0, a9, 2
    3f43:	030100        	rsr.lend	a0
    3f46:	030901        	l32r	a0, fffc4b6c <_etext+0xbff40ed8>
    3f49:	030100        	rsr.lend	a0
    3f4c:	030901        	l32r	a0, fffc4b70 <_etext+0xbff40edc>
    3f4f:	030100        	rsr.lend	a0
    3f52:	020901        	l32r	a0, fffc4778 <_etext+0xbff40ae4>
    3f55:	030100        	rsr.lend	a0
    3f58:	060901        	l32r	a0, fffc577c <_etext+0xbff41ae8>
    3f5b:	030100        	rsr.lend	a0
    3f5e:	020901        	l32r	a0, fffc4784 <_etext+0xbff40af0>
    3f61:	030100        	rsr.lend	a0
    3f64:	030901        	l32r	a0, fffc4b88 <_etext+0xbff40ef4>
    3f67:	030100        	rsr.lend	a0
    3f6a:	030901        	l32r	a0, fffc4b90 <_etext+0xbff40efc>
    3f6d:	030100        	rsr.lend	a0
    3f70:	020901        	l32r	a0, fffc4794 <_etext+0xbff40b00>
    3f73:	030100        	rsr.lend	a0
    3f76:	030901        	l32r	a0, fffc4b9c <_etext+0xbff40f08>
    3f79:	030100        	rsr.lend	a0
    3f7c:	020901        	l32r	a0, fffc47a0 <_etext+0xbff40b0c>
    3f7f:	030100        	rsr.lend	a0
    3f82:	050902        	l8ui	a0, a9, 5
    3f85:	030100        	rsr.lend	a0
    3f88:	020902        	l8ui	a0, a9, 2
    3f8b:	030100        	rsr.lend	a0
    3f8e:	030901        	l32r	a0, fffc4bb4 <_etext+0xbff40f20>
    3f91:	030100        	rsr.lend	a0
    3f94:	030901        	l32r	a0, fffc4bb8 <_etext+0xbff40f24>
    3f97:	030100        	rsr.lend	a0
    3f9a:	020901        	l32r	a0, fffc47c0 <_etext+0xbff40b2c>
    3f9d:	030100        	rsr.lend	a0
    3fa0:	020901        	l32r	a0, fffc47c4 <_etext+0xbff40b30>
    3fa3:	030100        	rsr.lend	a0
    3fa6:	060901        	l32r	a0, fffc57cc <_etext+0xbff41b38>
    3fa9:	030100        	rsr.lend	a0
    3fac:	020901        	l32r	a0, fffc47d0 <_etext+0xbff40b3c>
    3faf:	030100        	rsr.lend	a0
    3fb2:	030901        	l32r	a0, fffc4bd8 <_etext+0xbff40f44>
    3fb5:	030100        	rsr.lend	a0
    3fb8:	030901        	l32r	a0, fffc4bdc <_etext+0xbff40f48>
    3fbb:	030100        	rsr.lend	a0
    3fbe:	020901        	l32r	a0, fffc47e4 <_etext+0xbff40b50>
    3fc1:	030100        	rsr.lend	a0
    3fc4:	030901        	l32r	a0, fffc4be8 <_etext+0xbff40f54>
    3fc7:	030100        	rsr.lend	a0
    3fca:	020901        	l32r	a0, fffc47f0 <_etext+0xbff40b5c>
    3fcd:	030100        	rsr.lend	a0
    3fd0:	030902        	l8ui	a0, a9, 3
    3fd3:	030100        	rsr.lend	a0
    3fd6:	020902        	l8ui	a0, a9, 2
    3fd9:	030100        	rsr.lend	a0
    3fdc:	030901        	l32r	a0, fffc4c00 <_etext+0xbff40f6c>
    3fdf:	030100        	rsr.lend	a0
    3fe2:	030901        	l32r	a0, fffc4c08 <_etext+0xbff40f74>
    3fe5:	030100        	rsr.lend	a0
    3fe8:	030901        	l32r	a0, fffc4c0c <_etext+0xbff40f78>
    3feb:	030100        	rsr.lend	a0
    3fee:	030901        	l32r	a0, fffc4c14 <_etext+0xbff40f80>
    3ff1:	030100        	rsr.lend	a0
    3ff4:	060901        	l32r	a0, fffc5818 <_etext+0xbff41b84>
    3ff7:	030100        	rsr.lend	a0
    3ffa:	060901        	l32r	a0, fffc5820 <_etext+0xbff41b8c>
    3ffd:	030100        	rsr.lend	a0
    4000:	030901        	l32r	a0, fffc4c24 <_etext+0xbff40f90>
    4003:	030100        	rsr.lend	a0
    4006:	030901        	l32r	a0, fffc4c2c <_etext+0xbff40f98>
    4009:	030100        	rsr.lend	a0
    400c:	030901        	l32r	a0, fffc4c30 <_etext+0xbff40f9c>
    400f:	030100        	rsr.lend	a0
    4012:	030901        	l32r	a0, fffc4c38 <_etext+0xbff40fa4>
    4015:	030100        	rsr.lend	a0
    4018:	060901        	l32r	a0, fffc583c <_etext+0xbff41ba8>
    401b:	030100        	rsr.lend	a0
    401e:	060901        	l32r	a0, fffc5844 <_etext+0xbff41bb0>
    4021:	090100        	l32e	a0, a1, -64
    4024:	000002        	l8ui	a0, a0, 0
    4027:	000101        	l32r	a0, fffc402c <_etext+0xbff40398>
    402a:	280205        	call0	2c04c <EXCVADDR+0x2bf5e>
    402d:	083c      	movi.n	a8, 48
    402f:	a30340        	movltz	a0, a3, a4
    4032:	030102        	l8ui	a0, a1, 3
    4035:	030901        	l32r	a0, fffc4c5c <_etext+0xbff40fc8>
    4038:	030100        	rsr.lend	a0
    403b:	030901        	l32r	a0, fffc4c60 <_etext+0xbff40fcc>
    403e:	030100        	rsr.lend	a0
    4041:	030901        	l32r	a0, fffc4c68 <_etext+0xbff40fd4>
    4044:	030100        	rsr.lend	a0
    4047:	060901        	l32r	a0, fffc586c <_etext+0xbff41bd8>
    404a:	090100        	l32e	a0, a1, -64
    404d:	000005        	call0	4050 <EXCVADDR+0x3f62>
    4050:	960101        	l32r	a0, fffe9854 <_etext+0xbff65bc0>
    4053:	000005        	call0	4054 <EXCVADDR+0x3f66>
    4056:	290002        	l8ui	a0, a0, 41
    4059:	000000        	ill
    405c:	fb0101        	l32r	a0, 2c60 <EXCVADDR+0x2b72>
    405f:	0e          	.byte 0xe
    4060:	000d      	mov.n	a0, a0
    4062:	010101        	l32r	a0, fffc4468 <_etext+0xbff407d4>
    4065:	000001        	l32r	a0, fffc4068 <_etext+0xbff403d4>
    4068:	000100        	lsi	f0, a1, 0
    406b:	620100        	lsi	f0, a1, 0x188
    406e:	6c6975        	call12	70704 <EXCVADDR+0x70616>
    4071:	000064        	lsi	f6, a0, 0
    4074:	6d6953        	lsi	f5, a9, 0x1b4
    4077:	656c70        	extui	a6, a7, 28, 7
    407a:	614d      	lsi	f4, a1, 4
    407c:	2e6874        	lsi	f7, a8, 184
    407f:	010053        	lsi	f5, a0, 4
    4082:	000000        	ill
    4085:	020500        	andb	b0, b5, b0
    4088:	26a8      	l32i.n	a10, a6, 8
    408a:	4008      	l32i.n	a0, a0, 16
    408c:	012a03        	lsi	f0, a10, 4
    408f:	090103        	lsi	f0, a1, 36
    4092:	010003        	lsi	f0, a0, 4
    4095:	090103        	lsi	f0, a1, 36
    4098:	010003        	lsi	f0, a0, 4
    409b:	090103        	lsi	f0, a1, 36
    409e:	010003        	lsi	f0, a0, 4
    40a1:	090103        	lsi	f0, a1, 36
    40a4:	010002        	l8ui	a0, a0, 1
    40a7:	090103        	lsi	f0, a1, 36
    40aa:	010006        	j	44ae <EXCVADDR+0x43c0>
    40ad:	090103        	lsi	f0, a1, 36
    40b0:	010006        	j	44b4 <EXCVADDR+0x43c6>
    40b3:	090103        	lsi	f0, a1, 36
    40b6:	010002        	l8ui	a0, a0, 1
    40b9:	090103        	lsi	f0, a1, 36
    40bc:	010002        	l8ui	a0, a0, 1
    40bf:	090103        	lsi	f0, a1, 36
    40c2:	010002        	l8ui	a0, a0, 1
    40c5:	090103        	lsi	f0, a1, 36
    40c8:	010002        	l8ui	a0, a0, 1
    40cb:	090103        	lsi	f0, a1, 36
    40ce:	010002        	l8ui	a0, a0, 1
    40d1:	090103        	lsi	f0, a1, 36
    40d4:	010002        	l8ui	a0, a0, 1
    40d7:	090103        	lsi	f0, a1, 36
    40da:	010002        	l8ui	a0, a0, 1
    40dd:	090103        	lsi	f0, a1, 36
    40e0:	010002        	l8ui	a0, a0, 1
    40e3:	090103        	lsi	f0, a1, 36
    40e6:	010002        	l8ui	a0, a0, 1
    40e9:	090103        	lsi	f0, a1, 36
    40ec:	010002        	l8ui	a0, a0, 1
    40ef:	090103        	lsi	f0, a1, 36
    40f2:	010002        	l8ui	a0, a0, 1
    40f5:	090103        	lsi	f0, a1, 36
    40f8:	010002        	l8ui	a0, a0, 1
    40fb:	090103        	lsi	f0, a1, 36
    40fe:	010002        	l8ui	a0, a0, 1
    4101:	090103        	lsi	f0, a1, 36
    4104:	010003        	lsi	f0, a0, 4
    4107:	090103        	lsi	f0, a1, 36
    410a:	010002        	l8ui	a0, a0, 1
    410d:	090103        	lsi	f0, a1, 36
    4110:	010002        	l8ui	a0, a0, 1
    4113:	090103        	lsi	f0, a1, 36
    4116:	010003        	lsi	f0, a0, 4
    4119:	090103        	lsi	f0, a1, 36
    411c:	010002        	l8ui	a0, a0, 1
    411f:	090103        	lsi	f0, a1, 36
    4122:	010002        	l8ui	a0, a0, 1
    4125:	090103        	lsi	f0, a1, 36
    4128:	010002        	l8ui	a0, a0, 1
    412b:	090103        	lsi	f0, a1, 36
    412e:	010002        	l8ui	a0, a0, 1
    4131:	090103        	lsi	f0, a1, 36
    4134:	010002        	l8ui	a0, a0, 1
    4137:	090103        	lsi	f0, a1, 36
    413a:	010003        	lsi	f0, a0, 4
    413d:	090103        	lsi	f0, a1, 36
    4140:	010002        	l8ui	a0, a0, 1
    4143:	090103        	lsi	f0, a1, 36
    4146:	010002        	l8ui	a0, a0, 1
    4149:	090103        	lsi	f0, a1, 36
    414c:	010002        	l8ui	a0, a0, 1
    414f:	090103        	lsi	f0, a1, 36
    4152:	010003        	lsi	f0, a0, 4
    4155:	090103        	lsi	f0, a1, 36
    4158:	010002        	l8ui	a0, a0, 1
    415b:	090103        	lsi	f0, a1, 36
    415e:	010002        	l8ui	a0, a0, 1
    4161:	090103        	lsi	f0, a1, 36
    4164:	010002        	l8ui	a0, a0, 1
    4167:	090103        	lsi	f0, a1, 36
    416a:	010002        	l8ui	a0, a0, 1
    416d:	090103        	lsi	f0, a1, 36
    4170:	010003        	lsi	f0, a0, 4
    4173:	090103        	lsi	f0, a1, 36
    4176:	010003        	lsi	f0, a0, 4
    4179:	090103        	lsi	f0, a1, 36
    417c:	010002        	l8ui	a0, a0, 1
    417f:	090103        	lsi	f0, a1, 36
    4182:	010002        	l8ui	a0, a0, 1
    4185:	090103        	lsi	f0, a1, 36
    4188:	010002        	l8ui	a0, a0, 1
    418b:	090103        	lsi	f0, a1, 36
    418e:	010003        	lsi	f0, a0, 4
    4191:	090103        	lsi	f0, a1, 36
    4194:	010002        	l8ui	a0, a0, 1
    4197:	090103        	lsi	f0, a1, 36
    419a:	010002        	l8ui	a0, a0, 1
    419d:	090103        	lsi	f0, a1, 36
    41a0:	010002        	l8ui	a0, a0, 1
    41a3:	090103        	lsi	f0, a1, 36
    41a6:	010003        	lsi	f0, a0, 4
    41a9:	090103        	lsi	f0, a1, 36
    41ac:	010002        	l8ui	a0, a0, 1
    41af:	090103        	lsi	f0, a1, 36
    41b2:	010003        	lsi	f0, a0, 4
    41b5:	090103        	lsi	f0, a1, 36
    41b8:	010002        	l8ui	a0, a0, 1
    41bb:	090103        	lsi	f0, a1, 36
    41be:	010002        	l8ui	a0, a0, 1
    41c1:	090103        	lsi	f0, a1, 36
    41c4:	010002        	l8ui	a0, a0, 1
    41c7:	090103        	lsi	f0, a1, 36
    41ca:	010003        	lsi	f0, a0, 4
    41cd:	090103        	lsi	f0, a1, 36
    41d0:	010002        	l8ui	a0, a0, 1
    41d3:	090103        	lsi	f0, a1, 36
    41d6:	010002        	l8ui	a0, a0, 1
    41d9:	090103        	lsi	f0, a1, 36
    41dc:	010006        	j	45e0 <EXCVADDR+0x44f2>
    41df:	090103        	lsi	f0, a1, 36
    41e2:	010002        	l8ui	a0, a0, 1
    41e5:	090103        	lsi	f0, a1, 36
    41e8:	010002        	l8ui	a0, a0, 1
    41eb:	090103        	lsi	f0, a1, 36
    41ee:	010003        	lsi	f0, a0, 4
    41f1:	090103        	lsi	f0, a1, 36
    41f4:	010002        	l8ui	a0, a0, 1
    41f7:	090203        	lsi	f0, a2, 36
    41fa:	010006        	j	45fe <EXCVADDR+0x4510>
    41fd:	090203        	lsi	f0, a2, 36
    4200:	010002        	l8ui	a0, a0, 1
    4203:	090103        	lsi	f0, a1, 36
    4206:	010003        	lsi	f0, a0, 4
    4209:	090103        	lsi	f0, a1, 36
    420c:	010003        	lsi	f0, a0, 4
    420f:	090103        	lsi	f0, a1, 36
    4212:	010002        	l8ui	a0, a0, 1
    4215:	090103        	lsi	f0, a1, 36
    4218:	010006        	j	461c <EXCVADDR+0x452e>
    421b:	090103        	lsi	f0, a1, 36
    421e:	010002        	l8ui	a0, a0, 1
    4221:	090103        	lsi	f0, a1, 36
    4224:	010002        	l8ui	a0, a0, 1
    4227:	090103        	lsi	f0, a1, 36
    422a:	010003        	lsi	f0, a0, 4
    422d:	090103        	lsi	f0, a1, 36
    4230:	010002        	l8ui	a0, a0, 1
    4233:	090203        	lsi	f0, a2, 36
    4236:	010003        	lsi	f0, a0, 4
    4239:	090203        	lsi	f0, a2, 36
    423c:	010002        	l8ui	a0, a0, 1
    423f:	090103        	lsi	f0, a1, 36
    4242:	010003        	lsi	f0, a0, 4
    4245:	090103        	lsi	f0, a1, 36
    4248:	010003        	lsi	f0, a0, 4
    424b:	090103        	lsi	f0, a1, 36
    424e:	010002        	l8ui	a0, a0, 1
    4251:	090103        	lsi	f0, a1, 36
    4254:	010006        	j	4658 <EXCVADDR+0x456a>
    4257:	090103        	lsi	f0, a1, 36
    425a:	010002        	l8ui	a0, a0, 1
    425d:	090103        	lsi	f0, a1, 36
    4260:	010002        	l8ui	a0, a0, 1
    4263:	090103        	lsi	f0, a1, 36
    4266:	010003        	lsi	f0, a0, 4
    4269:	090103        	lsi	f0, a1, 36
    426c:	010002        	l8ui	a0, a0, 1
    426f:	090203        	lsi	f0, a2, 36
    4272:	010003        	lsi	f0, a0, 4
    4275:	090203        	lsi	f0, a2, 36
    4278:	010002        	l8ui	a0, a0, 1
    427b:	090103        	lsi	f0, a1, 36
    427e:	010003        	lsi	f0, a0, 4
    4281:	090103        	lsi	f0, a1, 36
    4284:	010003        	lsi	f0, a0, 4
    4287:	090103        	lsi	f0, a1, 36
    428a:	010002        	l8ui	a0, a0, 1
    428d:	090103        	lsi	f0, a1, 36
    4290:	010006        	j	4694 <EXCVADDR+0x45a6>
    4293:	090103        	lsi	f0, a1, 36
    4296:	010002        	l8ui	a0, a0, 1
    4299:	090103        	lsi	f0, a1, 36
    429c:	010002        	l8ui	a0, a0, 1
    429f:	090103        	lsi	f0, a1, 36
    42a2:	010003        	lsi	f0, a0, 4
    42a5:	090103        	lsi	f0, a1, 36
    42a8:	010002        	l8ui	a0, a0, 1
    42ab:	090203        	lsi	f0, a2, 36
    42ae:	010003        	lsi	f0, a0, 4
    42b1:	090203        	lsi	f0, a2, 36
    42b4:	010002        	l8ui	a0, a0, 1
    42b7:	090103        	lsi	f0, a1, 36
    42ba:	010003        	lsi	f0, a0, 4
    42bd:	090103        	lsi	f0, a1, 36
    42c0:	010003        	lsi	f0, a0, 4
    42c3:	090103        	lsi	f0, a1, 36
    42c6:	010002        	l8ui	a0, a0, 1
    42c9:	090103        	lsi	f0, a1, 36
    42cc:	010006        	j	46d0 <EXCVADDR+0x45e2>
    42cf:	090103        	lsi	f0, a1, 36
    42d2:	010002        	l8ui	a0, a0, 1
    42d5:	090103        	lsi	f0, a1, 36
    42d8:	010002        	l8ui	a0, a0, 1
    42db:	090103        	lsi	f0, a1, 36
    42de:	010003        	lsi	f0, a0, 4
    42e1:	090103        	lsi	f0, a1, 36
    42e4:	010002        	l8ui	a0, a0, 1
    42e7:	090203        	lsi	f0, a2, 36
    42ea:	010003        	lsi	f0, a0, 4
    42ed:	090203        	lsi	f0, a2, 36
    42f0:	010002        	l8ui	a0, a0, 1
    42f3:	090103        	lsi	f0, a1, 36
    42f6:	010003        	lsi	f0, a0, 4
    42f9:	090103        	lsi	f0, a1, 36
    42fc:	010003        	lsi	f0, a0, 4
    42ff:	090103        	lsi	f0, a1, 36
    4302:	010002        	l8ui	a0, a0, 1
    4305:	090103        	lsi	f0, a1, 36
    4308:	010006        	j	470c <EXCVADDR+0x461e>
    430b:	090103        	lsi	f0, a1, 36
    430e:	010002        	l8ui	a0, a0, 1
    4311:	090103        	lsi	f0, a1, 36
    4314:	010002        	l8ui	a0, a0, 1
    4317:	090103        	lsi	f0, a1, 36
    431a:	010003        	lsi	f0, a0, 4
    431d:	090103        	lsi	f0, a1, 36
    4320:	010002        	l8ui	a0, a0, 1
    4323:	090203        	lsi	f0, a2, 36
    4326:	010003        	lsi	f0, a0, 4
    4329:	090203        	lsi	f0, a2, 36
    432c:	010002        	l8ui	a0, a0, 1
    432f:	090103        	lsi	f0, a1, 36
    4332:	010003        	lsi	f0, a0, 4
    4335:	090103        	lsi	f0, a1, 36
    4338:	010003        	lsi	f0, a0, 4
    433b:	090103        	lsi	f0, a1, 36
    433e:	010002        	l8ui	a0, a0, 1
    4341:	090103        	lsi	f0, a1, 36
    4344:	010006        	j	4748 <EXCVADDR+0x465a>
    4347:	090103        	lsi	f0, a1, 36
    434a:	010002        	l8ui	a0, a0, 1
    434d:	090103        	lsi	f0, a1, 36
    4350:	010002        	l8ui	a0, a0, 1
    4353:	090103        	lsi	f0, a1, 36
    4356:	010003        	lsi	f0, a0, 4
    4359:	090103        	lsi	f0, a1, 36
    435c:	010002        	l8ui	a0, a0, 1
    435f:	090203        	lsi	f0, a2, 36
    4362:	010003        	lsi	f0, a0, 4
    4365:	090203        	lsi	f0, a2, 36
    4368:	010002        	l8ui	a0, a0, 1
    436b:	090103        	lsi	f0, a1, 36
    436e:	010003        	lsi	f0, a0, 4
    4371:	090103        	lsi	f0, a1, 36
    4374:	010003        	lsi	f0, a0, 4
    4377:	090103        	lsi	f0, a1, 36
    437a:	010002        	l8ui	a0, a0, 1
    437d:	090103        	lsi	f0, a1, 36
    4380:	010006        	j	4784 <EXCVADDR+0x4696>
    4383:	090103        	lsi	f0, a1, 36
    4386:	010002        	l8ui	a0, a0, 1
    4389:	090103        	lsi	f0, a1, 36
    438c:	010003        	lsi	f0, a0, 4
    438f:	090103        	lsi	f0, a1, 36
    4392:	010003        	lsi	f0, a0, 4
    4395:	090103        	lsi	f0, a1, 36
    4398:	010002        	l8ui	a0, a0, 1
    439b:	090203        	lsi	f0, a2, 36
    439e:	010006        	j	47a2 <EXCVADDR+0x46b4>
    43a1:	090203        	lsi	f0, a2, 36
    43a4:	010002        	l8ui	a0, a0, 1
    43a7:	090103        	lsi	f0, a1, 36
    43aa:	010003        	lsi	f0, a0, 4
    43ad:	090103        	lsi	f0, a1, 36
    43b0:	010003        	lsi	f0, a0, 4
    43b3:	090103        	lsi	f0, a1, 36
    43b6:	010002        	l8ui	a0, a0, 1
    43b9:	090103        	lsi	f0, a1, 36
    43bc:	010002        	l8ui	a0, a0, 1
    43bf:	090103        	lsi	f0, a1, 36
    43c2:	010006        	j	47c6 <EXCVADDR+0x46d8>
    43c5:	090103        	lsi	f0, a1, 36
    43c8:	010002        	l8ui	a0, a0, 1
    43cb:	090103        	lsi	f0, a1, 36
    43ce:	010003        	lsi	f0, a0, 4
    43d1:	090103        	lsi	f0, a1, 36
    43d4:	010003        	lsi	f0, a0, 4
    43d7:	090103        	lsi	f0, a1, 36
    43da:	010002        	l8ui	a0, a0, 1
    43dd:	090203        	lsi	f0, a2, 36
    43e0:	010004        	lsi	f0, a0, 4
    43e3:	090203        	lsi	f0, a2, 36
    43e6:	010002        	l8ui	a0, a0, 1
    43e9:	090103        	lsi	f0, a1, 36
    43ec:	010003        	lsi	f0, a0, 4
    43ef:	090103        	lsi	f0, a1, 36
    43f2:	010003        	lsi	f0, a0, 4
    43f5:	090103        	lsi	f0, a1, 36
    43f8:	010002        	l8ui	a0, a0, 1
    43fb:	090103        	lsi	f0, a1, 36
    43fe:	010002        	l8ui	a0, a0, 1
    4401:	090103        	lsi	f0, a1, 36
    4404:	010006        	j	4808 <EXCVADDR+0x471a>
    4407:	090103        	lsi	f0, a1, 36
    440a:	010002        	l8ui	a0, a0, 1
    440d:	090103        	lsi	f0, a1, 36
    4410:	010002        	l8ui	a0, a0, 1
    4413:	090103        	lsi	f0, a1, 36
    4416:	010003        	lsi	f0, a0, 4
    4419:	090103        	lsi	f0, a1, 36
    441c:	010002        	l8ui	a0, a0, 1
    441f:	090203        	lsi	f0, a2, 36
    4422:	010005        	call0	5424 <EXCVADDR+0x5336>
    4425:	090203        	lsi	f0, a2, 36
    4428:	010002        	l8ui	a0, a0, 1
    442b:	090103        	lsi	f0, a1, 36
    442e:	010003        	lsi	f0, a0, 4
    4431:	090103        	lsi	f0, a1, 36
    4434:	010003        	lsi	f0, a0, 4
    4437:	090103        	lsi	f0, a1, 36
    443a:	010002        	l8ui	a0, a0, 1
    443d:	090103        	lsi	f0, a1, 36
    4440:	010002        	l8ui	a0, a0, 1
    4443:	090103        	lsi	f0, a1, 36
    4446:	010006        	j	484a <EXCVADDR+0x475c>
    4449:	090103        	lsi	f0, a1, 36
    444c:	010002        	l8ui	a0, a0, 1
    444f:	090103        	lsi	f0, a1, 36
    4452:	010002        	l8ui	a0, a0, 1
    4455:	090103        	lsi	f0, a1, 36
    4458:	010003        	lsi	f0, a0, 4
    445b:	090103        	lsi	f0, a1, 36
    445e:	010002        	l8ui	a0, a0, 1
    4461:	090203        	lsi	f0, a2, 36
    4464:	010005        	call0	5468 <EXCVADDR+0x537a>
    4467:	090203        	lsi	f0, a2, 36
    446a:	010002        	l8ui	a0, a0, 1
    446d:	090103        	lsi	f0, a1, 36
    4470:	010003        	lsi	f0, a0, 4
    4473:	090103        	lsi	f0, a1, 36
    4476:	010003        	lsi	f0, a0, 4
    4479:	090103        	lsi	f0, a1, 36
    447c:	010002        	l8ui	a0, a0, 1
    447f:	090103        	lsi	f0, a1, 36
    4482:	010002        	l8ui	a0, a0, 1
    4485:	090103        	lsi	f0, a1, 36
    4488:	010006        	j	488c <EXCVADDR+0x479e>
    448b:	090103        	lsi	f0, a1, 36
    448e:	010002        	l8ui	a0, a0, 1
    4491:	090103        	lsi	f0, a1, 36
    4494:	010002        	l8ui	a0, a0, 1
    4497:	090103        	lsi	f0, a1, 36
    449a:	010003        	lsi	f0, a0, 4
    449d:	090103        	lsi	f0, a1, 36
    44a0:	010002        	l8ui	a0, a0, 1
    44a3:	090203        	lsi	f0, a2, 36
    44a6:	010005        	call0	54a8 <EXCVADDR+0x53ba>
    44a9:	090203        	lsi	f0, a2, 36
    44ac:	010002        	l8ui	a0, a0, 1
    44af:	090103        	lsi	f0, a1, 36
    44b2:	010003        	lsi	f0, a0, 4
    44b5:	090103        	lsi	f0, a1, 36
    44b8:	010003        	lsi	f0, a0, 4
    44bb:	090103        	lsi	f0, a1, 36
    44be:	010002        	l8ui	a0, a0, 1
    44c1:	090103        	lsi	f0, a1, 36
    44c4:	010002        	l8ui	a0, a0, 1
    44c7:	090103        	lsi	f0, a1, 36
    44ca:	010006        	j	48ce <EXCVADDR+0x47e0>
    44cd:	090103        	lsi	f0, a1, 36
    44d0:	010002        	l8ui	a0, a0, 1
    44d3:	090103        	lsi	f0, a1, 36
    44d6:	010002        	l8ui	a0, a0, 1
    44d9:	090103        	lsi	f0, a1, 36
    44dc:	010003        	lsi	f0, a0, 4
    44df:	090103        	lsi	f0, a1, 36
    44e2:	010002        	l8ui	a0, a0, 1
    44e5:	090203        	lsi	f0, a2, 36
    44e8:	010005        	call0	54ec <EXCVADDR+0x53fe>
    44eb:	090203        	lsi	f0, a2, 36
    44ee:	010002        	l8ui	a0, a0, 1
    44f1:	090103        	lsi	f0, a1, 36
    44f4:	010003        	lsi	f0, a0, 4
    44f7:	090103        	lsi	f0, a1, 36
    44fa:	010003        	lsi	f0, a0, 4
    44fd:	090103        	lsi	f0, a1, 36
    4500:	010002        	l8ui	a0, a0, 1
    4503:	090103        	lsi	f0, a1, 36
    4506:	010002        	l8ui	a0, a0, 1
    4509:	090103        	lsi	f0, a1, 36
    450c:	010006        	j	4910 <EXCVADDR+0x4822>
    450f:	090103        	lsi	f0, a1, 36
    4512:	010002        	l8ui	a0, a0, 1
    4515:	090103        	lsi	f0, a1, 36
    4518:	010002        	l8ui	a0, a0, 1
    451b:	090103        	lsi	f0, a1, 36
    451e:	010003        	lsi	f0, a0, 4
    4521:	090103        	lsi	f0, a1, 36
    4524:	010002        	l8ui	a0, a0, 1
    4527:	090203        	lsi	f0, a2, 36
    452a:	010005        	call0	552c <EXCVADDR+0x543e>
    452d:	090203        	lsi	f0, a2, 36
    4530:	010002        	l8ui	a0, a0, 1
    4533:	090103        	lsi	f0, a1, 36
    4536:	010003        	lsi	f0, a0, 4
    4539:	090103        	lsi	f0, a1, 36
    453c:	010003        	lsi	f0, a0, 4
    453f:	090103        	lsi	f0, a1, 36
    4542:	010002        	l8ui	a0, a0, 1
    4545:	090103        	lsi	f0, a1, 36
    4548:	010002        	l8ui	a0, a0, 1
    454b:	090103        	lsi	f0, a1, 36
    454e:	010006        	j	4952 <EXCVADDR+0x4864>
    4551:	090103        	lsi	f0, a1, 36
    4554:	010002        	l8ui	a0, a0, 1
    4557:	090103        	lsi	f0, a1, 36
    455a:	010002        	l8ui	a0, a0, 1
    455d:	090103        	lsi	f0, a1, 36
    4560:	010003        	lsi	f0, a0, 4
    4563:	090103        	lsi	f0, a1, 36
    4566:	010002        	l8ui	a0, a0, 1
    4569:	090203        	lsi	f0, a2, 36
    456c:	010005        	call0	5570 <EXCVADDR+0x5482>
    456f:	090203        	lsi	f0, a2, 36
    4572:	010002        	l8ui	a0, a0, 1
    4575:	090103        	lsi	f0, a1, 36
    4578:	010003        	lsi	f0, a0, 4
    457b:	090103        	lsi	f0, a1, 36
    457e:	010003        	lsi	f0, a0, 4
    4581:	090103        	lsi	f0, a1, 36
    4584:	010003        	lsi	f0, a0, 4
    4587:	090103        	lsi	f0, a1, 36
    458a:	010003        	lsi	f0, a0, 4
    458d:	090103        	lsi	f0, a1, 36
    4590:	010006        	j	4994 <EXCVADDR+0x48a6>
    4593:	090103        	lsi	f0, a1, 36
    4596:	010006        	j	499a <EXCVADDR+0x48ac>
    4599:	090103        	lsi	f0, a1, 36
    459c:	010003        	lsi	f0, a0, 4
    459f:	090103        	lsi	f0, a1, 36
    45a2:	010003        	lsi	f0, a0, 4
    45a5:	090103        	lsi	f0, a1, 36
    45a8:	010003        	lsi	f0, a0, 4
    45ab:	090103        	lsi	f0, a1, 36
    45ae:	010003        	lsi	f0, a0, 4
    45b1:	090103        	lsi	f0, a1, 36
    45b4:	010006        	j	49b8 <EXCVADDR+0x48ca>
    45b7:	090103        	lsi	f0, a1, 36
    45ba:	010006        	j	49be <EXCVADDR+0x48d0>
    45bd:	0209      	s32i.n	a0, a2, 0
    45bf:	010000        	slli	a0, a0, 32
    45c2:	050001        	l32r	a0, fffc59c4 <_etext+0xbff41d30>
    45c5:	3c4002        	s8i	a0, a0, 60
    45c8:	4008      	l32i.n	a0, a0, 16
    45ca:	02ad03        	lsi	f0, a13, 8
    45cd:	010301        	l32r	a0, fffc49dc <_etext+0xbff40d48>
    45d0:	0309      	s32i.n	a0, a3, 0
    45d2:	030100        	rsr.lend	a0
    45d5:	030901        	l32r	a0, fffc51fc <_etext+0xbff41568>
    45d8:	030100        	rsr.lend	a0
    45db:	030901        	l32r	a0, fffc5200 <_etext+0xbff4156c>
    45de:	030100        	rsr.lend	a0
    45e1:	060901        	l32r	a0, fffc5e08 <_etext+0xbff42174>
    45e4:	090100        	l32e	a0, a1, -64
    45e7:	000005        	call0	45e8 <EXCVADDR+0x44fa>
    45ea:	a30101        	l32r	a0, fffed1f0 <_etext+0xbff6955c>
    45ed:	000005        	call0	45f0 <EXCVADDR+0x4502>
    45f0:	2a0002        	l8ui	a0, a0, 42
    45f3:	000000        	ill
    45f6:	fb0101        	l32r	a0, 31fc <EXCVADDR+0x310e>
    45f9:	0e          	.byte 0xe
    45fa:	000d      	mov.n	a0, a0
    45fc:	010101        	l32r	a0, fffc4a00 <_etext+0xbff40d6c>
    45ff:	000001        	l32r	a0, fffc4600 <_etext+0xbff4096c>
    4602:	000100        	lsi	f0, a1, 0
    4605:	620100        	lsi	f0, a1, 0x188
    4608:	6c6975        	call12	70ca0 <EXCVADDR+0x70bb2>
    460b:	000064        	lsi	f6, a0, 0
    460e:	737341        	l32r	a4, fffe13dc <_etext+0xbff5d748>
    4611:	6769      	s32i.n	a6, a7, 24
    4613:	6e          	.byte 0x6e
    4614:	656d      	lsi	f6, a5, 20
    4616:	6e          	.byte 0x6e
    4617:	2e7374        	lsi	f7, a3, 184
    461a:	010053        	lsi	f5, a0, 4
    461d:	000000        	ill
    4620:	020500        	andb	b0, b5, b0
    4623:	082920        	lsx	f2, a9, a2
    4626:	2b0340        	oeq.s	b0, f3, f4
    4629:	010301        	l32r	a0, fffc4a38 <_etext+0xbff40da4>
    462c:	0309      	s32i.n	a0, a3, 0
    462e:	030100        	rsr.lend	a0
    4631:	020901        	l32r	a0, fffc4e58 <_etext+0xbff411c4>
    4634:	030100        	rsr.lend	a0
    4637:	020901        	l32r	a0, fffc4e5c <_etext+0xbff411c8>
    463a:	030100        	rsr.lend	a0
    463d:	030901        	l32r	a0, fffc5264 <_etext+0xbff415d0>
    4640:	030100        	rsr.lend	a0
    4643:	020901        	l32r	a0, fffc4e68 <_etext+0xbff411d4>
    4646:	030100        	rsr.lend	a0
    4649:	030901        	l32r	a0, fffc5270 <_etext+0xbff415dc>
    464c:	030100        	rsr.lend	a0
    464f:	030901        	l32r	a0, fffc5274 <_etext+0xbff415e0>
    4652:	030100        	rsr.lend	a0
    4655:	020901        	l32r	a0, fffc4e7c <_etext+0xbff411e8>
    4658:	030100        	rsr.lend	a0
    465b:	020901        	l32r	a0, fffc4e80 <_etext+0xbff411ec>
    465e:	030100        	rsr.lend	a0
    4661:	020901        	l32r	a0, fffc4e88 <_etext+0xbff411f4>
    4664:	030100        	rsr.lend	a0
    4667:	020901        	l32r	a0, fffc4e8c <_etext+0xbff411f8>
    466a:	030100        	rsr.lend	a0
    466d:	020901        	l32r	a0, fffc4e94 <_etext+0xbff41200>
    4670:	030100        	rsr.lend	a0
    4673:	020901        	l32r	a0, fffc4e98 <_etext+0xbff41204>
    4676:	030100        	rsr.lend	a0
    4679:	020901        	l32r	a0, fffc4ea0 <_etext+0xbff4120c>
    467c:	030100        	rsr.lend	a0
    467f:	020901        	l32r	a0, fffc4ea4 <_etext+0xbff41210>
    4682:	030100        	rsr.lend	a0
    4685:	020901        	l32r	a0, fffc4eac <_etext+0xbff41218>
    4688:	030100        	rsr.lend	a0
    468b:	020901        	l32r	a0, fffc4eb0 <_etext+0xbff4121c>
    468e:	030100        	rsr.lend	a0
    4691:	0909      	s32i.n	a0, a9, 0
    4693:	010006        	j	4a97 <EXCVADDR+0x49a9>
    4696:	090103        	lsi	f0, a1, 36
    4699:	010003        	lsi	f0, a0, 4
    469c:	090103        	lsi	f0, a1, 36
    469f:	010003        	lsi	f0, a0, 4
    46a2:	090103        	lsi	f0, a1, 36
    46a5:	010003        	lsi	f0, a0, 4
    46a8:	090103        	lsi	f0, a1, 36
    46ab:	010002        	l8ui	a0, a0, 1
    46ae:	090103        	lsi	f0, a1, 36
    46b1:	010006        	j	4ab5 <EXCVADDR+0x49c7>
    46b4:	090103        	lsi	f0, a1, 36
    46b7:	010006        	j	4abb <EXCVADDR+0x49cd>
    46ba:	090103        	lsi	f0, a1, 36
    46bd:	010003        	lsi	f0, a0, 4
    46c0:	090103        	lsi	f0, a1, 36
    46c3:	010006        	j	4ac7 <EXCVADDR+0x49d9>
    46c6:	090103        	lsi	f0, a1, 36
    46c9:	010003        	lsi	f0, a0, 4
    46cc:	090103        	lsi	f0, a1, 36
    46cf:	010003        	lsi	f0, a0, 4
    46d2:	090103        	lsi	f0, a1, 36
    46d5:	010006        	j	4ad9 <EXCVADDR+0x49eb>
    46d8:	090103        	lsi	f0, a1, 36
    46db:	010003        	lsi	f0, a0, 4
    46de:	090103        	lsi	f0, a1, 36
    46e1:	010003        	lsi	f0, a0, 4
    46e4:	090103        	lsi	f0, a1, 36
    46e7:	010006        	j	4aeb <EXCVADDR+0x49fd>
    46ea:	090103        	lsi	f0, a1, 36
    46ed:	010002        	l8ui	a0, a0, 1
    46f0:	090103        	lsi	f0, a1, 36
    46f3:	010002        	l8ui	a0, a0, 1
    46f6:	090103        	lsi	f0, a1, 36
    46f9:	010006        	j	4afd <EXCVADDR+0x4a0f>
    46fc:	090103        	lsi	f0, a1, 36
    46ff:	010002        	l8ui	a0, a0, 1
    4702:	090103        	lsi	f0, a1, 36
    4705:	010002        	l8ui	a0, a0, 1
    4708:	090103        	lsi	f0, a1, 36
    470b:	010006        	j	4b0f <EXCVADDR+0x4a21>
    470e:	090103        	lsi	f0, a1, 36
    4711:	010003        	lsi	f0, a0, 4
    4714:	090103        	lsi	f0, a1, 36
    4717:	010003        	lsi	f0, a0, 4
    471a:	090103        	lsi	f0, a1, 36
    471d:	010003        	lsi	f0, a0, 4
    4720:	090103        	lsi	f0, a1, 36
    4723:	010002        	l8ui	a0, a0, 1
    4726:	090103        	lsi	f0, a1, 36
    4729:	010003        	lsi	f0, a0, 4
    472c:	090103        	lsi	f0, a1, 36
    472f:	010002        	l8ui	a0, a0, 1
    4732:	090103        	lsi	f0, a1, 36
    4735:	010002        	l8ui	a0, a0, 1
    4738:	090103        	lsi	f0, a1, 36
    473b:	010002        	l8ui	a0, a0, 1
    473e:	090203        	lsi	f0, a2, 36
    4741:	010002        	l8ui	a0, a0, 1
    4744:	090103        	lsi	f0, a1, 36
    4747:	010006        	j	4b4b <EXCVADDR+0x4a5d>
    474a:	090103        	lsi	f0, a1, 36
    474d:	010002        	l8ui	a0, a0, 1
    4750:	090103        	lsi	f0, a1, 36
    4753:	010002        	l8ui	a0, a0, 1
    4756:	090103        	lsi	f0, a1, 36
    4759:	010003        	lsi	f0, a0, 4
    475c:	090103        	lsi	f0, a1, 36
    475f:	010002        	l8ui	a0, a0, 1
    4762:	090203        	lsi	f0, a2, 36
    4765:	010003        	lsi	f0, a0, 4
    4768:	090203        	lsi	f0, a2, 36
    476b:	010002        	l8ui	a0, a0, 1
    476e:	090103        	lsi	f0, a1, 36
    4771:	010003        	lsi	f0, a0, 4
    4774:	090103        	lsi	f0, a1, 36
    4777:	010006        	j	4b7b <EXCVADDR+0x4a8d>
    477a:	090103        	lsi	f0, a1, 36
    477d:	010002        	l8ui	a0, a0, 1
    4780:	090103        	lsi	f0, a1, 36
    4783:	010002        	l8ui	a0, a0, 1
    4786:	090103        	lsi	f0, a1, 36
    4789:	010003        	lsi	f0, a0, 4
    478c:	090103        	lsi	f0, a1, 36
    478f:	010002        	l8ui	a0, a0, 1
    4792:	090203        	lsi	f0, a2, 36
    4795:	010004        	lsi	f0, a0, 4
    4798:	090203        	lsi	f0, a2, 36
    479b:	010002        	l8ui	a0, a0, 1
    479e:	090103        	lsi	f0, a1, 36
    47a1:	010003        	lsi	f0, a0, 4
    47a4:	090103        	lsi	f0, a1, 36
    47a7:	010006        	j	4bab <EXCVADDR+0x4abd>
    47aa:	090103        	lsi	f0, a1, 36
    47ad:	010002        	l8ui	a0, a0, 1
    47b0:	090103        	lsi	f0, a1, 36
    47b3:	010003        	lsi	f0, a0, 4
    47b6:	090103        	lsi	f0, a1, 36
    47b9:	010006        	j	4bbd <EXCVADDR+0x4acf>
    47bc:	090103        	lsi	f0, a1, 36
    47bf:	010003        	lsi	f0, a0, 4
    47c2:	090103        	lsi	f0, a1, 36
    47c5:	010003        	lsi	f0, a0, 4
    47c8:	090103        	lsi	f0, a1, 36
    47cb:	010006        	j	4bcf <EXCVADDR+0x4ae1>
    47ce:	090103        	lsi	f0, a1, 36
    47d1:	010002        	l8ui	a0, a0, 1
    47d4:	090103        	lsi	f0, a1, 36
    47d7:	010003        	lsi	f0, a0, 4
    47da:	090103        	lsi	f0, a1, 36
    47dd:	010006        	j	4be1 <EXCVADDR+0x4af3>
    47e0:	090103        	lsi	f0, a1, 36
    47e3:	010003        	lsi	f0, a0, 4
    47e6:	090103        	lsi	f0, a1, 36
    47e9:	010002        	l8ui	a0, a0, 1
    47ec:	090103        	lsi	f0, a1, 36
    47ef:	010003        	lsi	f0, a0, 4
    47f2:	090103        	lsi	f0, a1, 36
    47f5:	010002        	l8ui	a0, a0, 1
    47f8:	090103        	lsi	f0, a1, 36
    47fb:	010003        	lsi	f0, a0, 4
    47fe:	090103        	lsi	f0, a1, 36
    4801:	010006        	j	4c05 <EXCVADDR+0x4b17>
    4804:	090103        	lsi	f0, a1, 36
    4807:	010003        	lsi	f0, a0, 4
    480a:	090103        	lsi	f0, a1, 36
    480d:	010006        	j	4c11 <EXCVADDR+0x4b23>
    4810:	090103        	lsi	f0, a1, 36
    4813:	010002        	l8ui	a0, a0, 1
    4816:	090103        	lsi	f0, a1, 36
    4819:	010002        	l8ui	a0, a0, 1
    481c:	090103        	lsi	f0, a1, 36
    481f:	010003        	lsi	f0, a0, 4
    4822:	090103        	lsi	f0, a1, 36
    4825:	010002        	l8ui	a0, a0, 1
    4828:	090203        	lsi	f0, a2, 36
    482b:	010006        	j	4c2f <EXCVADDR+0x4b41>
    482e:	090203        	lsi	f0, a2, 36
    4831:	010002        	l8ui	a0, a0, 1
    4834:	090103        	lsi	f0, a1, 36
    4837:	010003        	lsi	f0, a0, 4
    483a:	090103        	lsi	f0, a1, 36
    483d:	010003        	lsi	f0, a0, 4
    4840:	090103        	lsi	f0, a1, 36
    4843:	010002        	l8ui	a0, a0, 1
    4846:	090103        	lsi	f0, a1, 36
    4849:	010006        	j	4c4d <EXCVADDR+0x4b5f>
    484c:	090103        	lsi	f0, a1, 36
    484f:	010006        	j	4c53 <EXCVADDR+0x4b65>
    4852:	090103        	lsi	f0, a1, 36
    4855:	010002        	l8ui	a0, a0, 1
    4858:	090103        	lsi	f0, a1, 36
    485b:	010003        	lsi	f0, a0, 4
    485e:	090103        	lsi	f0, a1, 36
    4861:	010003        	lsi	f0, a0, 4
    4864:	090103        	lsi	f0, a1, 36
    4867:	010002        	l8ui	a0, a0, 1
    486a:	090203        	lsi	f0, a2, 36
    486d:	010004        	lsi	f0, a0, 4
    4870:	090203        	lsi	f0, a2, 36
    4873:	010002        	l8ui	a0, a0, 1
    4876:	090103        	lsi	f0, a1, 36
    4879:	010003        	lsi	f0, a0, 4
    487c:	090103        	lsi	f0, a1, 36
    487f:	010003        	lsi	f0, a0, 4
    4882:	090103        	lsi	f0, a1, 36
    4885:	010002        	l8ui	a0, a0, 1
    4888:	090103        	lsi	f0, a1, 36
    488b:	010006        	j	4c8f <EXCVADDR+0x4ba1>
    488e:	090103        	lsi	f0, a1, 36
    4891:	010006        	j	4c95 <EXCVADDR+0x4ba7>
    4894:	090103        	lsi	f0, a1, 36
    4897:	010002        	l8ui	a0, a0, 1
    489a:	090103        	lsi	f0, a1, 36
    489d:	010002        	l8ui	a0, a0, 1
    48a0:	090103        	lsi	f0, a1, 36
    48a3:	010003        	lsi	f0, a0, 4
    48a6:	090103        	lsi	f0, a1, 36
    48a9:	010002        	l8ui	a0, a0, 1
    48ac:	090203        	lsi	f0, a2, 36
    48af:	010005        	call0	58b0 <EXCVADDR+0x57c2>
    48b2:	090203        	lsi	f0, a2, 36
    48b5:	010002        	l8ui	a0, a0, 1
    48b8:	090103        	lsi	f0, a1, 36
    48bb:	010003        	lsi	f0, a0, 4
    48be:	090103        	lsi	f0, a1, 36
    48c1:	010003        	lsi	f0, a0, 4
    48c4:	090103        	lsi	f0, a1, 36
    48c7:	010002        	l8ui	a0, a0, 1
    48ca:	090103        	lsi	f0, a1, 36
    48cd:	010006        	j	4cd1 <EXCVADDR+0x4be3>
    48d0:	090103        	lsi	f0, a1, 36
    48d3:	010006        	j	4cd7 <EXCVADDR+0x4be9>
    48d6:	090103        	lsi	f0, a1, 36
    48d9:	010002        	l8ui	a0, a0, 1
    48dc:	090103        	lsi	f0, a1, 36
    48df:	010002        	l8ui	a0, a0, 1
    48e2:	090103        	lsi	f0, a1, 36
    48e5:	010003        	lsi	f0, a0, 4
    48e8:	090103        	lsi	f0, a1, 36
    48eb:	010002        	l8ui	a0, a0, 1
    48ee:	090203        	lsi	f0, a2, 36
    48f1:	010005        	call0	58f4 <EXCVADDR+0x5806>
    48f4:	090203        	lsi	f0, a2, 36
    48f7:	010002        	l8ui	a0, a0, 1
    48fa:	090103        	lsi	f0, a1, 36
    48fd:	010003        	lsi	f0, a0, 4
    4900:	090103        	lsi	f0, a1, 36
    4903:	010003        	lsi	f0, a0, 4
    4906:	090103        	lsi	f0, a1, 36
    4909:	010003        	lsi	f0, a0, 4
    490c:	090103        	lsi	f0, a1, 36
    490f:	010006        	j	4d13 <EXCVADDR+0x4c25>
    4912:	090103        	lsi	f0, a1, 36
    4915:	010006        	j	4d19 <EXCVADDR+0x4c2b>
    4918:	090103        	lsi	f0, a1, 36
    491b:	010003        	lsi	f0, a0, 4
    491e:	090103        	lsi	f0, a1, 36
    4921:	010003        	lsi	f0, a0, 4
    4924:	090203        	lsi	f0, a2, 36
    4927:	010003        	lsi	f0, a0, 4
    492a:	090103        	lsi	f0, a1, 36
    492d:	010003        	lsi	f0, a0, 4
    4930:	090103        	lsi	f0, a1, 36
    4933:	010002        	l8ui	a0, a0, 1
    4936:	090103        	lsi	f0, a1, 36
    4939:	010003        	lsi	f0, a0, 4
    493c:	090103        	lsi	f0, a1, 36
    493f:	010002        	l8ui	a0, a0, 1
    4942:	090103        	lsi	f0, a1, 36
    4945:	010003        	lsi	f0, a0, 4
    4948:	090203        	lsi	f0, a2, 36
    494b:	010003        	lsi	f0, a0, 4
    494e:	090103        	lsi	f0, a1, 36
    4951:	010003        	lsi	f0, a0, 4
    4954:	090103        	lsi	f0, a1, 36
    4957:	010002        	l8ui	a0, a0, 1
    495a:	090203        	lsi	f0, a2, 36
    495d:	010003        	lsi	f0, a0, 4
    4960:	090203        	lsi	f0, a2, 36
    4963:	010002        	l8ui	a0, a0, 1
    4966:	090103        	lsi	f0, a1, 36
    4969:	010003        	lsi	f0, a0, 4
    496c:	090103        	lsi	f0, a1, 36
    496f:	010003        	lsi	f0, a0, 4
    4972:	090103        	lsi	f0, a1, 36
    4975:	010002        	l8ui	a0, a0, 1
    4978:	090103        	lsi	f0, a1, 36
    497b:	010006        	j	4d7f <EXCVADDR+0x4c91>
    497e:	090103        	lsi	f0, a1, 36
    4981:	010006        	j	4d85 <EXCVADDR+0x4c97>
    4984:	090103        	lsi	f0, a1, 36
    4987:	010003        	lsi	f0, a0, 4
    498a:	090103        	lsi	f0, a1, 36
    498d:	010003        	lsi	f0, a0, 4
    4990:	090103        	lsi	f0, a1, 36
    4993:	010003        	lsi	f0, a0, 4
    4996:	090103        	lsi	f0, a1, 36
    4999:	010002        	l8ui	a0, a0, 1
    499c:	090103        	lsi	f0, a1, 36
    499f:	010002        	l8ui	a0, a0, 1
    49a2:	090103        	lsi	f0, a1, 36
    49a5:	010006        	j	4da9 <EXCVADDR+0x4cbb>
    49a8:	090103        	lsi	f0, a1, 36
    49ab:	010006        	j	4daf <EXCVADDR+0x4cc1>
    49ae:	090103        	lsi	f0, a1, 36
    49b1:	010003        	lsi	f0, a0, 4
    49b4:	090103        	lsi	f0, a1, 36
    49b7:	010002        	l8ui	a0, a0, 1
    49ba:	090103        	lsi	f0, a1, 36
    49bd:	010002        	l8ui	a0, a0, 1
    49c0:	090203        	lsi	f0, a2, 36
    49c3:	010006        	j	4dc7 <EXCVADDR+0x4cd9>
    49c6:	090203        	lsi	f0, a2, 36
    49c9:	010002        	l8ui	a0, a0, 1
    49cc:	090103        	lsi	f0, a1, 36
    49cf:	010003        	lsi	f0, a0, 4
    49d2:	090103        	lsi	f0, a1, 36
    49d5:	010003        	lsi	f0, a0, 4
    49d8:	090103        	lsi	f0, a1, 36
    49db:	010003        	lsi	f0, a0, 4
    49de:	090103        	lsi	f0, a1, 36
    49e1:	010003        	lsi	f0, a0, 4
    49e4:	090103        	lsi	f0, a1, 36
    49e7:	010006        	j	4deb <EXCVADDR+0x4cfd>
    49ea:	090103        	lsi	f0, a1, 36
    49ed:	010006        	j	4df1 <EXCVADDR+0x4d03>
    49f0:	090103        	lsi	f0, a1, 36
    49f3:	010002        	l8ui	a0, a0, 1
    49f6:	090103        	lsi	f0, a1, 36
    49f9:	010002        	l8ui	a0, a0, 1
    49fc:	090103        	lsi	f0, a1, 36
    49ff:	010003        	lsi	f0, a0, 4
    4a02:	090103        	lsi	f0, a1, 36
    4a05:	010002        	l8ui	a0, a0, 1
    4a08:	090203        	lsi	f0, a2, 36
    4a0b:	010005        	call0	5a0c <EXCVADDR+0x591e>
    4a0e:	090203        	lsi	f0, a2, 36
    4a11:	010002        	l8ui	a0, a0, 1
    4a14:	090103        	lsi	f0, a1, 36
    4a17:	010003        	lsi	f0, a0, 4
    4a1a:	090103        	lsi	f0, a1, 36
    4a1d:	010003        	lsi	f0, a0, 4
    4a20:	090103        	lsi	f0, a1, 36
    4a23:	010003        	lsi	f0, a0, 4
    4a26:	090103        	lsi	f0, a1, 36
    4a29:	010003        	lsi	f0, a0, 4
    4a2c:	090103        	lsi	f0, a1, 36
    4a2f:	010006        	j	4e33 <EXCVADDR+0x4d45>
    4a32:	090103        	lsi	f0, a1, 36
    4a35:	010006        	j	4e39 <EXCVADDR+0x4d4b>
    4a38:	090103        	lsi	f0, a1, 36
    4a3b:	010003        	lsi	f0, a0, 4
    4a3e:	090103        	lsi	f0, a1, 36
    4a41:	010002        	l8ui	a0, a0, 1
    4a44:	090103        	lsi	f0, a1, 36
    4a47:	010003        	lsi	f0, a0, 4
    4a4a:	090103        	lsi	f0, a1, 36
    4a4d:	010002        	l8ui	a0, a0, 1
    4a50:	090203        	lsi	f0, a2, 36
    4a53:	010004        	lsi	f0, a0, 4
    4a56:	090203        	lsi	f0, a2, 36
    4a59:	010002        	l8ui	a0, a0, 1
    4a5c:	090103        	lsi	f0, a1, 36
    4a5f:	010003        	lsi	f0, a0, 4
    4a62:	090103        	lsi	f0, a1, 36
    4a65:	010003        	lsi	f0, a0, 4
    4a68:	090103        	lsi	f0, a1, 36
    4a6b:	010003        	lsi	f0, a0, 4
    4a6e:	090103        	lsi	f0, a1, 36
    4a71:	010003        	lsi	f0, a0, 4
    4a74:	090103        	lsi	f0, a1, 36
    4a77:	010006        	j	4e7b <EXCVADDR+0x4d8d>
    4a7a:	090103        	lsi	f0, a1, 36
    4a7d:	010006        	j	4e81 <EXCVADDR+0x4d93>
    4a80:	090103        	lsi	f0, a1, 36
    4a83:	010003        	lsi	f0, a0, 4
    4a86:	090103        	lsi	f0, a1, 36
    4a89:	010002        	l8ui	a0, a0, 1
    4a8c:	090103        	lsi	f0, a1, 36
    4a8f:	010003        	lsi	f0, a0, 4
    4a92:	090103        	lsi	f0, a1, 36
    4a95:	010002        	l8ui	a0, a0, 1
    4a98:	090203        	lsi	f0, a2, 36
    4a9b:	010004        	lsi	f0, a0, 4
    4a9e:	090203        	lsi	f0, a2, 36
    4aa1:	010002        	l8ui	a0, a0, 1
    4aa4:	090103        	lsi	f0, a1, 36
    4aa7:	010003        	lsi	f0, a0, 4
    4aaa:	090103        	lsi	f0, a1, 36
    4aad:	010003        	lsi	f0, a0, 4
    4ab0:	090103        	lsi	f0, a1, 36
    4ab3:	010003        	lsi	f0, a0, 4
    4ab6:	090103        	lsi	f0, a1, 36
    4ab9:	010003        	lsi	f0, a0, 4
    4abc:	090103        	lsi	f0, a1, 36
    4abf:	010006        	j	4ec3 <EXCVADDR+0x4dd5>
    4ac2:	090103        	lsi	f0, a1, 36
    4ac5:	010006        	j	4ec9 <EXCVADDR+0x4ddb>
    4ac8:	090103        	lsi	f0, a1, 36
    4acb:	010003        	lsi	f0, a0, 4
    4ace:	090103        	lsi	f0, a1, 36
    4ad1:	010002        	l8ui	a0, a0, 1
    4ad4:	090103        	lsi	f0, a1, 36
    4ad7:	010003        	lsi	f0, a0, 4
    4ada:	090103        	lsi	f0, a1, 36
    4add:	010002        	l8ui	a0, a0, 1
    4ae0:	090203        	lsi	f0, a2, 36
    4ae3:	010004        	lsi	f0, a0, 4
    4ae6:	090203        	lsi	f0, a2, 36
    4ae9:	010002        	l8ui	a0, a0, 1
    4aec:	090103        	lsi	f0, a1, 36
    4aef:	010003        	lsi	f0, a0, 4
    4af2:	090103        	lsi	f0, a1, 36
    4af5:	010003        	lsi	f0, a0, 4
    4af8:	090103        	lsi	f0, a1, 36
    4afb:	010003        	lsi	f0, a0, 4
    4afe:	090103        	lsi	f0, a1, 36
    4b01:	010003        	lsi	f0, a0, 4
    4b04:	090103        	lsi	f0, a1, 36
    4b07:	010006        	j	4f0b <EXCVADDR+0x4e1d>
    4b0a:	090103        	lsi	f0, a1, 36
    4b0d:	010006        	j	4f11 <EXCVADDR+0x4e23>
    4b10:	090103        	lsi	f0, a1, 36
    4b13:	010003        	lsi	f0, a0, 4
    4b16:	090103        	lsi	f0, a1, 36
    4b19:	010003        	lsi	f0, a0, 4
    4b1c:	090103        	lsi	f0, a1, 36
    4b1f:	010003        	lsi	f0, a0, 4
    4b22:	090103        	lsi	f0, a1, 36
    4b25:	010002        	l8ui	a0, a0, 1
    4b28:	090103        	lsi	f0, a1, 36
    4b2b:	010002        	l8ui	a0, a0, 1
    4b2e:	090103        	lsi	f0, a1, 36
    4b31:	010006        	j	4f35 <EXCVADDR+0x4e47>
    4b34:	090103        	lsi	f0, a1, 36
    4b37:	010006        	j	4f3b <EXCVADDR+0x4e4d>
    4b3a:	090103        	lsi	f0, a1, 36
    4b3d:	010003        	lsi	f0, a0, 4
    4b40:	090103        	lsi	f0, a1, 36
    4b43:	010003        	lsi	f0, a0, 4
    4b46:	090103        	lsi	f0, a1, 36
    4b49:	010003        	lsi	f0, a0, 4
    4b4c:	090103        	lsi	f0, a1, 36
    4b4f:	010002        	l8ui	a0, a0, 1
    4b52:	090103        	lsi	f0, a1, 36
    4b55:	010006        	j	4f59 <EXCVADDR+0x4e6b>
    4b58:	090103        	lsi	f0, a1, 36
    4b5b:	010006        	j	4f5f <EXCVADDR+0x4e71>
    4b5e:	090103        	lsi	f0, a1, 36
    4b61:	010006        	j	4f65 <EXCVADDR+0x4e77>
    4b64:	0409      	s32i.n	a0, a4, 0
    4b66:	010000        	slli	a0, a0, 32
    4b69:	050001        	l32r	a0, fffc5f6c <_etext+0xbff422d8>
    4b6c:	3c5802        	s16i	a0, a8, 120
    4b6f:	4008      	l32i.n	a0, a0, 16
    4b71:	02b503        	lsi	f0, a5, 8
    4b74:	010301        	l32r	a0, fffc4f80 <_etext+0xbff412ec>
    4b77:	0309      	s32i.n	a0, a3, 0
    4b79:	030100        	rsr.lend	a0
    4b7c:	030901        	l32r	a0, fffc57a0 <_etext+0xbff41b0c>
    4b7f:	030100        	rsr.lend	a0
    4b82:	030901        	l32r	a0, fffc57a8 <_etext+0xbff41b14>
    4b85:	030100        	rsr.lend	a0
    4b88:	060901        	l32r	a0, fffc63ac <_etext+0xbff42718>
    4b8b:	090100        	l32e	a0, a1, -64
    4b8e:	000005        	call0	4b90 <EXCVADDR+0x4aa2>
    4b91:	880101        	l32r	a0, fffe6b98 <_etext+0xbff62f04>
    4b94:	000004        	lsi	f0, a0, 0
    4b97:	230002        	l8ui	a0, a0, 35
    4b9a:	000000        	ill
    4b9d:	fb0101        	l32r	a0, 37a4 <EXCVADDR+0x36b6>
    4ba0:	0e          	.byte 0xe
    4ba1:	000d      	mov.n	a0, a0
    4ba3:	010101        	l32r	a0, fffc4fa8 <_etext+0xbff41314>
    4ba6:	000001        	l32r	a0, fffc4ba8 <_etext+0xbff40f14>
    4ba9:	000100        	lsi	f0, a1, 0
    4bac:	620100        	lsi	f0, a1, 0x188
    4baf:	6c6975        	call12	71244 <EXCVADDR+0x71156>
    4bb2:	000064        	lsi	f6, a0, 0
    4bb5:	736554        	lsi	f5, a5, 0x1cc
    4bb8:	532e74        	lsi	f7, a14, 0x14c
    4bbb:	000100        	lsi	f0, a1, 0
    4bbe:	000000        	ill
    4bc1:	080205        	call0	cbe4 <EXCVADDR+0xcaf6>
    4bc4:	082c      	movi.n	a8, 32
    4bc6:	210340        	srai	a0, a4, 3
    4bc9:	010301        	l32r	a0, fffc4fd8 <_etext+0xbff41344>
    4bcc:	0309      	s32i.n	a0, a3, 0
    4bce:	030100        	rsr.lend	a0
    4bd1:	020901        	l32r	a0, fffc53f8 <_etext+0xbff41764>
    4bd4:	030100        	rsr.lend	a0
    4bd7:	030901        	l32r	a0, fffc57fc <_etext+0xbff41b68>
    4bda:	030100        	rsr.lend	a0
    4bdd:	030901        	l32r	a0, fffc5804 <_etext+0xbff41b70>
    4be0:	030100        	rsr.lend	a0
    4be3:	060901        	l32r	a0, fffc6408 <_etext+0xbff42774>
    4be6:	030100        	rsr.lend	a0
    4be9:	060901        	l32r	a0, fffc6410 <_etext+0xbff4277c>
    4bec:	030100        	rsr.lend	a0
    4bef:	0909      	s32i.n	a0, a9, 0
    4bf1:	010005        	call0	5bf4 <EXCVADDR+0x5b06>
    4bf4:	090103        	lsi	f0, a1, 36
    4bf7:	010003        	lsi	f0, a0, 4
    4bfa:	090103        	lsi	f0, a1, 36
    4bfd:	010003        	lsi	f0, a0, 4
    4c00:	090103        	lsi	f0, a1, 36
    4c03:	010003        	lsi	f0, a0, 4
    4c06:	090103        	lsi	f0, a1, 36
    4c09:	010003        	lsi	f0, a0, 4
    4c0c:	090903        	lsi	f0, a9, 36
    4c0f:	010004        	lsi	f0, a0, 4
    4c12:	090103        	lsi	f0, a1, 36
    4c15:	010003        	lsi	f0, a0, 4
    4c18:	090103        	lsi	f0, a1, 36
    4c1b:	010003        	lsi	f0, a0, 4
    4c1e:	090103        	lsi	f0, a1, 36
    4c21:	010003        	lsi	f0, a0, 4
    4c24:	090103        	lsi	f0, a1, 36
    4c27:	010003        	lsi	f0, a0, 4
    4c2a:	090103        	lsi	f0, a1, 36
    4c2d:	010003        	lsi	f0, a0, 4
    4c30:	090103        	lsi	f0, a1, 36
    4c33:	010003        	lsi	f0, a0, 4
    4c36:	090103        	lsi	f0, a1, 36
    4c39:	010003        	lsi	f0, a0, 4
    4c3c:	090103        	lsi	f0, a1, 36
    4c3f:	010003        	lsi	f0, a0, 4
    4c42:	090103        	lsi	f0, a1, 36
    4c45:	010003        	lsi	f0, a0, 4
    4c48:	090103        	lsi	f0, a1, 36
    4c4b:	010002        	l8ui	a0, a0, 1
    4c4e:	090103        	lsi	f0, a1, 36
    4c51:	010003        	lsi	f0, a0, 4
    4c54:	090103        	lsi	f0, a1, 36
    4c57:	010003        	lsi	f0, a0, 4
    4c5a:	090103        	lsi	f0, a1, 36
    4c5d:	010003        	lsi	f0, a0, 4
    4c60:	090103        	lsi	f0, a1, 36
    4c63:	010003        	lsi	f0, a0, 4
    4c66:	090103        	lsi	f0, a1, 36
    4c69:	010003        	lsi	f0, a0, 4
    4c6c:	090103        	lsi	f0, a1, 36
    4c6f:	010003        	lsi	f0, a0, 4
    4c72:	090903        	lsi	f0, a9, 36
    4c75:	010005        	call0	5c78 <EXCVADDR+0x5b8a>
    4c78:	090103        	lsi	f0, a1, 36
    4c7b:	010003        	lsi	f0, a0, 4
    4c7e:	090103        	lsi	f0, a1, 36
    4c81:	010003        	lsi	f0, a0, 4
    4c84:	090103        	lsi	f0, a1, 36
    4c87:	010003        	lsi	f0, a0, 4
    4c8a:	090103        	lsi	f0, a1, 36
    4c8d:	010003        	lsi	f0, a0, 4
    4c90:	090103        	lsi	f0, a1, 36
    4c93:	010003        	lsi	f0, a0, 4
    4c96:	090103        	lsi	f0, a1, 36
    4c99:	010003        	lsi	f0, a0, 4
    4c9c:	090103        	lsi	f0, a1, 36
    4c9f:	010003        	lsi	f0, a0, 4
    4ca2:	090103        	lsi	f0, a1, 36
    4ca5:	010002        	l8ui	a0, a0, 1
    4ca8:	090103        	lsi	f0, a1, 36
    4cab:	010003        	lsi	f0, a0, 4
    4cae:	090103        	lsi	f0, a1, 36
    4cb1:	010003        	lsi	f0, a0, 4
    4cb4:	090103        	lsi	f0, a1, 36
    4cb7:	010003        	lsi	f0, a0, 4
    4cba:	090103        	lsi	f0, a1, 36
    4cbd:	010003        	lsi	f0, a0, 4
    4cc0:	090103        	lsi	f0, a1, 36
    4cc3:	010003        	lsi	f0, a0, 4
    4cc6:	090103        	lsi	f0, a1, 36
    4cc9:	010003        	lsi	f0, a0, 4
    4ccc:	090103        	lsi	f0, a1, 36
    4ccf:	010003        	lsi	f0, a0, 4
    4cd2:	090103        	lsi	f0, a1, 36
    4cd5:	010003        	lsi	f0, a0, 4
    4cd8:	090103        	lsi	f0, a1, 36
    4cdb:	010003        	lsi	f0, a0, 4
    4cde:	090103        	lsi	f0, a1, 36
    4ce1:	010003        	lsi	f0, a0, 4
    4ce4:	090203        	lsi	f0, a2, 36
    4ce7:	010003        	lsi	f0, a0, 4
    4cea:	090903        	lsi	f0, a9, 36
    4ced:	010004        	lsi	f0, a0, 4
    4cf0:	090103        	lsi	f0, a1, 36
    4cf3:	010003        	lsi	f0, a0, 4
    4cf6:	090103        	lsi	f0, a1, 36
    4cf9:	010002        	l8ui	a0, a0, 1
    4cfc:	090103        	lsi	f0, a1, 36
    4cff:	010003        	lsi	f0, a0, 4
    4d02:	090103        	lsi	f0, a1, 36
    4d05:	010006        	j	5109 <EXCVADDR+0x501b>
    4d08:	090103        	lsi	f0, a1, 36
    4d0b:	010002        	l8ui	a0, a0, 1
    4d0e:	090103        	lsi	f0, a1, 36
    4d11:	010003        	lsi	f0, a0, 4
    4d14:	090103        	lsi	f0, a1, 36
    4d17:	010003        	lsi	f0, a0, 4
    4d1a:	090103        	lsi	f0, a1, 36
    4d1d:	010002        	l8ui	a0, a0, 1
    4d20:	090103        	lsi	f0, a1, 36
    4d23:	010003        	lsi	f0, a0, 4
    4d26:	090103        	lsi	f0, a1, 36
    4d29:	010002        	l8ui	a0, a0, 1
    4d2c:	090103        	lsi	f0, a1, 36
    4d2f:	010002        	l8ui	a0, a0, 1
    4d32:	090103        	lsi	f0, a1, 36
    4d35:	010002        	l8ui	a0, a0, 1
    4d38:	090103        	lsi	f0, a1, 36
    4d3b:	010002        	l8ui	a0, a0, 1
    4d3e:	090103        	lsi	f0, a1, 36
    4d41:	010002        	l8ui	a0, a0, 1
    4d44:	090103        	lsi	f0, a1, 36
    4d47:	010002        	l8ui	a0, a0, 1
    4d4a:	090203        	lsi	f0, a2, 36
    4d4d:	010002        	l8ui	a0, a0, 1
    4d50:	090903        	lsi	f0, a9, 36
    4d53:	010007        	bnone	a0, a0, 4d58 <EXCVADDR+0x4c6a>
    4d56:	090103        	lsi	f0, a1, 36
    4d59:	010003        	lsi	f0, a0, 4
    4d5c:	090103        	lsi	f0, a1, 36
    4d5f:	010003        	lsi	f0, a0, 4
    4d62:	090103        	lsi	f0, a1, 36
    4d65:	010003        	lsi	f0, a0, 4
    4d68:	090103        	lsi	f0, a1, 36
    4d6b:	010002        	l8ui	a0, a0, 1
    4d6e:	090103        	lsi	f0, a1, 36
    4d71:	010006        	j	5175 <EXCVADDR+0x5087>
    4d74:	090103        	lsi	f0, a1, 36
    4d77:	010006        	j	517b <EXCVADDR+0x508d>
    4d7a:	090103        	lsi	f0, a1, 36
    4d7d:	010006        	j	5181 <EXCVADDR+0x5093>
    4d80:	090103        	lsi	f0, a1, 36
    4d83:	010002        	l8ui	a0, a0, 1
    4d86:	090103        	lsi	f0, a1, 36
    4d89:	010002        	l8ui	a0, a0, 1
    4d8c:	090203        	lsi	f0, a2, 36
    4d8f:	010002        	l8ui	a0, a0, 1
    4d92:	090103        	lsi	f0, a1, 36
    4d95:	010002        	l8ui	a0, a0, 1
    4d98:	090103        	lsi	f0, a1, 36
    4d9b:	010002        	l8ui	a0, a0, 1
    4d9e:	090103        	lsi	f0, a1, 36
    4da1:	010003        	lsi	f0, a0, 4
    4da4:	090103        	lsi	f0, a1, 36
    4da7:	010002        	l8ui	a0, a0, 1
    4daa:	090103        	lsi	f0, a1, 36
    4dad:	010002        	l8ui	a0, a0, 1
    4db0:	090103        	lsi	f0, a1, 36
    4db3:	010003        	lsi	f0, a0, 4
    4db6:	090103        	lsi	f0, a1, 36
    4db9:	010002        	l8ui	a0, a0, 1
    4dbc:	090103        	lsi	f0, a1, 36
    4dbf:	010002        	l8ui	a0, a0, 1
    4dc2:	090103        	lsi	f0, a1, 36
    4dc5:	010003        	lsi	f0, a0, 4
    4dc8:	090103        	lsi	f0, a1, 36
    4dcb:	010002        	l8ui	a0, a0, 1
    4dce:	090103        	lsi	f0, a1, 36
    4dd1:	010002        	l8ui	a0, a0, 1
    4dd4:	090203        	lsi	f0, a2, 36
    4dd7:	010003        	lsi	f0, a0, 4
    4dda:	090103        	lsi	f0, a1, 36
    4ddd:	010002        	l8ui	a0, a0, 1
    4de0:	090903        	lsi	f0, a9, 36
    4de3:	010003        	lsi	f0, a0, 4
    4de6:	090103        	lsi	f0, a1, 36
    4de9:	010003        	lsi	f0, a0, 4
    4dec:	090103        	lsi	f0, a1, 36
    4def:	010002        	l8ui	a0, a0, 1
    4df2:	090103        	lsi	f0, a1, 36
    4df5:	010002        	l8ui	a0, a0, 1
    4df8:	090103        	lsi	f0, a1, 36
    4dfb:	010002        	l8ui	a0, a0, 1
    4dfe:	090103        	lsi	f0, a1, 36
    4e01:	010003        	lsi	f0, a0, 4
    4e04:	090103        	lsi	f0, a1, 36
    4e07:	010002        	l8ui	a0, a0, 1
    4e0a:	090103        	lsi	f0, a1, 36
    4e0d:	010002        	l8ui	a0, a0, 1
    4e10:	090103        	lsi	f0, a1, 36
    4e13:	010003        	lsi	f0, a0, 4
    4e16:	090103        	lsi	f0, a1, 36
    4e19:	010003        	lsi	f0, a0, 4
    4e1c:	090103        	lsi	f0, a1, 36
    4e1f:	010003        	lsi	f0, a0, 4
    4e22:	090103        	lsi	f0, a1, 36
    4e25:	010003        	lsi	f0, a0, 4
    4e28:	090103        	lsi	f0, a1, 36
    4e2b:	010002        	l8ui	a0, a0, 1
    4e2e:	090103        	lsi	f0, a1, 36
    4e31:	010006        	j	5235 <EXCVADDR+0x5147>
    4e34:	090103        	lsi	f0, a1, 36
    4e37:	010003        	lsi	f0, a0, 4
    4e3a:	090103        	lsi	f0, a1, 36
    4e3d:	010002        	l8ui	a0, a0, 1
    4e40:	090103        	lsi	f0, a1, 36
    4e43:	010003        	lsi	f0, a0, 4
    4e46:	090103        	lsi	f0, a1, 36
    4e49:	010006        	j	524d <EXCVADDR+0x515f>
    4e4c:	090103        	lsi	f0, a1, 36
    4e4f:	010002        	l8ui	a0, a0, 1
    4e52:	090103        	lsi	f0, a1, 36
    4e55:	010002        	l8ui	a0, a0, 1
    4e58:	090103        	lsi	f0, a1, 36
    4e5b:	010006        	j	525f <EXCVADDR+0x5171>
    4e5e:	090103        	lsi	f0, a1, 36
    4e61:	010003        	lsi	f0, a0, 4
    4e64:	090103        	lsi	f0, a1, 36
    4e67:	010003        	lsi	f0, a0, 4
    4e6a:	090103        	lsi	f0, a1, 36
    4e6d:	010002        	l8ui	a0, a0, 1
    4e70:	090103        	lsi	f0, a1, 36
    4e73:	010006        	j	5277 <EXCVADDR+0x5189>
    4e76:	090103        	lsi	f0, a1, 36
    4e79:	010006        	j	527d <EXCVADDR+0x518f>
    4e7c:	090103        	lsi	f0, a1, 36
    4e7f:	010006        	j	5283 <EXCVADDR+0x5195>
    4e82:	090103        	lsi	f0, a1, 36
    4e85:	010002        	l8ui	a0, a0, 1
    4e88:	090103        	lsi	f0, a1, 36
    4e8b:	010002        	l8ui	a0, a0, 1
    4e8e:	090103        	lsi	f0, a1, 36
    4e91:	010002        	l8ui	a0, a0, 1
    4e94:	090203        	lsi	f0, a2, 36
    4e97:	010002        	l8ui	a0, a0, 1
    4e9a:	090903        	lsi	f0, a9, 36
    4e9d:	010002        	l8ui	a0, a0, 1
    4ea0:	090103        	lsi	f0, a1, 36
    4ea3:	010003        	lsi	f0, a0, 4
    4ea6:	090103        	lsi	f0, a1, 36
    4ea9:	010003        	lsi	f0, a0, 4
    4eac:	090103        	lsi	f0, a1, 36
    4eaf:	010006        	j	52b3 <EXCVADDR+0x51c5>
    4eb2:	090103        	lsi	f0, a1, 36
    4eb5:	010006        	j	52b9 <EXCVADDR+0x51cb>
    4eb8:	090103        	lsi	f0, a1, 36
    4ebb:	010003        	lsi	f0, a0, 4
    4ebe:	090103        	lsi	f0, a1, 36
    4ec1:	010003        	lsi	f0, a0, 4
    4ec4:	090103        	lsi	f0, a1, 36
    4ec7:	010003        	lsi	f0, a0, 4
    4eca:	090103        	lsi	f0, a1, 36
    4ecd:	010006        	j	52d1 <EXCVADDR+0x51e3>
    4ed0:	090103        	lsi	f0, a1, 36
    4ed3:	010006        	j	52d7 <EXCVADDR+0x51e9>
    4ed6:	090103        	lsi	f0, a1, 36
    4ed9:	010003        	lsi	f0, a0, 4
    4edc:	090103        	lsi	f0, a1, 36
    4edf:	010003        	lsi	f0, a0, 4
    4ee2:	090103        	lsi	f0, a1, 36
    4ee5:	010002        	l8ui	a0, a0, 1
    4ee8:	090103        	lsi	f0, a1, 36
    4eeb:	010006        	j	52ef <EXCVADDR+0x5201>
    4eee:	090103        	lsi	f0, a1, 36
    4ef1:	010003        	lsi	f0, a0, 4
    4ef4:	090103        	lsi	f0, a1, 36
    4ef7:	010003        	lsi	f0, a0, 4
    4efa:	090103        	lsi	f0, a1, 36
    4efd:	010006        	j	5301 <EXCVADDR+0x5213>
    4f00:	090103        	lsi	f0, a1, 36
    4f03:	010006        	j	5307 <EXCVADDR+0x5219>
    4f06:	090103        	lsi	f0, a1, 36
    4f09:	010003        	lsi	f0, a0, 4
    4f0c:	090103        	lsi	f0, a1, 36
    4f0f:	010003        	lsi	f0, a0, 4
    4f12:	090103        	lsi	f0, a1, 36
    4f15:	010003        	lsi	f0, a0, 4
    4f18:	090103        	lsi	f0, a1, 36
    4f1b:	010006        	j	531f <EXCVADDR+0x5231>
    4f1e:	090103        	lsi	f0, a1, 36
    4f21:	010002        	l8ui	a0, a0, 1
    4f24:	090103        	lsi	f0, a1, 36
    4f27:	010002        	l8ui	a0, a0, 1
    4f2a:	090103        	lsi	f0, a1, 36
    4f2d:	010006        	j	5331 <EXCVADDR+0x5243>
    4f30:	090103        	lsi	f0, a1, 36
    4f33:	010002        	l8ui	a0, a0, 1
    4f36:	090103        	lsi	f0, a1, 36
    4f39:	010002        	l8ui	a0, a0, 1
    4f3c:	090103        	lsi	f0, a1, 36
    4f3f:	010003        	lsi	f0, a0, 4
    4f42:	090103        	lsi	f0, a1, 36
    4f45:	010006        	j	5349 <EXCVADDR+0x525b>
    4f48:	090103        	lsi	f0, a1, 36
    4f4b:	010003        	lsi	f0, a0, 4
    4f4e:	090103        	lsi	f0, a1, 36
    4f51:	010003        	lsi	f0, a0, 4
    4f54:	090103        	lsi	f0, a1, 36
    4f57:	010003        	lsi	f0, a0, 4
    4f5a:	090103        	lsi	f0, a1, 36
    4f5d:	010006        	j	5361 <EXCVADDR+0x5273>
    4f60:	090103        	lsi	f0, a1, 36
    4f63:	010003        	lsi	f0, a0, 4
    4f66:	090103        	lsi	f0, a1, 36
    4f69:	010003        	lsi	f0, a0, 4
    4f6c:	090103        	lsi	f0, a1, 36
    4f6f:	010006        	j	5373 <EXCVADDR+0x5285>
    4f72:	090103        	lsi	f0, a1, 36
    4f75:	010003        	lsi	f0, a0, 4
    4f78:	090103        	lsi	f0, a1, 36
    4f7b:	010003        	lsi	f0, a0, 4
    4f7e:	090103        	lsi	f0, a1, 36
    4f81:	010002        	l8ui	a0, a0, 1
    4f84:	090103        	lsi	f0, a1, 36
    4f87:	010002        	l8ui	a0, a0, 1
    4f8a:	090103        	lsi	f0, a1, 36
    4f8d:	010006        	j	5391 <EXCVADDR+0x52a3>
    4f90:	090203        	lsi	f0, a2, 36
    4f93:	010004        	lsi	f0, a0, 4
    4f96:	090103        	lsi	f0, a1, 36
    4f99:	010006        	j	539d <EXCVADDR+0x52af>
    4f9c:	090103        	lsi	f0, a1, 36
    4f9f:	010003        	lsi	f0, a0, 4
    4fa2:	090103        	lsi	f0, a1, 36
    4fa5:	010003        	lsi	f0, a0, 4
    4fa8:	090103        	lsi	f0, a1, 36
    4fab:	010002        	l8ui	a0, a0, 1
    4fae:	090103        	lsi	f0, a1, 36
    4fb1:	010002        	l8ui	a0, a0, 1
    4fb4:	090203        	lsi	f0, a2, 36
    4fb7:	010006        	j	53bb <EXCVADDR+0x52cd>
    4fba:	090103        	lsi	f0, a1, 36
    4fbd:	010002        	l8ui	a0, a0, 1
    4fc0:	090903        	lsi	f0, a9, 36
    4fc3:	010004        	lsi	f0, a0, 4
    4fc6:	090103        	lsi	f0, a1, 36
    4fc9:	010003        	lsi	f0, a0, 4
    4fcc:	090103        	lsi	f0, a1, 36
    4fcf:	010003        	lsi	f0, a0, 4
    4fd2:	090103        	lsi	f0, a1, 36
    4fd5:	010002        	l8ui	a0, a0, 1
    4fd8:	090103        	lsi	f0, a1, 36
    4fdb:	010002        	l8ui	a0, a0, 1
    4fde:	090103        	lsi	f0, a1, 36
    4fe1:	010002        	l8ui	a0, a0, 1
    4fe4:	090103        	lsi	f0, a1, 36
    4fe7:	010002        	l8ui	a0, a0, 1
    4fea:	090103        	lsi	f0, a1, 36
    4fed:	010002        	l8ui	a0, a0, 1
    4ff0:	090103        	lsi	f0, a1, 36
    4ff3:	010002        	l8ui	a0, a0, 1
    4ff6:	0209      	s32i.n	a0, a2, 0
    4ff8:	010000        	slli	a0, a0, 32
    4ffb:	050001        	l32r	a0, fffc63fc <_etext+0xbff42768>
    4ffe:	3c6c02        	s32i	a0, a12, 240
    5001:	4008      	l32i.n	a0, a0, 16
    5003:	02a203        	lsi	f0, a2, 8
    5006:	010301        	l32r	a0, fffc5414 <_etext+0xbff41780>
    5009:	0309      	s32i.n	a0, a3, 0
    500b:	030100        	rsr.lend	a0
    500e:	030901        	l32r	a0, fffc5c34 <_etext+0xbff41fa0>
    5011:	030100        	rsr.lend	a0
    5014:	060901        	l32r	a0, fffc6838 <_etext+0xbff42ba4>
    5017:	090100        	l32e	a0, a1, -64
    501a:	000004        	lsi	f0, a0, 0
    501d:	090101        	l32r	a0, fffc7424 <_etext+0xbff43790>
    5020:	000d      	mov.n	a0, a0
    5022:	000200        	lsi	f0, a2, 0
    5025:	000022        	l8ui	a2, a0, 0
    5028:	010100        	slli	a0, a1, 32
    502b:	0efb      	addi.n	a0, a14, 15
    502d:	000d      	mov.n	a0, a0
    502f:	010101        	l32r	a0, fffc5434 <_etext+0xbff417a0>
    5032:	000001        	l32r	a0, fffc5034 <_etext+0xbff413a0>
    5035:	000100        	lsi	f0, a1, 0
    5038:	620100        	lsi	f0, a1, 0x188
    503b:	6c6975        	call12	716d0 <EXCVADDR+0x715e2>
    503e:	000064        	lsi	f6, a0, 0
    5041:	4f          	.byte 0x4f
    5042:	2e7475        	call12	33788 <EXCVADDR+0x3369a>
    5045:	010053        	lsi	f5, a0, 4
    5048:	000000        	ill
    504b:	020500        	andb	b0, b5, b0
    504e:	2e4c      	movi.n	a14, 66
    5050:	4008      	l32i.n	a0, a0, 16
    5052:	011703        	lsi	f0, a7, 4
    5055:	090103        	lsi	f0, a1, 36
    5058:	010003        	lsi	f0, a0, 4
    505b:	090103        	lsi	f0, a1, 36
    505e:	010003        	lsi	f0, a0, 4
    5061:	090103        	lsi	f0, a1, 36
    5064:	010003        	lsi	f0, a0, 4
    5067:	090103        	lsi	f0, a1, 36
    506a:	010002        	l8ui	a0, a0, 1
    506d:	090103        	lsi	f0, a1, 36
    5070:	010002        	l8ui	a0, a0, 1
    5073:	090103        	lsi	f0, a1, 36
    5076:	010002        	l8ui	a0, a0, 1
    5079:	090103        	lsi	f0, a1, 36
    507c:	010003        	lsi	f0, a0, 4
    507f:	090103        	lsi	f0, a1, 36
    5082:	010003        	lsi	f0, a0, 4
    5085:	090103        	lsi	f0, a1, 36
    5088:	010003        	lsi	f0, a0, 4
    508b:	090103        	lsi	f0, a1, 36
    508e:	010002        	l8ui	a0, a0, 1
    5091:	090103        	lsi	f0, a1, 36
    5094:	010002        	l8ui	a0, a0, 1
    5097:	090803        	lsi	f0, a8, 36
    509a:	010004        	lsi	f0, a0, 4
    509d:	090103        	lsi	f0, a1, 36
    50a0:	010003        	lsi	f0, a0, 4
    50a3:	090203        	lsi	f0, a2, 36
    50a6:	010003        	lsi	f0, a0, 4
    50a9:	090103        	lsi	f0, a1, 36
    50ac:	010003        	lsi	f0, a0, 4
    50af:	090103        	lsi	f0, a1, 36
    50b2:	010002        	l8ui	a0, a0, 1
    50b5:	090103        	lsi	f0, a1, 36
    50b8:	010002        	l8ui	a0, a0, 1
    50bb:	090103        	lsi	f0, a1, 36
    50be:	010003        	lsi	f0, a0, 4
    50c1:	090203        	lsi	f0, a2, 36
    50c4:	010003        	lsi	f0, a0, 4
    50c7:	090803        	lsi	f0, a8, 36
    50ca:	010005        	call0	60cc <EXCVADDR+0x5fde>
    50cd:	090103        	lsi	f0, a1, 36
    50d0:	010003        	lsi	f0, a0, 4
    50d3:	090103        	lsi	f0, a1, 36
    50d6:	010003        	lsi	f0, a0, 4
    50d9:	090203        	lsi	f0, a2, 36
    50dc:	010003        	lsi	f0, a0, 4
    50df:	090103        	lsi	f0, a1, 36
    50e2:	010003        	lsi	f0, a0, 4
    50e5:	090103        	lsi	f0, a1, 36
    50e8:	010002        	l8ui	a0, a0, 1
    50eb:	090103        	lsi	f0, a1, 36
    50ee:	010003        	lsi	f0, a0, 4
    50f1:	090103        	lsi	f0, a1, 36
    50f4:	010003        	lsi	f0, a0, 4
    50f7:	090203        	lsi	f0, a2, 36
    50fa:	0008      	l32i.n	a0, a0, 0
    50fc:	010301        	l32r	a0, fffc5508 <_etext+0xbff41874>
    50ff:	0309      	s32i.n	a0, a3, 0
    5101:	030100        	rsr.lend	a0
    5104:	030901        	l32r	a0, fffc5d28 <_etext+0xbff42094>
    5107:	030100        	rsr.lend	a0
    510a:	020901        	l32r	a0, fffc5930 <_etext+0xbff41c9c>
    510d:	030100        	rsr.lend	a0
    5110:	0908      	l32i.n	a0, a9, 0
    5112:	010004        	lsi	f0, a0, 4
    5115:	090103        	lsi	f0, a1, 36
    5118:	010003        	lsi	f0, a0, 4
    511b:	090103        	lsi	f0, a1, 36
    511e:	010002        	l8ui	a0, a0, 1
    5121:	090103        	lsi	f0, a1, 36
    5124:	010002        	l8ui	a0, a0, 1
    5127:	090103        	lsi	f0, a1, 36
    512a:	010003        	lsi	f0, a0, 4
    512d:	090103        	lsi	f0, a1, 36
    5130:	010002        	l8ui	a0, a0, 1
    5133:	090203        	lsi	f0, a2, 36
    5136:	010002        	l8ui	a0, a0, 1
    5139:	090103        	lsi	f0, a1, 36
    513c:	010002        	l8ui	a0, a0, 1
    513f:	090103        	lsi	f0, a1, 36
    5142:	010002        	l8ui	a0, a0, 1
    5145:	090103        	lsi	f0, a1, 36
    5148:	010003        	lsi	f0, a0, 4
    514b:	090103        	lsi	f0, a1, 36
    514e:	010002        	l8ui	a0, a0, 1
    5151:	090103        	lsi	f0, a1, 36
    5154:	010002        	l8ui	a0, a0, 1
    5157:	090103        	lsi	f0, a1, 36
    515a:	010002        	l8ui	a0, a0, 1
    515d:	090103        	lsi	f0, a1, 36
    5160:	010003        	lsi	f0, a0, 4
    5163:	090103        	lsi	f0, a1, 36
    5166:	010002        	l8ui	a0, a0, 1
    5169:	090203        	lsi	f0, a2, 36
    516c:	010003        	lsi	f0, a0, 4
    516f:	090103        	lsi	f0, a1, 36
    5172:	010002        	l8ui	a0, a0, 1
    5175:	090103        	lsi	f0, a1, 36
    5178:	010002        	l8ui	a0, a0, 1
    517b:	090103        	lsi	f0, a1, 36
    517e:	010003        	lsi	f0, a0, 4
    5181:	090103        	lsi	f0, a1, 36
    5184:	010003        	lsi	f0, a0, 4
    5187:	090103        	lsi	f0, a1, 36
    518a:	010003        	lsi	f0, a0, 4
    518d:	090103        	lsi	f0, a1, 36
    5190:	010002        	l8ui	a0, a0, 1
    5193:	090103        	lsi	f0, a1, 36
    5196:	010002        	l8ui	a0, a0, 1
    5199:	090103        	lsi	f0, a1, 36
    519c:	010002        	l8ui	a0, a0, 1
    519f:	090203        	lsi	f0, a2, 36
    51a2:	010003        	lsi	f0, a0, 4
    51a5:	090803        	lsi	f0, a8, 36
    51a8:	010003        	lsi	f0, a0, 4
    51ab:	090103        	lsi	f0, a1, 36
    51ae:	010003        	lsi	f0, a0, 4
    51b1:	090103        	lsi	f0, a1, 36
    51b4:	010002        	l8ui	a0, a0, 1
    51b7:	090103        	lsi	f0, a1, 36
    51ba:	010002        	l8ui	a0, a0, 1
    51bd:	090103        	lsi	f0, a1, 36
    51c0:	010003        	lsi	f0, a0, 4
    51c3:	090103        	lsi	f0, a1, 36
    51c6:	010002        	l8ui	a0, a0, 1
    51c9:	090103        	lsi	f0, a1, 36
    51cc:	010002        	l8ui	a0, a0, 1
    51cf:	090103        	lsi	f0, a1, 36
    51d2:	010002        	l8ui	a0, a0, 1
    51d5:	090103        	lsi	f0, a1, 36
    51d8:	010002        	l8ui	a0, a0, 1
    51db:	090103        	lsi	f0, a1, 36
    51de:	010003        	lsi	f0, a0, 4
    51e1:	090103        	lsi	f0, a1, 36
    51e4:	010002        	l8ui	a0, a0, 1
    51e7:	090103        	lsi	f0, a1, 36
    51ea:	010003        	lsi	f0, a0, 4
    51ed:	090103        	lsi	f0, a1, 36
    51f0:	010002        	l8ui	a0, a0, 1
    51f3:	090103        	lsi	f0, a1, 36
    51f6:	010002        	l8ui	a0, a0, 1
    51f9:	090103        	lsi	f0, a1, 36
    51fc:	010002        	l8ui	a0, a0, 1
    51ff:	090103        	lsi	f0, a1, 36
    5202:	010002        	l8ui	a0, a0, 1
    5205:	090203        	lsi	f0, a2, 36
    5208:	010006        	j	560c <EXCVADDR+0x551e>
    520b:	090103        	lsi	f0, a1, 36
    520e:	010002        	l8ui	a0, a0, 1
    5211:	090303        	lsi	f0, a3, 36
    5214:	010003        	lsi	f0, a0, 4
    5217:	090103        	lsi	f0, a1, 36
    521a:	010002        	l8ui	a0, a0, 1
    521d:	090103        	lsi	f0, a1, 36
    5220:	010002        	l8ui	a0, a0, 1
    5223:	090103        	lsi	f0, a1, 36
    5226:	010002        	l8ui	a0, a0, 1
    5229:	090103        	lsi	f0, a1, 36
    522c:	010002        	l8ui	a0, a0, 1
    522f:	090103        	lsi	f0, a1, 36
    5232:	010003        	lsi	f0, a0, 4
    5235:	090103        	lsi	f0, a1, 36
    5238:	010003        	lsi	f0, a0, 4
    523b:	090103        	lsi	f0, a1, 36
    523e:	010003        	lsi	f0, a0, 4
    5241:	090103        	lsi	f0, a1, 36
    5244:	010002        	l8ui	a0, a0, 1
    5247:	090103        	lsi	f0, a1, 36
    524a:	010002        	l8ui	a0, a0, 1
    524d:	090103        	lsi	f0, a1, 36
    5250:	010003        	lsi	f0, a0, 4
    5253:	090103        	lsi	f0, a1, 36
    5256:	010002        	l8ui	a0, a0, 1
    5259:	090103        	lsi	f0, a1, 36
    525c:	010002        	l8ui	a0, a0, 1
    525f:	090103        	lsi	f0, a1, 36
    5262:	010002        	l8ui	a0, a0, 1
    5265:	090103        	lsi	f0, a1, 36
    5268:	010002        	l8ui	a0, a0, 1
    526b:	090103        	lsi	f0, a1, 36
    526e:	010002        	l8ui	a0, a0, 1
    5271:	090103        	lsi	f0, a1, 36
    5274:	010002        	l8ui	a0, a0, 1
    5277:	090203        	lsi	f0, a2, 36
    527a:	010003        	lsi	f0, a0, 4
    527d:	090103        	lsi	f0, a1, 36
    5280:	010002        	l8ui	a0, a0, 1
    5283:	090103        	lsi	f0, a1, 36
    5286:	010002        	l8ui	a0, a0, 1
    5289:	090103        	lsi	f0, a1, 36
    528c:	010003        	lsi	f0, a0, 4
    528f:	090103        	lsi	f0, a1, 36
    5292:	010002        	l8ui	a0, a0, 1
    5295:	090103        	lsi	f0, a1, 36
    5298:	010003        	lsi	f0, a0, 4
    529b:	090103        	lsi	f0, a1, 36
    529e:	010002        	l8ui	a0, a0, 1
    52a1:	090103        	lsi	f0, a1, 36
    52a4:	010002        	l8ui	a0, a0, 1
    52a7:	090103        	lsi	f0, a1, 36
    52aa:	010002        	l8ui	a0, a0, 1
    52ad:	090203        	lsi	f0, a2, 36
    52b0:	010006        	j	56b4 <EXCVADDR+0x55c6>
    52b3:	090103        	lsi	f0, a1, 36
    52b6:	010002        	l8ui	a0, a0, 1
    52b9:	090103        	lsi	f0, a1, 36
    52bc:	010002        	l8ui	a0, a0, 1
    52bf:	090103        	lsi	f0, a1, 36
    52c2:	010003        	lsi	f0, a0, 4
    52c5:	090103        	lsi	f0, a1, 36
    52c8:	010002        	l8ui	a0, a0, 1
    52cb:	090303        	lsi	f0, a3, 36
    52ce:	010003        	lsi	f0, a0, 4
    52d1:	090103        	lsi	f0, a1, 36
    52d4:	010002        	l8ui	a0, a0, 1
    52d7:	090103        	lsi	f0, a1, 36
    52da:	010002        	l8ui	a0, a0, 1
    52dd:	090103        	lsi	f0, a1, 36
    52e0:	010002        	l8ui	a0, a0, 1
    52e3:	090103        	lsi	f0, a1, 36
    52e6:	010002        	l8ui	a0, a0, 1
    52e9:	090103        	lsi	f0, a1, 36
    52ec:	010002        	l8ui	a0, a0, 1
    52ef:	090103        	lsi	f0, a1, 36
    52f2:	010003        	lsi	f0, a0, 4
    52f5:	090103        	lsi	f0, a1, 36
    52f8:	010003        	lsi	f0, a0, 4
    52fb:	090103        	lsi	f0, a1, 36
    52fe:	010002        	l8ui	a0, a0, 1
    5301:	090103        	lsi	f0, a1, 36
    5304:	010002        	l8ui	a0, a0, 1
    5307:	090103        	lsi	f0, a1, 36
    530a:	010003        	lsi	f0, a0, 4
    530d:	090803        	lsi	f0, a8, 36
    5310:	010005        	call0	6314 <EXCVADDR+0x6226>
    5313:	090103        	lsi	f0, a1, 36
    5316:	010003        	lsi	f0, a0, 4
    5319:	090103        	lsi	f0, a1, 36
    531c:	010002        	l8ui	a0, a0, 1
    531f:	090103        	lsi	f0, a1, 36
    5322:	010002        	l8ui	a0, a0, 1
    5325:	090103        	lsi	f0, a1, 36
    5328:	010003        	lsi	f0, a0, 4
    532b:	090103        	lsi	f0, a1, 36
    532e:	010002        	l8ui	a0, a0, 1
    5331:	090203        	lsi	f0, a2, 36
    5334:	010002        	l8ui	a0, a0, 1
    5337:	090103        	lsi	f0, a1, 36
    533a:	010002        	l8ui	a0, a0, 1
    533d:	090103        	lsi	f0, a1, 36
    5340:	010002        	l8ui	a0, a0, 1
    5343:	090103        	lsi	f0, a1, 36
    5346:	010003        	lsi	f0, a0, 4
    5349:	090103        	lsi	f0, a1, 36
    534c:	010002        	l8ui	a0, a0, 1
    534f:	090103        	lsi	f0, a1, 36
    5352:	010002        	l8ui	a0, a0, 1
    5355:	090103        	lsi	f0, a1, 36
    5358:	010002        	l8ui	a0, a0, 1
    535b:	090103        	lsi	f0, a1, 36
    535e:	010003        	lsi	f0, a0, 4
    5361:	090103        	lsi	f0, a1, 36
    5364:	010002        	l8ui	a0, a0, 1
    5367:	090103        	lsi	f0, a1, 36
    536a:	010002        	l8ui	a0, a0, 1
    536d:	090103        	lsi	f0, a1, 36
    5370:	010002        	l8ui	a0, a0, 1
    5373:	090103        	lsi	f0, a1, 36
    5376:	010003        	lsi	f0, a0, 4
    5379:	090103        	lsi	f0, a1, 36
    537c:	010003        	lsi	f0, a0, 4
    537f:	090203        	lsi	f0, a2, 36
    5382:	010006        	j	5786 <EXCVADDR+0x5698>
    5385:	090103        	lsi	f0, a1, 36
    5388:	010002        	l8ui	a0, a0, 1
    538b:	090103        	lsi	f0, a1, 36
    538e:	010002        	l8ui	a0, a0, 1
    5391:	090103        	lsi	f0, a1, 36
    5394:	010002        	l8ui	a0, a0, 1
    5397:	090103        	lsi	f0, a1, 36
    539a:	010003        	lsi	f0, a0, 4
    539d:	090203        	lsi	f0, a2, 36
    53a0:	010003        	lsi	f0, a0, 4
    53a3:	090103        	lsi	f0, a1, 36
    53a6:	010002        	l8ui	a0, a0, 1
    53a9:	090103        	lsi	f0, a1, 36
    53ac:	010003        	lsi	f0, a0, 4
    53af:	090103        	lsi	f0, a1, 36
    53b2:	010002        	l8ui	a0, a0, 1
    53b5:	090103        	lsi	f0, a1, 36
    53b8:	010002        	l8ui	a0, a0, 1
    53bb:	090103        	lsi	f0, a1, 36
    53be:	010002        	l8ui	a0, a0, 1
    53c1:	090103        	lsi	f0, a1, 36
    53c4:	010002        	l8ui	a0, a0, 1
    53c7:	090103        	lsi	f0, a1, 36
    53ca:	010002        	l8ui	a0, a0, 1
    53cd:	090103        	lsi	f0, a1, 36
    53d0:	010002        	l8ui	a0, a0, 1
    53d3:	090203        	lsi	f0, a2, 36
    53d6:	010003        	lsi	f0, a0, 4
    53d9:	090103        	lsi	f0, a1, 36
    53dc:	010002        	l8ui	a0, a0, 1
    53df:	090103        	lsi	f0, a1, 36
    53e2:	010002        	l8ui	a0, a0, 1
    53e5:	090103        	lsi	f0, a1, 36
    53e8:	010003        	lsi	f0, a0, 4
    53eb:	090103        	lsi	f0, a1, 36
    53ee:	010002        	l8ui	a0, a0, 1
    53f1:	090103        	lsi	f0, a1, 36
    53f4:	010003        	lsi	f0, a0, 4
    53f7:	090103        	lsi	f0, a1, 36
    53fa:	010002        	l8ui	a0, a0, 1
    53fd:	090103        	lsi	f0, a1, 36
    5400:	010002        	l8ui	a0, a0, 1
    5403:	090103        	lsi	f0, a1, 36
    5406:	010002        	l8ui	a0, a0, 1
    5409:	090303        	lsi	f0, a3, 36
    540c:	010006        	j	5810 <EXCVADDR+0x5722>
    540f:	090103        	lsi	f0, a1, 36
    5412:	010002        	l8ui	a0, a0, 1
    5415:	090103        	lsi	f0, a1, 36
    5418:	010002        	l8ui	a0, a0, 1
    541b:	090103        	lsi	f0, a1, 36
    541e:	010002        	l8ui	a0, a0, 1
    5421:	090103        	lsi	f0, a1, 36
    5424:	010002        	l8ui	a0, a0, 1
    5427:	090103        	lsi	f0, a1, 36
    542a:	010002        	l8ui	a0, a0, 1
    542d:	090103        	lsi	f0, a1, 36
    5430:	010003        	lsi	f0, a0, 4
    5433:	090103        	lsi	f0, a1, 36
    5436:	010003        	lsi	f0, a0, 4
    5439:	090103        	lsi	f0, a1, 36
    543c:	010002        	l8ui	a0, a0, 1
    543f:	090103        	lsi	f0, a1, 36
    5442:	010002        	l8ui	a0, a0, 1
    5445:	090103        	lsi	f0, a1, 36
    5448:	010003        	lsi	f0, a0, 4
    544b:	090503        	lsi	f0, a5, 36
    544e:	0009      	s32i.n	a0, a0, 0
    5450:	010301        	l32r	a0, fffc585c <_etext+0xbff41bc8>
    5453:	0309      	s32i.n	a0, a3, 0
    5455:	030100        	rsr.lend	a0
    5458:	020901        	l32r	a0, fffc5c7c <_etext+0xbff41fe8>
    545b:	030100        	rsr.lend	a0
    545e:	030901        	l32r	a0, fffc6084 <_etext+0xbff423f0>
    5461:	030100        	rsr.lend	a0
    5464:	030901        	l32r	a0, fffc6088 <_etext+0xbff423f4>
    5467:	030100        	rsr.lend	a0
    546a:	020901        	l32r	a0, fffc5c90 <_etext+0xbff41ffc>
    546d:	030100        	rsr.lend	a0
    5470:	030901        	l32r	a0, fffc6094 <_etext+0xbff42400>
    5473:	030100        	rsr.lend	a0
    5476:	020902        	l8ui	a0, a9, 2
    5479:	030100        	rsr.lend	a0
    547c:	020901        	l32r	a0, fffc5ca0 <_etext+0xbff4200c>
    547f:	030100        	rsr.lend	a0
    5482:	020901        	l32r	a0, fffc5ca8 <_etext+0xbff42014>
    5485:	030100        	rsr.lend	a0
    5488:	030901        	l32r	a0, fffc60ac <_etext+0xbff42418>
    548b:	030100        	rsr.lend	a0
    548e:	020901        	l32r	a0, fffc5cb4 <_etext+0xbff42020>
    5491:	030100        	rsr.lend	a0
    5494:	020901        	l32r	a0, fffc5cb8 <_etext+0xbff42024>
    5497:	030100        	rsr.lend	a0
    549a:	030901        	l32r	a0, fffc60c0 <_etext+0xbff4242c>
    549d:	030100        	rsr.lend	a0
    54a0:	020901        	l32r	a0, fffc5cc4 <_etext+0xbff42030>
    54a3:	030100        	rsr.lend	a0
    54a6:	020901        	l32r	a0, fffc5ccc <_etext+0xbff42038>
    54a9:	030100        	rsr.lend	a0
    54ac:	020901        	l32r	a0, fffc5cd0 <_etext+0xbff4203c>
    54af:	030100        	rsr.lend	a0
    54b2:	030901        	l32r	a0, fffc60d8 <_etext+0xbff42444>
    54b5:	030100        	rsr.lend	a0
    54b8:	030901        	l32r	a0, fffc60dc <_etext+0xbff42448>
    54bb:	030100        	rsr.lend	a0
    54be:	030901        	l32r	a0, fffc60e4 <_etext+0xbff42450>
    54c1:	030100        	rsr.lend	a0
    54c4:	030901        	l32r	a0, fffc60e8 <_etext+0xbff42454>
    54c7:	030100        	rsr.lend	a0
    54ca:	020902        	l8ui	a0, a9, 2
    54cd:	030100        	rsr.lend	a0
    54d0:	020901        	l32r	a0, fffc5cf4 <_etext+0xbff42060>
    54d3:	030100        	rsr.lend	a0
    54d6:	020901        	l32r	a0, fffc5cfc <_etext+0xbff42068>
    54d9:	030100        	rsr.lend	a0
    54dc:	030901        	l32r	a0, fffc6100 <_etext+0xbff4246c>
    54df:	030100        	rsr.lend	a0
    54e2:	030901        	l32r	a0, fffc6108 <_etext+0xbff42474>
    54e5:	030100        	rsr.lend	a0
    54e8:	030901        	l32r	a0, fffc610c <_etext+0xbff42478>
    54eb:	030100        	rsr.lend	a0
    54ee:	030901        	l32r	a0, fffc6114 <_etext+0xbff42480>
    54f1:	030100        	rsr.lend	a0
    54f4:	020901        	l32r	a0, fffc5d18 <_etext+0xbff42084>
    54f7:	030100        	rsr.lend	a0
    54fa:	020901        	l32r	a0, fffc5d20 <_etext+0xbff4208c>
    54fd:	030100        	rsr.lend	a0
    5500:	030901        	l32r	a0, fffc6124 <_etext+0xbff42490>
    5503:	030100        	rsr.lend	a0
    5506:	020901        	l32r	a0, fffc5d2c <_etext+0xbff42098>
    5509:	030100        	rsr.lend	a0
    550c:	030902        	l8ui	a0, a9, 3
    550f:	030100        	rsr.lend	a0
    5512:	020901        	l32r	a0, fffc5d38 <_etext+0xbff420a4>
    5515:	030100        	rsr.lend	a0
    5518:	0908      	l32i.n	a0, a9, 0
    551a:	010006        	j	591e <EXCVADDR+0x5830>
    551d:	090103        	lsi	f0, a1, 36
    5520:	010003        	lsi	f0, a0, 4
    5523:	090103        	lsi	f0, a1, 36
    5526:	010002        	l8ui	a0, a0, 1
    5529:	090103        	lsi	f0, a1, 36
    552c:	010002        	l8ui	a0, a0, 1
    552f:	090103        	lsi	f0, a1, 36
    5532:	010003        	lsi	f0, a0, 4
    5535:	090103        	lsi	f0, a1, 36
    5538:	010002        	l8ui	a0, a0, 1
    553b:	090103        	lsi	f0, a1, 36
    553e:	010003        	lsi	f0, a0, 4
    5541:	090103        	lsi	f0, a1, 36
    5544:	010003        	lsi	f0, a0, 4
    5547:	090103        	lsi	f0, a1, 36
    554a:	010003        	lsi	f0, a0, 4
    554d:	090103        	lsi	f0, a1, 36
    5550:	010002        	l8ui	a0, a0, 1
    5553:	090103        	lsi	f0, a1, 36
    5556:	010002        	l8ui	a0, a0, 1
    5559:	090103        	lsi	f0, a1, 36
    555c:	010002        	l8ui	a0, a0, 1
    555f:	090103        	lsi	f0, a1, 36
    5562:	010003        	lsi	f0, a0, 4
    5565:	090103        	lsi	f0, a1, 36
    5568:	010003        	lsi	f0, a0, 4
    556b:	090103        	lsi	f0, a1, 36
    556e:	010002        	l8ui	a0, a0, 1
    5571:	090203        	lsi	f0, a2, 36
    5574:	010003        	lsi	f0, a0, 4
    5577:	090103        	lsi	f0, a1, 36
    557a:	010002        	l8ui	a0, a0, 1
    557d:	090103        	lsi	f0, a1, 36
    5580:	010002        	l8ui	a0, a0, 1
    5583:	090103        	lsi	f0, a1, 36
    5586:	010003        	lsi	f0, a0, 4
    5589:	090103        	lsi	f0, a1, 36
    558c:	010002        	l8ui	a0, a0, 1
    558f:	090103        	lsi	f0, a1, 36
    5592:	010003        	lsi	f0, a0, 4
    5595:	090103        	lsi	f0, a1, 36
    5598:	010002        	l8ui	a0, a0, 1
    559b:	090103        	lsi	f0, a1, 36
    559e:	010002        	l8ui	a0, a0, 1
    55a1:	090103        	lsi	f0, a1, 36
    55a4:	010002        	l8ui	a0, a0, 1
    55a7:	090203        	lsi	f0, a2, 36
    55aa:	010003        	lsi	f0, a0, 4
    55ad:	090203        	lsi	f0, a2, 36
    55b0:	010005        	call0	65b4 <EXCVADDR+0x64c6>
    55b3:	090103        	lsi	f0, a1, 36
    55b6:	010002        	l8ui	a0, a0, 1
    55b9:	090103        	lsi	f0, a1, 36
    55bc:	010003        	lsi	f0, a0, 4
    55bf:	090103        	lsi	f0, a1, 36
    55c2:	010003        	lsi	f0, a0, 4
    55c5:	090103        	lsi	f0, a1, 36
    55c8:	010003        	lsi	f0, a0, 4
    55cb:	090103        	lsi	f0, a1, 36
    55ce:	010003        	lsi	f0, a0, 4
    55d1:	090103        	lsi	f0, a1, 36
    55d4:	010003        	lsi	f0, a0, 4
    55d7:	090103        	lsi	f0, a1, 36
    55da:	010003        	lsi	f0, a0, 4
    55dd:	090203        	lsi	f0, a2, 36
    55e0:	010004        	lsi	f0, a0, 4
    55e3:	090103        	lsi	f0, a1, 36
    55e6:	010002        	l8ui	a0, a0, 1
    55e9:	090203        	lsi	f0, a2, 36
    55ec:	010003        	lsi	f0, a0, 4
    55ef:	090103        	lsi	f0, a1, 36
    55f2:	010002        	l8ui	a0, a0, 1
    55f5:	090103        	lsi	f0, a1, 36
    55f8:	010002        	l8ui	a0, a0, 1
    55fb:	090103        	lsi	f0, a1, 36
    55fe:	010003        	lsi	f0, a0, 4
    5601:	090103        	lsi	f0, a1, 36
    5604:	010002        	l8ui	a0, a0, 1
    5607:	090103        	lsi	f0, a1, 36
    560a:	010002        	l8ui	a0, a0, 1
    560d:	090103        	lsi	f0, a1, 36
    5610:	010002        	l8ui	a0, a0, 1
    5613:	090103        	lsi	f0, a1, 36
    5616:	010003        	lsi	f0, a0, 4
    5619:	090103        	lsi	f0, a1, 36
    561c:	010003        	lsi	f0, a0, 4
    561f:	090203        	lsi	f0, a2, 36
    5622:	010004        	lsi	f0, a0, 4
    5625:	090103        	lsi	f0, a1, 36
    5628:	010002        	l8ui	a0, a0, 1
    562b:	090103        	lsi	f0, a1, 36
    562e:	010002        	l8ui	a0, a0, 1
    5631:	090103        	lsi	f0, a1, 36
    5634:	010003        	lsi	f0, a0, 4
    5637:	090103        	lsi	f0, a1, 36
    563a:	010002        	l8ui	a0, a0, 1
    563d:	090103        	lsi	f0, a1, 36
    5640:	010003        	lsi	f0, a0, 4
    5643:	090103        	lsi	f0, a1, 36
    5646:	010002        	l8ui	a0, a0, 1
    5649:	090103        	lsi	f0, a1, 36
    564c:	010003        	lsi	f0, a0, 4
    564f:	090103        	lsi	f0, a1, 36
    5652:	010003        	lsi	f0, a0, 4
    5655:	090103        	lsi	f0, a1, 36
    5658:	010003        	lsi	f0, a0, 4
    565b:	090103        	lsi	f0, a1, 36
    565e:	010002        	l8ui	a0, a0, 1
    5661:	090203        	lsi	f0, a2, 36
    5664:	010003        	lsi	f0, a0, 4
    5667:	090103        	lsi	f0, a1, 36
    566a:	010002        	l8ui	a0, a0, 1
    566d:	090203        	lsi	f0, a2, 36
    5670:	010003        	lsi	f0, a0, 4
    5673:	090103        	lsi	f0, a1, 36
    5676:	010002        	l8ui	a0, a0, 1
    5679:	090103        	lsi	f0, a1, 36
    567c:	010003        	lsi	f0, a0, 4
    567f:	090103        	lsi	f0, a1, 36
    5682:	010002        	l8ui	a0, a0, 1
    5685:	090103        	lsi	f0, a1, 36
    5688:	010003        	lsi	f0, a0, 4
    568b:	090103        	lsi	f0, a1, 36
    568e:	010003        	lsi	f0, a0, 4
    5691:	090103        	lsi	f0, a1, 36
    5694:	010003        	lsi	f0, a0, 4
    5697:	090103        	lsi	f0, a1, 36
    569a:	010002        	l8ui	a0, a0, 1
    569d:	090103        	lsi	f0, a1, 36
    56a0:	010002        	l8ui	a0, a0, 1
    56a3:	090103        	lsi	f0, a1, 36
    56a6:	010003        	lsi	f0, a0, 4
    56a9:	090103        	lsi	f0, a1, 36
    56ac:	010003        	lsi	f0, a0, 4
    56af:	090103        	lsi	f0, a1, 36
    56b2:	010002        	l8ui	a0, a0, 1
    56b5:	090103        	lsi	f0, a1, 36
    56b8:	010003        	lsi	f0, a0, 4
    56bb:	090103        	lsi	f0, a1, 36
    56be:	010002        	l8ui	a0, a0, 1
    56c1:	090103        	lsi	f0, a1, 36
    56c4:	010002        	l8ui	a0, a0, 1
    56c7:	090103        	lsi	f0, a1, 36
    56ca:	010003        	lsi	f0, a0, 4
    56cd:	090103        	lsi	f0, a1, 36
    56d0:	010003        	lsi	f0, a0, 4
    56d3:	090103        	lsi	f0, a1, 36
    56d6:	010002        	l8ui	a0, a0, 1
    56d9:	090103        	lsi	f0, a1, 36
    56dc:	010006        	j	5ae0 <EXCVADDR+0x59f2>
    56df:	090103        	lsi	f0, a1, 36
    56e2:	010002        	l8ui	a0, a0, 1
    56e5:	090103        	lsi	f0, a1, 36
    56e8:	010003        	lsi	f0, a0, 4
    56eb:	090103        	lsi	f0, a1, 36
    56ee:	010002        	l8ui	a0, a0, 1
    56f1:	090203        	lsi	f0, a2, 36
    56f4:	000b      	addi.n	a0, a0, -1
    56f6:	010301        	l32r	a0, fffc5b04 <_etext+0xbff41e70>
    56f9:	0209      	s32i.n	a0, a2, 0
    56fb:	030100        	rsr.lend	a0
    56fe:	030901        	l32r	a0, fffc6324 <_etext+0xbff42690>
    5701:	030100        	rsr.lend	a0
    5704:	030901        	l32r	a0, fffc6328 <_etext+0xbff42694>
    5707:	030100        	rsr.lend	a0
    570a:	020901        	l32r	a0, fffc5f30 <_etext+0xbff4229c>
    570d:	030100        	rsr.lend	a0
    5710:	020901        	l32r	a0, fffc5f34 <_etext+0xbff422a0>
    5713:	030100        	rsr.lend	a0
    5716:	030901        	l32r	a0, fffc633c <_etext+0xbff426a8>
    5719:	030100        	rsr.lend	a0
    571c:	030901        	l32r	a0, fffc6340 <_etext+0xbff426ac>
    571f:	030100        	rsr.lend	a0
    5722:	030901        	l32r	a0, fffc6348 <_etext+0xbff426b4>
    5725:	030100        	rsr.lend	a0
    5728:	030901        	l32r	a0, fffc634c <_etext+0xbff426b8>
    572b:	030100        	rsr.lend	a0
    572e:	020902        	l8ui	a0, a9, 2
    5731:	030100        	rsr.lend	a0
    5734:	020901        	l32r	a0, fffc5f58 <_etext+0xbff422c4>
    5737:	030100        	rsr.lend	a0
    573a:	030901        	l32r	a0, fffc6360 <_etext+0xbff426cc>
    573d:	030100        	rsr.lend	a0
    5740:	030901        	l32r	a0, fffc6364 <_etext+0xbff426d0>
    5743:	030100        	rsr.lend	a0
    5746:	030901        	l32r	a0, fffc636c <_etext+0xbff426d8>
    5749:	030100        	rsr.lend	a0
    574c:	030901        	l32r	a0, fffc6370 <_etext+0xbff426dc>
    574f:	030100        	rsr.lend	a0
    5752:	030901        	l32r	a0, fffc6378 <_etext+0xbff426e4>
    5755:	030100        	rsr.lend	a0
    5758:	030901        	l32r	a0, fffc637c <_etext+0xbff426e8>
    575b:	030100        	rsr.lend	a0
    575e:	030901        	l32r	a0, fffc6384 <_etext+0xbff426f0>
    5761:	030100        	rsr.lend	a0
    5764:	020901        	l32r	a0, fffc5f88 <_etext+0xbff422f4>
    5767:	030100        	rsr.lend	a0
    576a:	020901        	l32r	a0, fffc5f90 <_etext+0xbff422fc>
    576d:	030100        	rsr.lend	a0
    5770:	030901        	l32r	a0, fffc6394 <_etext+0xbff42700>
    5773:	030100        	rsr.lend	a0
    5776:	030901        	l32r	a0, fffc639c <_etext+0xbff42708>
    5779:	030100        	rsr.lend	a0
    577c:	020901        	l32r	a0, fffc5fa0 <_etext+0xbff4230c>
    577f:	030100        	rsr.lend	a0
    5782:	020901        	l32r	a0, fffc5fa8 <_etext+0xbff42314>
    5785:	030100        	rsr.lend	a0
    5788:	020901        	l32r	a0, fffc5fac <_etext+0xbff42318>
    578b:	030100        	rsr.lend	a0
    578e:	020901        	l32r	a0, fffc5fb4 <_etext+0xbff42320>
    5791:	030100        	rsr.lend	a0
    5794:	020901        	l32r	a0, fffc5fb8 <_etext+0xbff42324>
    5797:	030100        	rsr.lend	a0
    579a:	030901        	l32r	a0, fffc63c0 <_etext+0xbff4272c>
    579d:	030100        	rsr.lend	a0
    57a0:	020902        	l8ui	a0, a9, 2
    57a3:	030100        	rsr.lend	a0
    57a6:	020901        	l32r	a0, fffc5fcc <_etext+0xbff42338>
    57a9:	030100        	rsr.lend	a0
    57ac:	020901        	l32r	a0, fffc5fd0 <_etext+0xbff4233c>
    57af:	030100        	rsr.lend	a0
    57b2:	020901        	l32r	a0, fffc5fd8 <_etext+0xbff42344>
    57b5:	030100        	rsr.lend	a0
    57b8:	020901        	l32r	a0, fffc5fdc <_etext+0xbff42348>
    57bb:	030100        	rsr.lend	a0
    57be:	030901        	l32r	a0, fffc63e4 <_etext+0xbff42750>
    57c1:	030100        	rsr.lend	a0
    57c4:	030902        	l8ui	a0, a9, 3
    57c7:	030100        	rsr.lend	a0
    57ca:	020901        	l32r	a0, fffc5ff0 <_etext+0xbff4235c>
    57cd:	030100        	rsr.lend	a0
    57d0:	020901        	l32r	a0, fffc5ff4 <_etext+0xbff42360>
    57d3:	030100        	rsr.lend	a0
    57d6:	030901        	l32r	a0, fffc63fc <_etext+0xbff42768>
    57d9:	030100        	rsr.lend	a0
    57dc:	020901        	l32r	a0, fffc6000 <_etext+0xbff4236c>
    57df:	030100        	rsr.lend	a0
    57e2:	020901        	l32r	a0, fffc6008 <_etext+0xbff42374>
    57e5:	030100        	rsr.lend	a0
    57e8:	020902        	l8ui	a0, a9, 2
    57eb:	030100        	rsr.lend	a0
    57ee:	020901        	l32r	a0, fffc6014 <_etext+0xbff42380>
    57f1:	030100        	rsr.lend	a0
    57f4:	020901        	l32r	a0, fffc6018 <_etext+0xbff42384>
    57f7:	030100        	rsr.lend	a0
    57fa:	020901        	l32r	a0, fffc6020 <_etext+0xbff4238c>
    57fd:	030100        	rsr.lend	a0
    5800:	020901        	l32r	a0, fffc6024 <_etext+0xbff42390>
    5803:	030100        	rsr.lend	a0
    5806:	030901        	l32r	a0, fffc642c <_etext+0xbff42798>
    5809:	030100        	rsr.lend	a0
    580c:	030901        	l32r	a0, fffc6430 <_etext+0xbff4279c>
    580f:	030100        	rsr.lend	a0
    5812:	030901        	l32r	a0, fffc6438 <_etext+0xbff427a4>
    5815:	030100        	rsr.lend	a0
    5818:	020901        	l32r	a0, fffc603c <_etext+0xbff423a8>
    581b:	030100        	rsr.lend	a0
    581e:	020901        	l32r	a0, fffc6044 <_etext+0xbff423b0>
    5821:	030100        	rsr.lend	a0
    5824:	030901        	l32r	a0, fffc6448 <_etext+0xbff427b4>
    5827:	030100        	rsr.lend	a0
    582a:	020901        	l32r	a0, fffc6050 <_etext+0xbff423bc>
    582d:	030100        	rsr.lend	a0
    5830:	020901        	l32r	a0, fffc6054 <_etext+0xbff423c0>
    5833:	030100        	rsr.lend	a0
    5836:	020901        	l32r	a0, fffc605c <_etext+0xbff423c8>
    5839:	030100        	rsr.lend	a0
    583c:	020901        	l32r	a0, fffc6060 <_etext+0xbff423cc>
    583f:	030100        	rsr.lend	a0
    5842:	020901        	l32r	a0, fffc6068 <_etext+0xbff423d4>
    5845:	030100        	rsr.lend	a0
    5848:	020901        	l32r	a0, fffc606c <_etext+0xbff423d8>
    584b:	030100        	rsr.lend	a0
    584e:	030901        	l32r	a0, fffc6474 <_etext+0xbff427e0>
    5851:	030100        	rsr.lend	a0
    5854:	020901        	l32r	a0, fffc6078 <_etext+0xbff423e4>
    5857:	030100        	rsr.lend	a0
    585a:	020901        	l32r	a0, fffc6080 <_etext+0xbff423ec>
    585d:	030100        	rsr.lend	a0
    5860:	020901        	l32r	a0, fffc6084 <_etext+0xbff423f0>
    5863:	030100        	rsr.lend	a0
    5866:	020901        	l32r	a0, fffc608c <_etext+0xbff423f8>
    5869:	030100        	rsr.lend	a0
    586c:	020901        	l32r	a0, fffc6090 <_etext+0xbff423fc>
    586f:	030100        	rsr.lend	a0
    5872:	030901        	l32r	a0, fffc6498 <_etext+0xbff42804>
    5875:	030100        	rsr.lend	a0
    5878:	030901        	l32r	a0, fffc649c <_etext+0xbff42808>
    587b:	030100        	rsr.lend	a0
    587e:	020901        	l32r	a0, fffc60a4 <_etext+0xbff42410>
    5881:	030100        	rsr.lend	a0
    5884:	030901        	l32r	a0, fffc64a8 <_etext+0xbff42814>
    5887:	030100        	rsr.lend	a0
    588a:	020901        	l32r	a0, fffc60b0 <_etext+0xbff4241c>
    588d:	030100        	rsr.lend	a0
    5890:	030901        	l32r	a0, fffc64b4 <_etext+0xbff42820>
    5893:	030100        	rsr.lend	a0
    5896:	020901        	l32r	a0, fffc60bc <_etext+0xbff42428>
    5899:	030100        	rsr.lend	a0
    589c:	030901        	l32r	a0, fffc64c0 <_etext+0xbff4282c>
    589f:	030100        	rsr.lend	a0
    58a2:	020901        	l32r	a0, fffc60c8 <_etext+0xbff42434>
    58a5:	030100        	rsr.lend	a0
    58a8:	020901        	l32r	a0, fffc60cc <_etext+0xbff42438>
    58ab:	030100        	rsr.lend	a0
    58ae:	050902        	l8ui	a0, a9, 5
    58b1:	030100        	rsr.lend	a0
    58b4:	020901        	l32r	a0, fffc60d8 <_etext+0xbff42444>
    58b7:	030100        	rsr.lend	a0
    58ba:	020901        	l32r	a0, fffc60e0 <_etext+0xbff4244c>
    58bd:	030100        	rsr.lend	a0
    58c0:	030901        	l32r	a0, fffc64e4 <_etext+0xbff42850>
    58c3:	030100        	rsr.lend	a0
    58c6:	020903        	lsi	f0, a9, 8
    58c9:	030100        	rsr.lend	a0
    58cc:	020901        	l32r	a0, fffc60f0 <_etext+0xbff4245c>
    58cf:	030100        	rsr.lend	a0
    58d2:	020901        	l32r	a0, fffc60f8 <_etext+0xbff42464>
    58d5:	030100        	rsr.lend	a0
    58d8:	030901        	l32r	a0, fffc64fc <_etext+0xbff42868>
    58db:	030100        	rsr.lend	a0
    58de:	020901        	l32r	a0, fffc6104 <_etext+0xbff42470>
    58e1:	030100        	rsr.lend	a0
    58e4:	020901        	l32r	a0, fffc6108 <_etext+0xbff42474>
    58e7:	030100        	rsr.lend	a0
    58ea:	020901        	l32r	a0, fffc6110 <_etext+0xbff4247c>
    58ed:	030100        	rsr.lend	a0
    58f0:	020901        	l32r	a0, fffc6114 <_etext+0xbff42480>
    58f3:	030100        	rsr.lend	a0
    58f6:	020901        	l32r	a0, fffc611c <_etext+0xbff42488>
    58f9:	030100        	rsr.lend	a0
    58fc:	030901        	l32r	a0, fffc6520 <_etext+0xbff4288c>
    58ff:	030100        	rsr.lend	a0
    5902:	030901        	l32r	a0, fffc6528 <_etext+0xbff42894>
    5905:	030100        	rsr.lend	a0
    5908:	040902        	l8ui	a0, a9, 4
    590b:	030100        	rsr.lend	a0
    590e:	020901        	l32r	a0, fffc6134 <_etext+0xbff424a0>
    5911:	030100        	rsr.lend	a0
    5914:	030901        	l32r	a0, fffc6538 <_etext+0xbff428a4>
    5917:	030100        	rsr.lend	a0
    591a:	020901        	l32r	a0, fffc6140 <_etext+0xbff424ac>
    591d:	030100        	rsr.lend	a0
    5920:	020901        	l32r	a0, fffc6144 <_etext+0xbff424b0>
    5923:	030100        	rsr.lend	a0
    5926:	020901        	l32r	a0, fffc614c <_etext+0xbff424b8>
    5929:	030100        	rsr.lend	a0
    592c:	020901        	l32r	a0, fffc6150 <_etext+0xbff424bc>
    592f:	030100        	rsr.lend	a0
    5932:	020901        	l32r	a0, fffc6158 <_etext+0xbff424c4>
    5935:	030100        	rsr.lend	a0
    5938:	030901        	l32r	a0, fffc655c <_etext+0xbff428c8>
    593b:	030100        	rsr.lend	a0
    593e:	030901        	l32r	a0, fffc6564 <_etext+0xbff428d0>
    5941:	030100        	rsr.lend	a0
    5944:	030901        	l32r	a0, fffc6568 <_etext+0xbff428d4>
    5947:	030100        	rsr.lend	a0
    594a:	020901        	l32r	a0, fffc6170 <_etext+0xbff424dc>
    594d:	030100        	rsr.lend	a0
    5950:	030901        	l32r	a0, fffc6574 <_etext+0xbff428e0>
    5953:	030100        	rsr.lend	a0
    5956:	020901        	l32r	a0, fffc617c <_etext+0xbff424e8>
    5959:	030100        	rsr.lend	a0
    595c:	050902        	l8ui	a0, a9, 5
    595f:	030100        	rsr.lend	a0
    5962:	020901        	l32r	a0, fffc6188 <_etext+0xbff424f4>
    5965:	030100        	rsr.lend	a0
    5968:	030902        	l8ui	a0, a9, 3
    596b:	030100        	rsr.lend	a0
    596e:	020901        	l32r	a0, fffc6194 <_etext+0xbff42500>
    5971:	030100        	rsr.lend	a0
    5974:	020901        	l32r	a0, fffc6198 <_etext+0xbff42504>
    5977:	030100        	rsr.lend	a0
    597a:	030901        	l32r	a0, fffc65a0 <_etext+0xbff4290c>
    597d:	030100        	rsr.lend	a0
    5980:	030901        	l32r	a0, fffc65a4 <_etext+0xbff42910>
    5983:	030100        	rsr.lend	a0
    5986:	030901        	l32r	a0, fffc65ac <_etext+0xbff42918>
    5989:	030100        	rsr.lend	a0
    598c:	020901        	l32r	a0, fffc61b0 <_etext+0xbff4251c>
    598f:	030100        	rsr.lend	a0
    5992:	030901        	l32r	a0, fffc65b8 <_etext+0xbff42924>
    5995:	030100        	rsr.lend	a0
    5998:	030901        	l32r	a0, fffc65bc <_etext+0xbff42928>
    599b:	030100        	rsr.lend	a0
    599e:	030901        	l32r	a0, fffc65c4 <_etext+0xbff42930>
    59a1:	030100        	rsr.lend	a0
    59a4:	030902        	l8ui	a0, a9, 3
    59a7:	030100        	rsr.lend	a0
    59aa:	0908      	l32i.n	a0, a9, 0
    59ac:	010004        	lsi	f0, a0, 4
    59af:	090103        	lsi	f0, a1, 36
    59b2:	010003        	lsi	f0, a0, 4
    59b5:	090103        	lsi	f0, a1, 36
    59b8:	010002        	l8ui	a0, a0, 1
    59bb:	090103        	lsi	f0, a1, 36
    59be:	010002        	l8ui	a0, a0, 1
    59c1:	090103        	lsi	f0, a1, 36
    59c4:	010002        	l8ui	a0, a0, 1
    59c7:	090103        	lsi	f0, a1, 36
    59ca:	010003        	lsi	f0, a0, 4
    59cd:	090103        	lsi	f0, a1, 36
    59d0:	010002        	l8ui	a0, a0, 1
    59d3:	090103        	lsi	f0, a1, 36
    59d6:	010003        	lsi	f0, a0, 4
    59d9:	090103        	lsi	f0, a1, 36
    59dc:	010003        	lsi	f0, a0, 4
    59df:	090103        	lsi	f0, a1, 36
    59e2:	010003        	lsi	f0, a0, 4
    59e5:	090103        	lsi	f0, a1, 36
    59e8:	010003        	lsi	f0, a0, 4
    59eb:	090103        	lsi	f0, a1, 36
    59ee:	010003        	lsi	f0, a0, 4
    59f1:	090103        	lsi	f0, a1, 36
    59f4:	010003        	lsi	f0, a0, 4
    59f7:	090203        	lsi	f0, a2, 36
    59fa:	010003        	lsi	f0, a0, 4
    59fd:	090103        	lsi	f0, a1, 36
    5a00:	010002        	l8ui	a0, a0, 1
    5a03:	090103        	lsi	f0, a1, 36
    5a06:	010002        	l8ui	a0, a0, 1
    5a09:	090103        	lsi	f0, a1, 36
    5a0c:	010003        	lsi	f0, a0, 4
    5a0f:	090103        	lsi	f0, a1, 36
    5a12:	010002        	l8ui	a0, a0, 1
    5a15:	090103        	lsi	f0, a1, 36
    5a18:	010003        	lsi	f0, a0, 4
    5a1b:	090103        	lsi	f0, a1, 36
    5a1e:	010003        	lsi	f0, a0, 4
    5a21:	090103        	lsi	f0, a1, 36
    5a24:	010003        	lsi	f0, a0, 4
    5a27:	090103        	lsi	f0, a1, 36
    5a2a:	010002        	l8ui	a0, a0, 1
    5a2d:	090103        	lsi	f0, a1, 36
    5a30:	010002        	l8ui	a0, a0, 1
    5a33:	090103        	lsi	f0, a1, 36
    5a36:	010003        	lsi	f0, a0, 4
    5a39:	090203        	lsi	f0, a2, 36
    5a3c:	010004        	lsi	f0, a0, 4
    5a3f:	090103        	lsi	f0, a1, 36
    5a42:	010002        	l8ui	a0, a0, 1
    5a45:	090203        	lsi	f0, a2, 36
    5a48:	010003        	lsi	f0, a0, 4
    5a4b:	090103        	lsi	f0, a1, 36
    5a4e:	010002        	l8ui	a0, a0, 1
    5a51:	090103        	lsi	f0, a1, 36
    5a54:	010002        	l8ui	a0, a0, 1
    5a57:	090103        	lsi	f0, a1, 36
    5a5a:	010003        	lsi	f0, a0, 4
    5a5d:	090103        	lsi	f0, a1, 36
    5a60:	010002        	l8ui	a0, a0, 1
    5a63:	090203        	lsi	f0, a2, 36
    5a66:	010002        	l8ui	a0, a0, 1
    5a69:	090103        	lsi	f0, a1, 36
    5a6c:	010002        	l8ui	a0, a0, 1
    5a6f:	090103        	lsi	f0, a1, 36
    5a72:	010003        	lsi	f0, a0, 4
    5a75:	090103        	lsi	f0, a1, 36
    5a78:	010002        	l8ui	a0, a0, 1
    5a7b:	090103        	lsi	f0, a1, 36
    5a7e:	010002        	l8ui	a0, a0, 1
    5a81:	090103        	lsi	f0, a1, 36
    5a84:	010003        	lsi	f0, a0, 4
    5a87:	090103        	lsi	f0, a1, 36
    5a8a:	010003        	lsi	f0, a0, 4
    5a8d:	090103        	lsi	f0, a1, 36
    5a90:	010003        	lsi	f0, a0, 4
    5a93:	090103        	lsi	f0, a1, 36
    5a96:	010003        	lsi	f0, a0, 4
    5a99:	090103        	lsi	f0, a1, 36
    5a9c:	010002        	l8ui	a0, a0, 1
    5a9f:	090103        	lsi	f0, a1, 36
    5aa2:	010002        	l8ui	a0, a0, 1
    5aa5:	090103        	lsi	f0, a1, 36
    5aa8:	010003        	lsi	f0, a0, 4
    5aab:	090103        	lsi	f0, a1, 36
    5aae:	010003        	lsi	f0, a0, 4
    5ab1:	090103        	lsi	f0, a1, 36
    5ab4:	010003        	lsi	f0, a0, 4
    5ab7:	090103        	lsi	f0, a1, 36
    5aba:	010003        	lsi	f0, a0, 4
    5abd:	090103        	lsi	f0, a1, 36
    5ac0:	010003        	lsi	f0, a0, 4
    5ac3:	090103        	lsi	f0, a1, 36
    5ac6:	010003        	lsi	f0, a0, 4
    5ac9:	090103        	lsi	f0, a1, 36
    5acc:	010003        	lsi	f0, a0, 4
    5acf:	090103        	lsi	f0, a1, 36
    5ad2:	010002        	l8ui	a0, a0, 1
    5ad5:	090103        	lsi	f0, a1, 36
    5ad8:	010002        	l8ui	a0, a0, 1
    5adb:	090203        	lsi	f0, a2, 36
    5ade:	010002        	l8ui	a0, a0, 1
    5ae1:	090103        	lsi	f0, a1, 36
    5ae4:	010002        	l8ui	a0, a0, 1
    5ae7:	090103        	lsi	f0, a1, 36
    5aea:	010002        	l8ui	a0, a0, 1
    5aed:	090103        	lsi	f0, a1, 36
    5af0:	010002        	l8ui	a0, a0, 1
    5af3:	090103        	lsi	f0, a1, 36
    5af6:	010002        	l8ui	a0, a0, 1
    5af9:	090103        	lsi	f0, a1, 36
    5afc:	010003        	lsi	f0, a0, 4
    5aff:	090103        	lsi	f0, a1, 36
    5b02:	010003        	lsi	f0, a0, 4
    5b05:	090103        	lsi	f0, a1, 36
    5b08:	010003        	lsi	f0, a0, 4
    5b0b:	090103        	lsi	f0, a1, 36
    5b0e:	010002        	l8ui	a0, a0, 1
    5b11:	090103        	lsi	f0, a1, 36
    5b14:	010002        	l8ui	a0, a0, 1
    5b17:	090103        	lsi	f0, a1, 36
    5b1a:	010003        	lsi	f0, a0, 4
    5b1d:	090103        	lsi	f0, a1, 36
    5b20:	010002        	l8ui	a0, a0, 1
    5b23:	090103        	lsi	f0, a1, 36
    5b26:	010002        	l8ui	a0, a0, 1
    5b29:	090103        	lsi	f0, a1, 36
    5b2c:	010002        	l8ui	a0, a0, 1
    5b2f:	090103        	lsi	f0, a1, 36
    5b32:	010002        	l8ui	a0, a0, 1
    5b35:	090103        	lsi	f0, a1, 36
    5b38:	010002        	l8ui	a0, a0, 1
    5b3b:	090103        	lsi	f0, a1, 36
    5b3e:	010002        	l8ui	a0, a0, 1
    5b41:	090103        	lsi	f0, a1, 36
    5b44:	010003        	lsi	f0, a0, 4
    5b47:	090103        	lsi	f0, a1, 36
    5b4a:	010002        	l8ui	a0, a0, 1
    5b4d:	090203        	lsi	f0, a2, 36
    5b50:	010003        	lsi	f0, a0, 4
    5b53:	090103        	lsi	f0, a1, 36
    5b56:	010002        	l8ui	a0, a0, 1
    5b59:	090103        	lsi	f0, a1, 36
    5b5c:	010002        	l8ui	a0, a0, 1
    5b5f:	090103        	lsi	f0, a1, 36
    5b62:	010002        	l8ui	a0, a0, 1
    5b65:	090103        	lsi	f0, a1, 36
    5b68:	010003        	lsi	f0, a0, 4
    5b6b:	090103        	lsi	f0, a1, 36
    5b6e:	010002        	l8ui	a0, a0, 1
    5b71:	090103        	lsi	f0, a1, 36
    5b74:	010003        	lsi	f0, a0, 4
    5b77:	090103        	lsi	f0, a1, 36
    5b7a:	010002        	l8ui	a0, a0, 1
    5b7d:	090103        	lsi	f0, a1, 36
    5b80:	010002        	l8ui	a0, a0, 1
    5b83:	090103        	lsi	f0, a1, 36
    5b86:	010002        	l8ui	a0, a0, 1
    5b89:	090203        	lsi	f0, a2, 36
    5b8c:	010004        	lsi	f0, a0, 4
    5b8f:	090103        	lsi	f0, a1, 36
    5b92:	010003        	lsi	f0, a0, 4
    5b95:	090103        	lsi	f0, a1, 36
    5b98:	010002        	l8ui	a0, a0, 1
    5b9b:	090103        	lsi	f0, a1, 36
    5b9e:	010002        	l8ui	a0, a0, 1
    5ba1:	090103        	lsi	f0, a1, 36
    5ba4:	010003        	lsi	f0, a0, 4
    5ba7:	090103        	lsi	f0, a1, 36
    5baa:	010002        	l8ui	a0, a0, 1
    5bad:	090103        	lsi	f0, a1, 36
    5bb0:	010002        	l8ui	a0, a0, 1
    5bb3:	090103        	lsi	f0, a1, 36
    5bb6:	010002        	l8ui	a0, a0, 1
    5bb9:	090203        	lsi	f0, a2, 36
    5bbc:	010004        	lsi	f0, a0, 4
    5bbf:	090103        	lsi	f0, a1, 36
    5bc2:	010002        	l8ui	a0, a0, 1
    5bc5:	090303        	lsi	f0, a3, 36
    5bc8:	010003        	lsi	f0, a0, 4
    5bcb:	090103        	lsi	f0, a1, 36
    5bce:	010002        	l8ui	a0, a0, 1
    5bd1:	090103        	lsi	f0, a1, 36
    5bd4:	010002        	l8ui	a0, a0, 1
    5bd7:	090103        	lsi	f0, a1, 36
    5bda:	010003        	lsi	f0, a0, 4
    5bdd:	090103        	lsi	f0, a1, 36
    5be0:	010002        	l8ui	a0, a0, 1
    5be3:	090103        	lsi	f0, a1, 36
    5be6:	010002        	l8ui	a0, a0, 1
    5be9:	090103        	lsi	f0, a1, 36
    5bec:	010002        	l8ui	a0, a0, 1
    5bef:	090103        	lsi	f0, a1, 36
    5bf2:	010002        	l8ui	a0, a0, 1
    5bf5:	090103        	lsi	f0, a1, 36
    5bf8:	010002        	l8ui	a0, a0, 1
    5bfb:	090103        	lsi	f0, a1, 36
    5bfe:	010003        	lsi	f0, a0, 4
    5c01:	090103        	lsi	f0, a1, 36
    5c04:	010003        	lsi	f0, a0, 4
    5c07:	090203        	lsi	f0, a2, 36
    5c0a:	010004        	lsi	f0, a0, 4
    5c0d:	090103        	lsi	f0, a1, 36
    5c10:	010002        	l8ui	a0, a0, 1
    5c13:	090203        	lsi	f0, a2, 36
    5c16:	010003        	lsi	f0, a0, 4
    5c19:	090103        	lsi	f0, a1, 36
    5c1c:	010002        	l8ui	a0, a0, 1
    5c1f:	090103        	lsi	f0, a1, 36
    5c22:	010002        	l8ui	a0, a0, 1
    5c25:	090103        	lsi	f0, a1, 36
    5c28:	010003        	lsi	f0, a0, 4
    5c2b:	090103        	lsi	f0, a1, 36
    5c2e:	010002        	l8ui	a0, a0, 1
    5c31:	090103        	lsi	f0, a1, 36
    5c34:	010002        	l8ui	a0, a0, 1
    5c37:	090103        	lsi	f0, a1, 36
    5c3a:	010002        	l8ui	a0, a0, 1
    5c3d:	090103        	lsi	f0, a1, 36
    5c40:	010003        	lsi	f0, a0, 4
    5c43:	090103        	lsi	f0, a1, 36
    5c46:	010003        	lsi	f0, a0, 4
    5c49:	090303        	lsi	f0, a3, 36
    5c4c:	010004        	lsi	f0, a0, 4
    5c4f:	090103        	lsi	f0, a1, 36
    5c52:	010002        	l8ui	a0, a0, 1
    5c55:	090103        	lsi	f0, a1, 36
    5c58:	010002        	l8ui	a0, a0, 1
    5c5b:	090103        	lsi	f0, a1, 36
    5c5e:	010003        	lsi	f0, a0, 4
    5c61:	090103        	lsi	f0, a1, 36
    5c64:	010002        	l8ui	a0, a0, 1
    5c67:	090103        	lsi	f0, a1, 36
    5c6a:	010002        	l8ui	a0, a0, 1
    5c6d:	090103        	lsi	f0, a1, 36
    5c70:	010002        	l8ui	a0, a0, 1
    5c73:	090103        	lsi	f0, a1, 36
    5c76:	010002        	l8ui	a0, a0, 1
    5c79:	090103        	lsi	f0, a1, 36
    5c7c:	010003        	lsi	f0, a0, 4
    5c7f:	090103        	lsi	f0, a1, 36
    5c82:	010003        	lsi	f0, a0, 4
    5c85:	090103        	lsi	f0, a1, 36
    5c88:	010003        	lsi	f0, a0, 4
    5c8b:	090303        	lsi	f0, a3, 36
    5c8e:	010003        	lsi	f0, a0, 4
    5c91:	090803        	lsi	f0, a8, 36
    5c94:	010005        	call0	6c98 <EXCVADDR+0x6baa>
    5c97:	090103        	lsi	f0, a1, 36
    5c9a:	010003        	lsi	f0, a0, 4
    5c9d:	090103        	lsi	f0, a1, 36
    5ca0:	010003        	lsi	f0, a0, 4
    5ca3:	090103        	lsi	f0, a1, 36
    5ca6:	010003        	lsi	f0, a0, 4
    5ca9:	090103        	lsi	f0, a1, 36
    5cac:	010003        	lsi	f0, a0, 4
    5caf:	090103        	lsi	f0, a1, 36
    5cb2:	010002        	l8ui	a0, a0, 1
    5cb5:	090103        	lsi	f0, a1, 36
    5cb8:	010003        	lsi	f0, a0, 4
    5cbb:	090803        	lsi	f0, a8, 36
    5cbe:	010007        	bnone	a0, a0, 5cc3 <EXCVADDR+0x5bd5>
    5cc1:	090103        	lsi	f0, a1, 36
    5cc4:	010003        	lsi	f0, a0, 4
    5cc7:	090103        	lsi	f0, a1, 36
    5cca:	010002        	l8ui	a0, a0, 1
    5ccd:	090103        	lsi	f0, a1, 36
    5cd0:	010003        	lsi	f0, a0, 4
    5cd3:	090103        	lsi	f0, a1, 36
    5cd6:	010003        	lsi	f0, a0, 4
    5cd9:	090103        	lsi	f0, a1, 36
    5cdc:	010002        	l8ui	a0, a0, 1
    5cdf:	090103        	lsi	f0, a1, 36
    5ce2:	010002        	l8ui	a0, a0, 1
    5ce5:	090803        	lsi	f0, a8, 36
    5ce8:	010005        	call0	6cec <EXCVADDR+0x6bfe>
    5ceb:	090103        	lsi	f0, a1, 36
    5cee:	010003        	lsi	f0, a0, 4
    5cf1:	090103        	lsi	f0, a1, 36
    5cf4:	010003        	lsi	f0, a0, 4
    5cf7:	090103        	lsi	f0, a1, 36
    5cfa:	010003        	lsi	f0, a0, 4
    5cfd:	090103        	lsi	f0, a1, 36
    5d00:	010003        	lsi	f0, a0, 4
    5d03:	0409      	s32i.n	a0, a4, 0
    5d05:	010000        	slli	a0, a0, 32
    5d08:	050001        	l32r	a0, fffc7108 <_etext+0xbff43474>
    5d0b:	3c7c02        	lsi	f0, a12, 240
    5d0e:	4008      	l32i.n	a0, a0, 16
    5d10:	05c103        	ssip	f0, a1, 20
    5d13:	010301        	l32r	a0, fffc6120 <_etext+0xbff4248c>
    5d16:	0309      	s32i.n	a0, a3, 0
    5d18:	030100        	rsr.lend	a0
    5d1b:	030901        	l32r	a0, fffc6940 <_etext+0xbff42cac>
    5d1e:	030100        	rsr.lend	a0
    5d21:	060901        	l32r	a0, fffc7548 <_etext+0xbff438b4>
    5d24:	090100        	l32e	a0, a1, -64
    5d27:	000004        	lsi	f0, a0, 0
    5d2a:	0a0101        	l32r	a0, fffc8530 <_etext+0xbff4489c>
    5d2d:	000012        	l8ui	a1, a0, 0
    5d30:	250002        	l8ui	a0, a0, 37
    5d33:	000000        	ill
    5d36:	fb0101        	l32r	a0, 493c <EXCVADDR+0x484e>
    5d39:	0e          	.byte 0xe
    5d3a:	000d      	mov.n	a0, a0
    5d3c:	010101        	l32r	a0, fffc6140 <_etext+0xbff424ac>
    5d3f:	000001        	l32r	a0, fffc5d40 <_etext+0xbff420ac>
    5d42:	000100        	lsi	f0, a1, 0
    5d45:	620100        	lsi	f0, a1, 0x188
    5d48:	6c6975        	call12	723e0 <EXCVADDR+0x722f2>
    5d4b:	000064        	lsi	f6, a0, 0
    5d4e:	654b      	addi.n	a6, a5, 4
    5d50:	656e72        	s32i	a7, a14, 0x194
    5d53:	2e6c      	movi.n	a14, -30
    5d55:	010053        	lsi	f5, a0, 4
    5d58:	000000        	ill
    5d5b:	020500        	andb	b0, b5, b0
    5d5e:	33cc      	bnez.n	a3, 5d65 <EXCVADDR+0x5c77>
    5d60:	4008      	l32i.n	a0, a0, 16
    5d62:	011e03        	lsi	f0, a14, 4
    5d65:	090103        	lsi	f0, a1, 36
    5d68:	010003        	lsi	f0, a0, 4
    5d6b:	090103        	lsi	f0, a1, 36
    5d6e:	010002        	l8ui	a0, a0, 1
    5d71:	090103        	lsi	f0, a1, 36
    5d74:	010002        	l8ui	a0, a0, 1
    5d77:	090103        	lsi	f0, a1, 36
    5d7a:	010003        	lsi	f0, a0, 4
    5d7d:	090103        	lsi	f0, a1, 36
    5d80:	010002        	l8ui	a0, a0, 1
    5d83:	090103        	lsi	f0, a1, 36
    5d86:	010002        	l8ui	a0, a0, 1
    5d89:	090103        	lsi	f0, a1, 36
    5d8c:	010002        	l8ui	a0, a0, 1
    5d8f:	090103        	lsi	f0, a1, 36
    5d92:	010002        	l8ui	a0, a0, 1
    5d95:	090103        	lsi	f0, a1, 36
    5d98:	010002        	l8ui	a0, a0, 1
    5d9b:	090203        	lsi	f0, a2, 36
    5d9e:	010003        	lsi	f0, a0, 4
    5da1:	090103        	lsi	f0, a1, 36
    5da4:	010003        	lsi	f0, a0, 4
    5da7:	090103        	lsi	f0, a1, 36
    5daa:	010003        	lsi	f0, a0, 4
    5dad:	090103        	lsi	f0, a1, 36
    5db0:	010002        	l8ui	a0, a0, 1
    5db3:	090103        	lsi	f0, a1, 36
    5db6:	010002        	l8ui	a0, a0, 1
    5db9:	090203        	lsi	f0, a2, 36
    5dbc:	010006        	j	61c0 <EXCVADDR+0x60d2>
    5dbf:	090103        	lsi	f0, a1, 36
    5dc2:	010002        	l8ui	a0, a0, 1
    5dc5:	090103        	lsi	f0, a1, 36
    5dc8:	010002        	l8ui	a0, a0, 1
    5dcb:	090103        	lsi	f0, a1, 36
    5dce:	010002        	l8ui	a0, a0, 1
    5dd1:	090103        	lsi	f0, a1, 36
    5dd4:	010002        	l8ui	a0, a0, 1
    5dd7:	090103        	lsi	f0, a1, 36
    5dda:	010002        	l8ui	a0, a0, 1
    5ddd:	090103        	lsi	f0, a1, 36
    5de0:	010002        	l8ui	a0, a0, 1
    5de3:	090103        	lsi	f0, a1, 36
    5de6:	010002        	l8ui	a0, a0, 1
    5de9:	090103        	lsi	f0, a1, 36
    5dec:	010002        	l8ui	a0, a0, 1
    5def:	090103        	lsi	f0, a1, 36
    5df2:	010002        	l8ui	a0, a0, 1
    5df5:	090103        	lsi	f0, a1, 36
    5df8:	010003        	lsi	f0, a0, 4
    5dfb:	090103        	lsi	f0, a1, 36
    5dfe:	010002        	l8ui	a0, a0, 1
    5e01:	090103        	lsi	f0, a1, 36
    5e04:	010002        	l8ui	a0, a0, 1
    5e07:	090103        	lsi	f0, a1, 36
    5e0a:	010002        	l8ui	a0, a0, 1
    5e0d:	090103        	lsi	f0, a1, 36
    5e10:	010002        	l8ui	a0, a0, 1
    5e13:	090203        	lsi	f0, a2, 36
    5e16:	010003        	lsi	f0, a0, 4
    5e19:	090103        	lsi	f0, a1, 36
    5e1c:	010002        	l8ui	a0, a0, 1
    5e1f:	090103        	lsi	f0, a1, 36
    5e22:	010002        	l8ui	a0, a0, 1
    5e25:	090103        	lsi	f0, a1, 36
    5e28:	010003        	lsi	f0, a0, 4
    5e2b:	090103        	lsi	f0, a1, 36
    5e2e:	010002        	l8ui	a0, a0, 1
    5e31:	090103        	lsi	f0, a1, 36
    5e34:	010003        	lsi	f0, a0, 4
    5e37:	090103        	lsi	f0, a1, 36
    5e3a:	010002        	l8ui	a0, a0, 1
    5e3d:	090103        	lsi	f0, a1, 36
    5e40:	010002        	l8ui	a0, a0, 1
    5e43:	090103        	lsi	f0, a1, 36
    5e46:	010002        	l8ui	a0, a0, 1
    5e49:	090103        	lsi	f0, a1, 36
    5e4c:	010002        	l8ui	a0, a0, 1
    5e4f:	090103        	lsi	f0, a1, 36
    5e52:	010002        	l8ui	a0, a0, 1
    5e55:	090103        	lsi	f0, a1, 36
    5e58:	010003        	lsi	f0, a0, 4
    5e5b:	090103        	lsi	f0, a1, 36
    5e5e:	010002        	l8ui	a0, a0, 1
    5e61:	090103        	lsi	f0, a1, 36
    5e64:	010002        	l8ui	a0, a0, 1
    5e67:	090103        	lsi	f0, a1, 36
    5e6a:	010002        	l8ui	a0, a0, 1
    5e6d:	090103        	lsi	f0, a1, 36
    5e70:	010002        	l8ui	a0, a0, 1
    5e73:	090203        	lsi	f0, a2, 36
    5e76:	010003        	lsi	f0, a0, 4
    5e79:	090103        	lsi	f0, a1, 36
    5e7c:	010002        	l8ui	a0, a0, 1
    5e7f:	090203        	lsi	f0, a2, 36
    5e82:	010002        	l8ui	a0, a0, 1
    5e85:	090203        	lsi	f0, a2, 36
    5e88:	010003        	lsi	f0, a0, 4
    5e8b:	090103        	lsi	f0, a1, 36
    5e8e:	010002        	l8ui	a0, a0, 1
    5e91:	090103        	lsi	f0, a1, 36
    5e94:	010003        	lsi	f0, a0, 4
    5e97:	090103        	lsi	f0, a1, 36
    5e9a:	010002        	l8ui	a0, a0, 1
    5e9d:	090103        	lsi	f0, a1, 36
    5ea0:	010002        	l8ui	a0, a0, 1
    5ea3:	090103        	lsi	f0, a1, 36
    5ea6:	010002        	l8ui	a0, a0, 1
    5ea9:	090103        	lsi	f0, a1, 36
    5eac:	010002        	l8ui	a0, a0, 1
    5eaf:	090103        	lsi	f0, a1, 36
    5eb2:	010002        	l8ui	a0, a0, 1
    5eb5:	090103        	lsi	f0, a1, 36
    5eb8:	010002        	l8ui	a0, a0, 1
    5ebb:	090103        	lsi	f0, a1, 36
    5ebe:	010002        	l8ui	a0, a0, 1
    5ec1:	090103        	lsi	f0, a1, 36
    5ec4:	010002        	l8ui	a0, a0, 1
    5ec7:	090103        	lsi	f0, a1, 36
    5eca:	010002        	l8ui	a0, a0, 1
    5ecd:	090103        	lsi	f0, a1, 36
    5ed0:	010003        	lsi	f0, a0, 4
    5ed3:	090103        	lsi	f0, a1, 36
    5ed6:	010002        	l8ui	a0, a0, 1
    5ed9:	090103        	lsi	f0, a1, 36
    5edc:	010002        	l8ui	a0, a0, 1
    5edf:	090103        	lsi	f0, a1, 36
    5ee2:	010002        	l8ui	a0, a0, 1
    5ee5:	090103        	lsi	f0, a1, 36
    5ee8:	010002        	l8ui	a0, a0, 1
    5eeb:	090103        	lsi	f0, a1, 36
    5eee:	010002        	l8ui	a0, a0, 1
    5ef1:	090103        	lsi	f0, a1, 36
    5ef4:	010002        	l8ui	a0, a0, 1
    5ef7:	090103        	lsi	f0, a1, 36
    5efa:	010002        	l8ui	a0, a0, 1
    5efd:	090103        	lsi	f0, a1, 36
    5f00:	010002        	l8ui	a0, a0, 1
    5f03:	090103        	lsi	f0, a1, 36
    5f06:	010002        	l8ui	a0, a0, 1
    5f09:	090103        	lsi	f0, a1, 36
    5f0c:	010002        	l8ui	a0, a0, 1
    5f0f:	090103        	lsi	f0, a1, 36
    5f12:	010002        	l8ui	a0, a0, 1
    5f15:	090103        	lsi	f0, a1, 36
    5f18:	010002        	l8ui	a0, a0, 1
    5f1b:	090103        	lsi	f0, a1, 36
    5f1e:	010003        	lsi	f0, a0, 4
    5f21:	090103        	lsi	f0, a1, 36
    5f24:	010002        	l8ui	a0, a0, 1
    5f27:	090103        	lsi	f0, a1, 36
    5f2a:	010002        	l8ui	a0, a0, 1
    5f2d:	090103        	lsi	f0, a1, 36
    5f30:	010002        	l8ui	a0, a0, 1
    5f33:	090103        	lsi	f0, a1, 36
    5f36:	010002        	l8ui	a0, a0, 1
    5f39:	090203        	lsi	f0, a2, 36
    5f3c:	010003        	lsi	f0, a0, 4
    5f3f:	090103        	lsi	f0, a1, 36
    5f42:	010002        	l8ui	a0, a0, 1
    5f45:	090303        	lsi	f0, a3, 36
    5f48:	010002        	l8ui	a0, a0, 1
    5f4b:	090203        	lsi	f0, a2, 36
    5f4e:	010003        	lsi	f0, a0, 4
    5f51:	090103        	lsi	f0, a1, 36
    5f54:	010003        	lsi	f0, a0, 4
    5f57:	090103        	lsi	f0, a1, 36
    5f5a:	010002        	l8ui	a0, a0, 1
    5f5d:	090103        	lsi	f0, a1, 36
    5f60:	010002        	l8ui	a0, a0, 1
    5f63:	090103        	lsi	f0, a1, 36
    5f66:	010002        	l8ui	a0, a0, 1
    5f69:	090203        	lsi	f0, a2, 36
    5f6c:	010002        	l8ui	a0, a0, 1
    5f6f:	090503        	lsi	f0, a5, 36
    5f72:	010004        	lsi	f0, a0, 4
    5f75:	090103        	lsi	f0, a1, 36
    5f78:	010003        	lsi	f0, a0, 4
    5f7b:	090103        	lsi	f0, a1, 36
    5f7e:	010002        	l8ui	a0, a0, 1
    5f81:	090103        	lsi	f0, a1, 36
    5f84:	010003        	lsi	f0, a0, 4
    5f87:	090103        	lsi	f0, a1, 36
    5f8a:	010002        	l8ui	a0, a0, 1
    5f8d:	090103        	lsi	f0, a1, 36
    5f90:	010002        	l8ui	a0, a0, 1
    5f93:	090103        	lsi	f0, a1, 36
    5f96:	010003        	lsi	f0, a0, 4
    5f99:	090103        	lsi	f0, a1, 36
    5f9c:	010002        	l8ui	a0, a0, 1
    5f9f:	090103        	lsi	f0, a1, 36
    5fa2:	010002        	l8ui	a0, a0, 1
    5fa5:	090103        	lsi	f0, a1, 36
    5fa8:	010002        	l8ui	a0, a0, 1
    5fab:	090103        	lsi	f0, a1, 36
    5fae:	010002        	l8ui	a0, a0, 1
    5fb1:	090103        	lsi	f0, a1, 36
    5fb4:	010002        	l8ui	a0, a0, 1
    5fb7:	090103        	lsi	f0, a1, 36
    5fba:	010002        	l8ui	a0, a0, 1
    5fbd:	090103        	lsi	f0, a1, 36
    5fc0:	010002        	l8ui	a0, a0, 1
    5fc3:	090203        	lsi	f0, a2, 36
    5fc6:	010003        	lsi	f0, a0, 4
    5fc9:	090103        	lsi	f0, a1, 36
    5fcc:	010002        	l8ui	a0, a0, 1
    5fcf:	090103        	lsi	f0, a1, 36
    5fd2:	010003        	lsi	f0, a0, 4
    5fd5:	090103        	lsi	f0, a1, 36
    5fd8:	010003        	lsi	f0, a0, 4
    5fdb:	090103        	lsi	f0, a1, 36
    5fde:	010002        	l8ui	a0, a0, 1
    5fe1:	090103        	lsi	f0, a1, 36
    5fe4:	010003        	lsi	f0, a0, 4
    5fe7:	090103        	lsi	f0, a1, 36
    5fea:	010002        	l8ui	a0, a0, 1
    5fed:	090103        	lsi	f0, a1, 36
    5ff0:	010003        	lsi	f0, a0, 4
    5ff3:	090103        	lsi	f0, a1, 36
    5ff6:	010002        	l8ui	a0, a0, 1
    5ff9:	090103        	lsi	f0, a1, 36
    5ffc:	010002        	l8ui	a0, a0, 1
    5fff:	090103        	lsi	f0, a1, 36
    6002:	010003        	lsi	f0, a0, 4
    6005:	090103        	lsi	f0, a1, 36
    6008:	010002        	l8ui	a0, a0, 1
    600b:	090103        	lsi	f0, a1, 36
    600e:	010002        	l8ui	a0, a0, 1
    6011:	090103        	lsi	f0, a1, 36
    6014:	010002        	l8ui	a0, a0, 1
    6017:	090103        	lsi	f0, a1, 36
    601a:	010002        	l8ui	a0, a0, 1
    601d:	090103        	lsi	f0, a1, 36
    6020:	010003        	lsi	f0, a0, 4
    6023:	090103        	lsi	f0, a1, 36
    6026:	010002        	l8ui	a0, a0, 1
    6029:	090103        	lsi	f0, a1, 36
    602c:	010002        	l8ui	a0, a0, 1
    602f:	090103        	lsi	f0, a1, 36
    6032:	010002        	l8ui	a0, a0, 1
    6035:	090103        	lsi	f0, a1, 36
    6038:	010002        	l8ui	a0, a0, 1
    603b:	090103        	lsi	f0, a1, 36
    603e:	010003        	lsi	f0, a0, 4
    6041:	090103        	lsi	f0, a1, 36
    6044:	010002        	l8ui	a0, a0, 1
    6047:	090103        	lsi	f0, a1, 36
    604a:	010002        	l8ui	a0, a0, 1
    604d:	090103        	lsi	f0, a1, 36
    6050:	010002        	l8ui	a0, a0, 1
    6053:	090103        	lsi	f0, a1, 36
    6056:	010002        	l8ui	a0, a0, 1
    6059:	090203        	lsi	f0, a2, 36
    605c:	010002        	l8ui	a0, a0, 1
    605f:	090503        	lsi	f0, a5, 36
    6062:	010003        	lsi	f0, a0, 4
    6065:	090103        	lsi	f0, a1, 36
    6068:	010003        	lsi	f0, a0, 4
    606b:	090103        	lsi	f0, a1, 36
    606e:	010002        	l8ui	a0, a0, 1
    6071:	090103        	lsi	f0, a1, 36
    6074:	010003        	lsi	f0, a0, 4
    6077:	090103        	lsi	f0, a1, 36
    607a:	010002        	l8ui	a0, a0, 1
    607d:	090103        	lsi	f0, a1, 36
    6080:	010002        	l8ui	a0, a0, 1
    6083:	090103        	lsi	f0, a1, 36
    6086:	010003        	lsi	f0, a0, 4
    6089:	090103        	lsi	f0, a1, 36
    608c:	010002        	l8ui	a0, a0, 1
    608f:	090103        	lsi	f0, a1, 36
    6092:	010002        	l8ui	a0, a0, 1
    6095:	090103        	lsi	f0, a1, 36
    6098:	010002        	l8ui	a0, a0, 1
    609b:	090103        	lsi	f0, a1, 36
    609e:	010002        	l8ui	a0, a0, 1
    60a1:	090103        	lsi	f0, a1, 36
    60a4:	010002        	l8ui	a0, a0, 1
    60a7:	090103        	lsi	f0, a1, 36
    60aa:	010002        	l8ui	a0, a0, 1
    60ad:	090103        	lsi	f0, a1, 36
    60b0:	010002        	l8ui	a0, a0, 1
    60b3:	090203        	lsi	f0, a2, 36
    60b6:	010003        	lsi	f0, a0, 4
    60b9:	090103        	lsi	f0, a1, 36
    60bc:	010002        	l8ui	a0, a0, 1
    60bf:	090103        	lsi	f0, a1, 36
    60c2:	010003        	lsi	f0, a0, 4
    60c5:	090103        	lsi	f0, a1, 36
    60c8:	010002        	l8ui	a0, a0, 1
    60cb:	090103        	lsi	f0, a1, 36
    60ce:	010003        	lsi	f0, a0, 4
    60d1:	090103        	lsi	f0, a1, 36
    60d4:	010002        	l8ui	a0, a0, 1
    60d7:	090103        	lsi	f0, a1, 36
    60da:	010002        	l8ui	a0, a0, 1
    60dd:	090103        	lsi	f0, a1, 36
    60e0:	010002        	l8ui	a0, a0, 1
    60e3:	090103        	lsi	f0, a1, 36
    60e6:	010003        	lsi	f0, a0, 4
    60e9:	090103        	lsi	f0, a1, 36
    60ec:	010002        	l8ui	a0, a0, 1
    60ef:	090103        	lsi	f0, a1, 36
    60f2:	010002        	l8ui	a0, a0, 1
    60f5:	090103        	lsi	f0, a1, 36
    60f8:	010002        	l8ui	a0, a0, 1
    60fb:	090103        	lsi	f0, a1, 36
    60fe:	010003        	lsi	f0, a0, 4
    6101:	090103        	lsi	f0, a1, 36
    6104:	010002        	l8ui	a0, a0, 1
    6107:	090103        	lsi	f0, a1, 36
    610a:	010002        	l8ui	a0, a0, 1
    610d:	090103        	lsi	f0, a1, 36
    6110:	010002        	l8ui	a0, a0, 1
    6113:	090103        	lsi	f0, a1, 36
    6116:	010003        	lsi	f0, a0, 4
    6119:	090103        	lsi	f0, a1, 36
    611c:	010002        	l8ui	a0, a0, 1
    611f:	090103        	lsi	f0, a1, 36
    6122:	010002        	l8ui	a0, a0, 1
    6125:	090103        	lsi	f0, a1, 36
    6128:	010002        	l8ui	a0, a0, 1
    612b:	090203        	lsi	f0, a2, 36
    612e:	010002        	l8ui	a0, a0, 1
    6131:	090503        	lsi	f0, a5, 36
    6134:	010003        	lsi	f0, a0, 4
    6137:	090103        	lsi	f0, a1, 36
    613a:	010003        	lsi	f0, a0, 4
    613d:	090103        	lsi	f0, a1, 36
    6140:	010002        	l8ui	a0, a0, 1
    6143:	090103        	lsi	f0, a1, 36
    6146:	010003        	lsi	f0, a0, 4
    6149:	090103        	lsi	f0, a1, 36
    614c:	010002        	l8ui	a0, a0, 1
    614f:	090103        	lsi	f0, a1, 36
    6152:	010002        	l8ui	a0, a0, 1
    6155:	090103        	lsi	f0, a1, 36
    6158:	010003        	lsi	f0, a0, 4
    615b:	090103        	lsi	f0, a1, 36
    615e:	010002        	l8ui	a0, a0, 1
    6161:	090103        	lsi	f0, a1, 36
    6164:	010002        	l8ui	a0, a0, 1
    6167:	090103        	lsi	f0, a1, 36
    616a:	010002        	l8ui	a0, a0, 1
    616d:	090103        	lsi	f0, a1, 36
    6170:	010002        	l8ui	a0, a0, 1
    6173:	090103        	lsi	f0, a1, 36
    6176:	010002        	l8ui	a0, a0, 1
    6179:	090103        	lsi	f0, a1, 36
    617c:	010002        	l8ui	a0, a0, 1
    617f:	090103        	lsi	f0, a1, 36
    6182:	010002        	l8ui	a0, a0, 1
    6185:	090203        	lsi	f0, a2, 36
    6188:	010003        	lsi	f0, a0, 4
    618b:	090103        	lsi	f0, a1, 36
    618e:	010002        	l8ui	a0, a0, 1
    6191:	090103        	lsi	f0, a1, 36
    6194:	010003        	lsi	f0, a0, 4
    6197:	090103        	lsi	f0, a1, 36
    619a:	010002        	l8ui	a0, a0, 1
    619d:	090103        	lsi	f0, a1, 36
    61a0:	010003        	lsi	f0, a0, 4
    61a3:	090103        	lsi	f0, a1, 36
    61a6:	010002        	l8ui	a0, a0, 1
    61a9:	090103        	lsi	f0, a1, 36
    61ac:	010002        	l8ui	a0, a0, 1
    61af:	090103        	lsi	f0, a1, 36
    61b2:	010002        	l8ui	a0, a0, 1
    61b5:	090103        	lsi	f0, a1, 36
    61b8:	010003        	lsi	f0, a0, 4
    61bb:	090103        	lsi	f0, a1, 36
    61be:	010002        	l8ui	a0, a0, 1
    61c1:	090103        	lsi	f0, a1, 36
    61c4:	010002        	l8ui	a0, a0, 1
    61c7:	090103        	lsi	f0, a1, 36
    61ca:	010002        	l8ui	a0, a0, 1
    61cd:	090103        	lsi	f0, a1, 36
    61d0:	010003        	lsi	f0, a0, 4
    61d3:	090103        	lsi	f0, a1, 36
    61d6:	010002        	l8ui	a0, a0, 1
    61d9:	090103        	lsi	f0, a1, 36
    61dc:	010002        	l8ui	a0, a0, 1
    61df:	090103        	lsi	f0, a1, 36
    61e2:	010002        	l8ui	a0, a0, 1
    61e5:	090103        	lsi	f0, a1, 36
    61e8:	010003        	lsi	f0, a0, 4
    61eb:	090103        	lsi	f0, a1, 36
    61ee:	010002        	l8ui	a0, a0, 1
    61f1:	090103        	lsi	f0, a1, 36
    61f4:	010002        	l8ui	a0, a0, 1
    61f7:	090103        	lsi	f0, a1, 36
    61fa:	010002        	l8ui	a0, a0, 1
    61fd:	090203        	lsi	f0, a2, 36
    6200:	010002        	l8ui	a0, a0, 1
    6203:	090803        	lsi	f0, a8, 36
    6206:	010003        	lsi	f0, a0, 4
    6209:	090103        	lsi	f0, a1, 36
    620c:	010003        	lsi	f0, a0, 4
    620f:	090103        	lsi	f0, a1, 36
    6212:	010002        	l8ui	a0, a0, 1
    6215:	090103        	lsi	f0, a1, 36
    6218:	010002        	l8ui	a0, a0, 1
    621b:	090103        	lsi	f0, a1, 36
    621e:	010003        	lsi	f0, a0, 4
    6221:	090103        	lsi	f0, a1, 36
    6224:	010002        	l8ui	a0, a0, 1
    6227:	090103        	lsi	f0, a1, 36
    622a:	010002        	l8ui	a0, a0, 1
    622d:	090103        	lsi	f0, a1, 36
    6230:	010002        	l8ui	a0, a0, 1
    6233:	090103        	lsi	f0, a1, 36
    6236:	010002        	l8ui	a0, a0, 1
    6239:	090103        	lsi	f0, a1, 36
    623c:	010002        	l8ui	a0, a0, 1
    623f:	090103        	lsi	f0, a1, 36
    6242:	010003        	lsi	f0, a0, 4
    6245:	090103        	lsi	f0, a1, 36
    6248:	010002        	l8ui	a0, a0, 1
    624b:	090103        	lsi	f0, a1, 36
    624e:	010003        	lsi	f0, a0, 4
    6251:	090203        	lsi	f0, a2, 36
    6254:	010004        	lsi	f0, a0, 4
    6257:	090103        	lsi	f0, a1, 36
    625a:	010002        	l8ui	a0, a0, 1
    625d:	090103        	lsi	f0, a1, 36
    6260:	010002        	l8ui	a0, a0, 1
    6263:	090103        	lsi	f0, a1, 36
    6266:	010003        	lsi	f0, a0, 4
    6269:	090103        	lsi	f0, a1, 36
    626c:	010002        	l8ui	a0, a0, 1
    626f:	090103        	lsi	f0, a1, 36
    6272:	010003        	lsi	f0, a0, 4
    6275:	090203        	lsi	f0, a2, 36
    6278:	010004        	lsi	f0, a0, 4
    627b:	090103        	lsi	f0, a1, 36
    627e:	010002        	l8ui	a0, a0, 1
    6281:	090103        	lsi	f0, a1, 36
    6284:	010003        	lsi	f0, a0, 4
    6287:	090103        	lsi	f0, a1, 36
    628a:	010003        	lsi	f0, a0, 4
    628d:	090103        	lsi	f0, a1, 36
    6290:	010002        	l8ui	a0, a0, 1
    6293:	090103        	lsi	f0, a1, 36
    6296:	010003        	lsi	f0, a0, 4
    6299:	090203        	lsi	f0, a2, 36
    629c:	010003        	lsi	f0, a0, 4
    629f:	090103        	lsi	f0, a1, 36
    62a2:	010002        	l8ui	a0, a0, 1
    62a5:	090103        	lsi	f0, a1, 36
    62a8:	010002        	l8ui	a0, a0, 1
    62ab:	090103        	lsi	f0, a1, 36
    62ae:	010003        	lsi	f0, a0, 4
    62b1:	090103        	lsi	f0, a1, 36
    62b4:	010002        	l8ui	a0, a0, 1
    62b7:	090103        	lsi	f0, a1, 36
    62ba:	010003        	lsi	f0, a0, 4
    62bd:	090103        	lsi	f0, a1, 36
    62c0:	010003        	lsi	f0, a0, 4
    62c3:	090203        	lsi	f0, a2, 36
    62c6:	010003        	lsi	f0, a0, 4
    62c9:	090103        	lsi	f0, a1, 36
    62cc:	010002        	l8ui	a0, a0, 1
    62cf:	090103        	lsi	f0, a1, 36
    62d2:	010002        	l8ui	a0, a0, 1
    62d5:	090103        	lsi	f0, a1, 36
    62d8:	010003        	lsi	f0, a0, 4
    62db:	090103        	lsi	f0, a1, 36
    62de:	010002        	l8ui	a0, a0, 1
    62e1:	090103        	lsi	f0, a1, 36
    62e4:	010002        	l8ui	a0, a0, 1
    62e7:	090103        	lsi	f0, a1, 36
    62ea:	010002        	l8ui	a0, a0, 1
    62ed:	090203        	lsi	f0, a2, 36
    62f0:	010003        	lsi	f0, a0, 4
    62f3:	090103        	lsi	f0, a1, 36
    62f6:	010002        	l8ui	a0, a0, 1
    62f9:	090103        	lsi	f0, a1, 36
    62fc:	010002        	l8ui	a0, a0, 1
    62ff:	090103        	lsi	f0, a1, 36
    6302:	010002        	l8ui	a0, a0, 1
    6305:	090103        	lsi	f0, a1, 36
    6308:	010002        	l8ui	a0, a0, 1
    630b:	090103        	lsi	f0, a1, 36
    630e:	010002        	l8ui	a0, a0, 1
    6311:	090103        	lsi	f0, a1, 36
    6314:	010002        	l8ui	a0, a0, 1
    6317:	090103        	lsi	f0, a1, 36
    631a:	010002        	l8ui	a0, a0, 1
    631d:	090103        	lsi	f0, a1, 36
    6320:	010002        	l8ui	a0, a0, 1
    6323:	090103        	lsi	f0, a1, 36
    6326:	010002        	l8ui	a0, a0, 1
    6329:	090103        	lsi	f0, a1, 36
    632c:	010002        	l8ui	a0, a0, 1
    632f:	090103        	lsi	f0, a1, 36
    6332:	010002        	l8ui	a0, a0, 1
    6335:	090103        	lsi	f0, a1, 36
    6338:	010002        	l8ui	a0, a0, 1
    633b:	090103        	lsi	f0, a1, 36
    633e:	010002        	l8ui	a0, a0, 1
    6341:	090103        	lsi	f0, a1, 36
    6344:	010002        	l8ui	a0, a0, 1
    6347:	090103        	lsi	f0, a1, 36
    634a:	010003        	lsi	f0, a0, 4
    634d:	090103        	lsi	f0, a1, 36
    6350:	010002        	l8ui	a0, a0, 1
    6353:	090103        	lsi	f0, a1, 36
    6356:	010002        	l8ui	a0, a0, 1
    6359:	090103        	lsi	f0, a1, 36
    635c:	010002        	l8ui	a0, a0, 1
    635f:	090203        	lsi	f0, a2, 36
    6362:	010002        	l8ui	a0, a0, 1
    6365:	090103        	lsi	f0, a1, 36
    6368:	010002        	l8ui	a0, a0, 1
    636b:	090103        	lsi	f0, a1, 36
    636e:	010002        	l8ui	a0, a0, 1
    6371:	090103        	lsi	f0, a1, 36
    6374:	010003        	lsi	f0, a0, 4
    6377:	090103        	lsi	f0, a1, 36
    637a:	010002        	l8ui	a0, a0, 1
    637d:	090103        	lsi	f0, a1, 36
    6380:	010002        	l8ui	a0, a0, 1
    6383:	090103        	lsi	f0, a1, 36
    6386:	010002        	l8ui	a0, a0, 1
    6389:	090103        	lsi	f0, a1, 36
    638c:	010002        	l8ui	a0, a0, 1
    638f:	090103        	lsi	f0, a1, 36
    6392:	010002        	l8ui	a0, a0, 1
    6395:	090103        	lsi	f0, a1, 36
    6398:	010002        	l8ui	a0, a0, 1
    639b:	090303        	lsi	f0, a3, 36
    639e:	010003        	lsi	f0, a0, 4
    63a1:	090803        	lsi	f0, a8, 36
    63a4:	010005        	call0	73a8 <EXCVADDR+0x72ba>
    63a7:	090103        	lsi	f0, a1, 36
    63aa:	010003        	lsi	f0, a0, 4
    63ad:	090103        	lsi	f0, a1, 36
    63b0:	010002        	l8ui	a0, a0, 1
    63b3:	090103        	lsi	f0, a1, 36
    63b6:	010002        	l8ui	a0, a0, 1
    63b9:	090203        	lsi	f0, a2, 36
    63bc:	010003        	lsi	f0, a0, 4
    63bf:	090103        	lsi	f0, a1, 36
    63c2:	010002        	l8ui	a0, a0, 1
    63c5:	090103        	lsi	f0, a1, 36
    63c8:	010002        	l8ui	a0, a0, 1
    63cb:	090103        	lsi	f0, a1, 36
    63ce:	010006        	j	67d2 <EXCVADDR+0x66e4>
    63d1:	090103        	lsi	f0, a1, 36
    63d4:	010002        	l8ui	a0, a0, 1
    63d7:	090103        	lsi	f0, a1, 36
    63da:	010002        	l8ui	a0, a0, 1
    63dd:	090103        	lsi	f0, a1, 36
    63e0:	010002        	l8ui	a0, a0, 1
    63e3:	090103        	lsi	f0, a1, 36
    63e6:	010002        	l8ui	a0, a0, 1
    63e9:	090103        	lsi	f0, a1, 36
    63ec:	010002        	l8ui	a0, a0, 1
    63ef:	090103        	lsi	f0, a1, 36
    63f2:	010002        	l8ui	a0, a0, 1
    63f5:	090103        	lsi	f0, a1, 36
    63f8:	010002        	l8ui	a0, a0, 1
    63fb:	090103        	lsi	f0, a1, 36
    63fe:	010003        	lsi	f0, a0, 4
    6401:	090103        	lsi	f0, a1, 36
    6404:	010002        	l8ui	a0, a0, 1
    6407:	090103        	lsi	f0, a1, 36
    640a:	010002        	l8ui	a0, a0, 1
    640d:	090103        	lsi	f0, a1, 36
    6410:	010002        	l8ui	a0, a0, 1
    6413:	090103        	lsi	f0, a1, 36
    6416:	010002        	l8ui	a0, a0, 1
    6419:	090103        	lsi	f0, a1, 36
    641c:	010006        	j	6820 <EXCVADDR+0x6732>
    641f:	090103        	lsi	f0, a1, 36
    6422:	010002        	l8ui	a0, a0, 1
    6425:	090103        	lsi	f0, a1, 36
    6428:	010002        	l8ui	a0, a0, 1
    642b:	090203        	lsi	f0, a2, 36
    642e:	010006        	j	6832 <EXCVADDR+0x6744>
    6431:	090103        	lsi	f0, a1, 36
    6434:	010002        	l8ui	a0, a0, 1
    6437:	090203        	lsi	f0, a2, 36
    643a:	010002        	l8ui	a0, a0, 1
    643d:	090103        	lsi	f0, a1, 36
    6440:	010002        	l8ui	a0, a0, 1
    6443:	090103        	lsi	f0, a1, 36
    6446:	010003        	lsi	f0, a0, 4
    6449:	090103        	lsi	f0, a1, 36
    644c:	010002        	l8ui	a0, a0, 1
    644f:	090103        	lsi	f0, a1, 36
    6452:	010002        	l8ui	a0, a0, 1
    6455:	090103        	lsi	f0, a1, 36
    6458:	010002        	l8ui	a0, a0, 1
    645b:	090103        	lsi	f0, a1, 36
    645e:	010002        	l8ui	a0, a0, 1
    6461:	090103        	lsi	f0, a1, 36
    6464:	010003        	lsi	f0, a0, 4
    6467:	090103        	lsi	f0, a1, 36
    646a:	010002        	l8ui	a0, a0, 1
    646d:	090103        	lsi	f0, a1, 36
    6470:	010003        	lsi	f0, a0, 4
    6473:	090103        	lsi	f0, a1, 36
    6476:	010002        	l8ui	a0, a0, 1
    6479:	090103        	lsi	f0, a1, 36
    647c:	010002        	l8ui	a0, a0, 1
    647f:	090103        	lsi	f0, a1, 36
    6482:	010002        	l8ui	a0, a0, 1
    6485:	090103        	lsi	f0, a1, 36
    6488:	010003        	lsi	f0, a0, 4
    648b:	090103        	lsi	f0, a1, 36
    648e:	010002        	l8ui	a0, a0, 1
    6491:	090203        	lsi	f0, a2, 36
    6494:	010003        	lsi	f0, a0, 4
    6497:	090103        	lsi	f0, a1, 36
    649a:	010002        	l8ui	a0, a0, 1
    649d:	090103        	lsi	f0, a1, 36
    64a0:	010002        	l8ui	a0, a0, 1
    64a3:	090203        	lsi	f0, a2, 36
    64a6:	010002        	l8ui	a0, a0, 1
    64a9:	090103        	lsi	f0, a1, 36
    64ac:	010002        	l8ui	a0, a0, 1
    64af:	090103        	lsi	f0, a1, 36
    64b2:	010003        	lsi	f0, a0, 4
    64b5:	090103        	lsi	f0, a1, 36
    64b8:	010002        	l8ui	a0, a0, 1
    64bb:	090103        	lsi	f0, a1, 36
    64be:	010002        	l8ui	a0, a0, 1
    64c1:	090103        	lsi	f0, a1, 36
    64c4:	010002        	l8ui	a0, a0, 1
    64c7:	090103        	lsi	f0, a1, 36
    64ca:	010002        	l8ui	a0, a0, 1
    64cd:	090103        	lsi	f0, a1, 36
    64d0:	010002        	l8ui	a0, a0, 1
    64d3:	090103        	lsi	f0, a1, 36
    64d6:	010002        	l8ui	a0, a0, 1
    64d9:	090103        	lsi	f0, a1, 36
    64dc:	010002        	l8ui	a0, a0, 1
    64df:	090103        	lsi	f0, a1, 36
    64e2:	010003        	lsi	f0, a0, 4
    64e5:	090103        	lsi	f0, a1, 36
    64e8:	010002        	l8ui	a0, a0, 1
    64eb:	090103        	lsi	f0, a1, 36
    64ee:	010002        	l8ui	a0, a0, 1
    64f1:	090103        	lsi	f0, a1, 36
    64f4:	010002        	l8ui	a0, a0, 1
    64f7:	090103        	lsi	f0, a1, 36
    64fa:	010002        	l8ui	a0, a0, 1
    64fd:	090103        	lsi	f0, a1, 36
    6500:	010002        	l8ui	a0, a0, 1
    6503:	090103        	lsi	f0, a1, 36
    6506:	010002        	l8ui	a0, a0, 1
    6509:	090103        	lsi	f0, a1, 36
    650c:	010003        	lsi	f0, a0, 4
    650f:	090103        	lsi	f0, a1, 36
    6512:	010002        	l8ui	a0, a0, 1
    6515:	090103        	lsi	f0, a1, 36
    6518:	010002        	l8ui	a0, a0, 1
    651b:	090103        	lsi	f0, a1, 36
    651e:	010002        	l8ui	a0, a0, 1
    6521:	090103        	lsi	f0, a1, 36
    6524:	010002        	l8ui	a0, a0, 1
    6527:	090103        	lsi	f0, a1, 36
    652a:	010003        	lsi	f0, a0, 4
    652d:	090103        	lsi	f0, a1, 36
    6530:	010002        	l8ui	a0, a0, 1
    6533:	090103        	lsi	f0, a1, 36
    6536:	010002        	l8ui	a0, a0, 1
    6539:	090203        	lsi	f0, a2, 36
    653c:	010003        	lsi	f0, a0, 4
    653f:	090103        	lsi	f0, a1, 36
    6542:	010002        	l8ui	a0, a0, 1
    6545:	090103        	lsi	f0, a1, 36
    6548:	010002        	l8ui	a0, a0, 1
    654b:	090103        	lsi	f0, a1, 36
    654e:	010002        	l8ui	a0, a0, 1
    6551:	090103        	lsi	f0, a1, 36
    6554:	010002        	l8ui	a0, a0, 1
    6557:	090103        	lsi	f0, a1, 36
    655a:	010002        	l8ui	a0, a0, 1
    655d:	090103        	lsi	f0, a1, 36
    6560:	010002        	l8ui	a0, a0, 1
    6563:	090103        	lsi	f0, a1, 36
    6566:	010002        	l8ui	a0, a0, 1
    6569:	090103        	lsi	f0, a1, 36
    656c:	010002        	l8ui	a0, a0, 1
    656f:	090203        	lsi	f0, a2, 36
    6572:	010003        	lsi	f0, a0, 4
    6575:	090203        	lsi	f0, a2, 36
    6578:	010003        	lsi	f0, a0, 4
    657b:	090103        	lsi	f0, a1, 36
    657e:	010002        	l8ui	a0, a0, 1
    6581:	090103        	lsi	f0, a1, 36
    6584:	010003        	lsi	f0, a0, 4
    6587:	090103        	lsi	f0, a1, 36
    658a:	010002        	l8ui	a0, a0, 1
    658d:	090103        	lsi	f0, a1, 36
    6590:	010002        	l8ui	a0, a0, 1
    6593:	090103        	lsi	f0, a1, 36
    6596:	010002        	l8ui	a0, a0, 1
    6599:	090103        	lsi	f0, a1, 36
    659c:	010002        	l8ui	a0, a0, 1
    659f:	090103        	lsi	f0, a1, 36
    65a2:	010002        	l8ui	a0, a0, 1
    65a5:	090103        	lsi	f0, a1, 36
    65a8:	010002        	l8ui	a0, a0, 1
    65ab:	090103        	lsi	f0, a1, 36
    65ae:	010002        	l8ui	a0, a0, 1
    65b1:	090103        	lsi	f0, a1, 36
    65b4:	010003        	lsi	f0, a0, 4
    65b7:	090103        	lsi	f0, a1, 36
    65ba:	010002        	l8ui	a0, a0, 1
    65bd:	090103        	lsi	f0, a1, 36
    65c0:	010002        	l8ui	a0, a0, 1
    65c3:	090103        	lsi	f0, a1, 36
    65c6:	010002        	l8ui	a0, a0, 1
    65c9:	090103        	lsi	f0, a1, 36
    65cc:	010002        	l8ui	a0, a0, 1
    65cf:	090103        	lsi	f0, a1, 36
    65d2:	010002        	l8ui	a0, a0, 1
    65d5:	090103        	lsi	f0, a1, 36
    65d8:	010002        	l8ui	a0, a0, 1
    65db:	090103        	lsi	f0, a1, 36
    65de:	010002        	l8ui	a0, a0, 1
    65e1:	090103        	lsi	f0, a1, 36
    65e4:	010002        	l8ui	a0, a0, 1
    65e7:	090103        	lsi	f0, a1, 36
    65ea:	010002        	l8ui	a0, a0, 1
    65ed:	090103        	lsi	f0, a1, 36
    65f0:	010002        	l8ui	a0, a0, 1
    65f3:	090103        	lsi	f0, a1, 36
    65f6:	010002        	l8ui	a0, a0, 1
    65f9:	090103        	lsi	f0, a1, 36
    65fc:	010002        	l8ui	a0, a0, 1
    65ff:	090103        	lsi	f0, a1, 36
    6602:	010002        	l8ui	a0, a0, 1
    6605:	090303        	lsi	f0, a3, 36
    6608:	010002        	l8ui	a0, a0, 1
    660b:	090103        	lsi	f0, a1, 36
    660e:	010002        	l8ui	a0, a0, 1
    6611:	090103        	lsi	f0, a1, 36
    6614:	010002        	l8ui	a0, a0, 1
    6617:	090103        	lsi	f0, a1, 36
    661a:	010006        	j	6a1e <EXCVADDR+0x6930>
    661d:	090103        	lsi	f0, a1, 36
    6620:	010002        	l8ui	a0, a0, 1
    6623:	090103        	lsi	f0, a1, 36
    6626:	010002        	l8ui	a0, a0, 1
    6629:	090303        	lsi	f0, a3, 36
    662c:	010006        	j	6a30 <EXCVADDR+0x6942>
    662f:	090103        	lsi	f0, a1, 36
    6632:	010002        	l8ui	a0, a0, 1
    6635:	090103        	lsi	f0, a1, 36
    6638:	010002        	l8ui	a0, a0, 1
    663b:	090103        	lsi	f0, a1, 36
    663e:	010002        	l8ui	a0, a0, 1
    6641:	090103        	lsi	f0, a1, 36
    6644:	010002        	l8ui	a0, a0, 1
    6647:	090103        	lsi	f0, a1, 36
    664a:	010002        	l8ui	a0, a0, 1
    664d:	090103        	lsi	f0, a1, 36
    6650:	010002        	l8ui	a0, a0, 1
    6653:	090203        	lsi	f0, a2, 36
    6656:	010003        	lsi	f0, a0, 4
    6659:	090803        	lsi	f0, a8, 36
    665c:	010004        	lsi	f0, a0, 4
    665f:	090103        	lsi	f0, a1, 36
    6662:	010003        	lsi	f0, a0, 4
    6665:	090103        	lsi	f0, a1, 36
    6668:	010003        	lsi	f0, a0, 4
    666b:	090103        	lsi	f0, a1, 36
    666e:	010002        	l8ui	a0, a0, 1
    6671:	090203        	lsi	f0, a2, 36
    6674:	010002        	l8ui	a0, a0, 1
    6677:	090103        	lsi	f0, a1, 36
    667a:	010002        	l8ui	a0, a0, 1
    667d:	090103        	lsi	f0, a1, 36
    6680:	010002        	l8ui	a0, a0, 1
    6683:	090103        	lsi	f0, a1, 36
    6686:	010002        	l8ui	a0, a0, 1
    6689:	090103        	lsi	f0, a1, 36
    668c:	010002        	l8ui	a0, a0, 1
    668f:	090103        	lsi	f0, a1, 36
    6692:	010002        	l8ui	a0, a0, 1
    6695:	090203        	lsi	f0, a2, 36
    6698:	010002        	l8ui	a0, a0, 1
    669b:	090103        	lsi	f0, a1, 36
    669e:	010002        	l8ui	a0, a0, 1
    66a1:	090103        	lsi	f0, a1, 36
    66a4:	010002        	l8ui	a0, a0, 1
    66a7:	090103        	lsi	f0, a1, 36
    66aa:	010003        	lsi	f0, a0, 4
    66ad:	090103        	lsi	f0, a1, 36
    66b0:	010002        	l8ui	a0, a0, 1
    66b3:	090103        	lsi	f0, a1, 36
    66b6:	010002        	l8ui	a0, a0, 1
    66b9:	090103        	lsi	f0, a1, 36
    66bc:	010002        	l8ui	a0, a0, 1
    66bf:	090103        	lsi	f0, a1, 36
    66c2:	010002        	l8ui	a0, a0, 1
    66c5:	090103        	lsi	f0, a1, 36
    66c8:	010002        	l8ui	a0, a0, 1
    66cb:	090103        	lsi	f0, a1, 36
    66ce:	010002        	l8ui	a0, a0, 1
    66d1:	090103        	lsi	f0, a1, 36
    66d4:	010002        	l8ui	a0, a0, 1
    66d7:	090103        	lsi	f0, a1, 36
    66da:	010002        	l8ui	a0, a0, 1
    66dd:	090103        	lsi	f0, a1, 36
    66e0:	010002        	l8ui	a0, a0, 1
    66e3:	090103        	lsi	f0, a1, 36
    66e6:	010002        	l8ui	a0, a0, 1
    66e9:	090103        	lsi	f0, a1, 36
    66ec:	010002        	l8ui	a0, a0, 1
    66ef:	090103        	lsi	f0, a1, 36
    66f2:	010002        	l8ui	a0, a0, 1
    66f5:	090103        	lsi	f0, a1, 36
    66f8:	010002        	l8ui	a0, a0, 1
    66fb:	090103        	lsi	f0, a1, 36
    66fe:	010002        	l8ui	a0, a0, 1
    6701:	090203        	lsi	f0, a2, 36
    6704:	010003        	lsi	f0, a0, 4
    6707:	090103        	lsi	f0, a1, 36
    670a:	010002        	l8ui	a0, a0, 1
    670d:	090103        	lsi	f0, a1, 36
    6710:	010002        	l8ui	a0, a0, 1
    6713:	090103        	lsi	f0, a1, 36
    6716:	010003        	lsi	f0, a0, 4
    6719:	090103        	lsi	f0, a1, 36
    671c:	010002        	l8ui	a0, a0, 1
    671f:	090103        	lsi	f0, a1, 36
    6722:	010003        	lsi	f0, a0, 4
    6725:	090103        	lsi	f0, a1, 36
    6728:	010002        	l8ui	a0, a0, 1
    672b:	090103        	lsi	f0, a1, 36
    672e:	010002        	l8ui	a0, a0, 1
    6731:	090103        	lsi	f0, a1, 36
    6734:	010003        	lsi	f0, a0, 4
    6737:	090103        	lsi	f0, a1, 36
    673a:	010002        	l8ui	a0, a0, 1
    673d:	090103        	lsi	f0, a1, 36
    6740:	010002        	l8ui	a0, a0, 1
    6743:	090103        	lsi	f0, a1, 36
    6746:	010002        	l8ui	a0, a0, 1
    6749:	090103        	lsi	f0, a1, 36
    674c:	010002        	l8ui	a0, a0, 1
    674f:	090103        	lsi	f0, a1, 36
    6752:	010006        	j	6b56 <EXCVADDR+0x6a68>
    6755:	090103        	lsi	f0, a1, 36
    6758:	010002        	l8ui	a0, a0, 1
    675b:	090103        	lsi	f0, a1, 36
    675e:	010002        	l8ui	a0, a0, 1
    6761:	090103        	lsi	f0, a1, 36
    6764:	010003        	lsi	f0, a0, 4
    6767:	090103        	lsi	f0, a1, 36
    676a:	010002        	l8ui	a0, a0, 1
    676d:	090103        	lsi	f0, a1, 36
    6770:	010003        	lsi	f0, a0, 4
    6773:	090103        	lsi	f0, a1, 36
    6776:	010002        	l8ui	a0, a0, 1
    6779:	090103        	lsi	f0, a1, 36
    677c:	010002        	l8ui	a0, a0, 1
    677f:	090103        	lsi	f0, a1, 36
    6782:	010002        	l8ui	a0, a0, 1
    6785:	090103        	lsi	f0, a1, 36
    6788:	010002        	l8ui	a0, a0, 1
    678b:	090103        	lsi	f0, a1, 36
    678e:	010002        	l8ui	a0, a0, 1
    6791:	090103        	lsi	f0, a1, 36
    6794:	010002        	l8ui	a0, a0, 1
    6797:	090103        	lsi	f0, a1, 36
    679a:	010002        	l8ui	a0, a0, 1
    679d:	090103        	lsi	f0, a1, 36
    67a0:	010002        	l8ui	a0, a0, 1
    67a3:	090103        	lsi	f0, a1, 36
    67a6:	010002        	l8ui	a0, a0, 1
    67a9:	090103        	lsi	f0, a1, 36
    67ac:	010002        	l8ui	a0, a0, 1
    67af:	090103        	lsi	f0, a1, 36
    67b2:	010002        	l8ui	a0, a0, 1
    67b5:	090103        	lsi	f0, a1, 36
    67b8:	010002        	l8ui	a0, a0, 1
    67bb:	090103        	lsi	f0, a1, 36
    67be:	010002        	l8ui	a0, a0, 1
    67c1:	090103        	lsi	f0, a1, 36
    67c4:	010002        	l8ui	a0, a0, 1
    67c7:	090103        	lsi	f0, a1, 36
    67ca:	010003        	lsi	f0, a0, 4
    67cd:	090103        	lsi	f0, a1, 36
    67d0:	010002        	l8ui	a0, a0, 1
    67d3:	090103        	lsi	f0, a1, 36
    67d6:	010002        	l8ui	a0, a0, 1
    67d9:	090103        	lsi	f0, a1, 36
    67dc:	010003        	lsi	f0, a0, 4
    67df:	090203        	lsi	f0, a2, 36
    67e2:	010002        	l8ui	a0, a0, 1
    67e5:	090103        	lsi	f0, a1, 36
    67e8:	010002        	l8ui	a0, a0, 1
    67eb:	090103        	lsi	f0, a1, 36
    67ee:	010003        	lsi	f0, a0, 4
    67f1:	090103        	lsi	f0, a1, 36
    67f4:	010003        	lsi	f0, a0, 4
    67f7:	090103        	lsi	f0, a1, 36
    67fa:	010002        	l8ui	a0, a0, 1
    67fd:	090103        	lsi	f0, a1, 36
    6800:	010003        	lsi	f0, a0, 4
    6803:	090103        	lsi	f0, a1, 36
    6806:	010002        	l8ui	a0, a0, 1
    6809:	090103        	lsi	f0, a1, 36
    680c:	010002        	l8ui	a0, a0, 1
    680f:	090103        	lsi	f0, a1, 36
    6812:	010002        	l8ui	a0, a0, 1
    6815:	090103        	lsi	f0, a1, 36
    6818:	010002        	l8ui	a0, a0, 1
    681b:	090103        	lsi	f0, a1, 36
    681e:	010002        	l8ui	a0, a0, 1
    6821:	090103        	lsi	f0, a1, 36
    6824:	010002        	l8ui	a0, a0, 1
    6827:	090103        	lsi	f0, a1, 36
    682a:	010002        	l8ui	a0, a0, 1
    682d:	090103        	lsi	f0, a1, 36
    6830:	010002        	l8ui	a0, a0, 1
    6833:	090103        	lsi	f0, a1, 36
    6836:	010002        	l8ui	a0, a0, 1
    6839:	090103        	lsi	f0, a1, 36
    683c:	010002        	l8ui	a0, a0, 1
    683f:	090103        	lsi	f0, a1, 36
    6842:	010002        	l8ui	a0, a0, 1
    6845:	090103        	lsi	f0, a1, 36
    6848:	010002        	l8ui	a0, a0, 1
    684b:	090103        	lsi	f0, a1, 36
    684e:	010002        	l8ui	a0, a0, 1
    6851:	090103        	lsi	f0, a1, 36
    6854:	010002        	l8ui	a0, a0, 1
    6857:	090103        	lsi	f0, a1, 36
    685a:	010003        	lsi	f0, a0, 4
    685d:	090103        	lsi	f0, a1, 36
    6860:	010002        	l8ui	a0, a0, 1
    6863:	090103        	lsi	f0, a1, 36
    6866:	010002        	l8ui	a0, a0, 1
    6869:	090103        	lsi	f0, a1, 36
    686c:	010003        	lsi	f0, a0, 4
    686f:	090203        	lsi	f0, a2, 36
    6872:	010002        	l8ui	a0, a0, 1
    6875:	090103        	lsi	f0, a1, 36
    6878:	010002        	l8ui	a0, a0, 1
    687b:	090103        	lsi	f0, a1, 36
    687e:	010003        	lsi	f0, a0, 4
    6881:	090103        	lsi	f0, a1, 36
    6884:	010003        	lsi	f0, a0, 4
    6887:	090103        	lsi	f0, a1, 36
    688a:	010002        	l8ui	a0, a0, 1
    688d:	090103        	lsi	f0, a1, 36
    6890:	010003        	lsi	f0, a0, 4
    6893:	090103        	lsi	f0, a1, 36
    6896:	010002        	l8ui	a0, a0, 1
    6899:	090103        	lsi	f0, a1, 36
    689c:	010003        	lsi	f0, a0, 4
    689f:	090103        	lsi	f0, a1, 36
    68a2:	010002        	l8ui	a0, a0, 1
    68a5:	090103        	lsi	f0, a1, 36
    68a8:	010002        	l8ui	a0, a0, 1
    68ab:	090103        	lsi	f0, a1, 36
    68ae:	010002        	l8ui	a0, a0, 1
    68b1:	090103        	lsi	f0, a1, 36
    68b4:	010002        	l8ui	a0, a0, 1
    68b7:	090103        	lsi	f0, a1, 36
    68ba:	010002        	l8ui	a0, a0, 1
    68bd:	090103        	lsi	f0, a1, 36
    68c0:	010002        	l8ui	a0, a0, 1
    68c3:	090103        	lsi	f0, a1, 36
    68c6:	010002        	l8ui	a0, a0, 1
    68c9:	090103        	lsi	f0, a1, 36
    68cc:	010002        	l8ui	a0, a0, 1
    68cf:	090103        	lsi	f0, a1, 36
    68d2:	010002        	l8ui	a0, a0, 1
    68d5:	090103        	lsi	f0, a1, 36
    68d8:	010002        	l8ui	a0, a0, 1
    68db:	090103        	lsi	f0, a1, 36
    68de:	010002        	l8ui	a0, a0, 1
    68e1:	090103        	lsi	f0, a1, 36
    68e4:	010002        	l8ui	a0, a0, 1
    68e7:	090103        	lsi	f0, a1, 36
    68ea:	010003        	lsi	f0, a0, 4
    68ed:	090103        	lsi	f0, a1, 36
    68f0:	010002        	l8ui	a0, a0, 1
    68f3:	090103        	lsi	f0, a1, 36
    68f6:	010002        	l8ui	a0, a0, 1
    68f9:	090103        	lsi	f0, a1, 36
    68fc:	010002        	l8ui	a0, a0, 1
    68ff:	090103        	lsi	f0, a1, 36
    6902:	010003        	lsi	f0, a0, 4
    6905:	090203        	lsi	f0, a2, 36
    6908:	010002        	l8ui	a0, a0, 1
    690b:	090103        	lsi	f0, a1, 36
    690e:	010002        	l8ui	a0, a0, 1
    6911:	090103        	lsi	f0, a1, 36
    6914:	010002        	l8ui	a0, a0, 1
    6917:	090103        	lsi	f0, a1, 36
    691a:	010003        	lsi	f0, a0, 4
    691d:	090103        	lsi	f0, a1, 36
    6920:	010002        	l8ui	a0, a0, 1
    6923:	090103        	lsi	f0, a1, 36
    6926:	010002        	l8ui	a0, a0, 1
    6929:	090103        	lsi	f0, a1, 36
    692c:	010002        	l8ui	a0, a0, 1
    692f:	090103        	lsi	f0, a1, 36
    6932:	010002        	l8ui	a0, a0, 1
    6935:	090103        	lsi	f0, a1, 36
    6938:	010002        	l8ui	a0, a0, 1
    693b:	090103        	lsi	f0, a1, 36
    693e:	010002        	l8ui	a0, a0, 1
    6941:	090103        	lsi	f0, a1, 36
    6944:	010002        	l8ui	a0, a0, 1
    6947:	090103        	lsi	f0, a1, 36
    694a:	010002        	l8ui	a0, a0, 1
    694d:	090103        	lsi	f0, a1, 36
    6950:	010002        	l8ui	a0, a0, 1
    6953:	090103        	lsi	f0, a1, 36
    6956:	010002        	l8ui	a0, a0, 1
    6959:	090103        	lsi	f0, a1, 36
    695c:	010002        	l8ui	a0, a0, 1
    695f:	090103        	lsi	f0, a1, 36
    6962:	010002        	l8ui	a0, a0, 1
    6965:	090103        	lsi	f0, a1, 36
    6968:	010002        	l8ui	a0, a0, 1
    696b:	090103        	lsi	f0, a1, 36
    696e:	010002        	l8ui	a0, a0, 1
    6971:	090103        	lsi	f0, a1, 36
    6974:	010002        	l8ui	a0, a0, 1
    6977:	090103        	lsi	f0, a1, 36
    697a:	010002        	l8ui	a0, a0, 1
    697d:	090303        	lsi	f0, a3, 36
    6980:	010003        	lsi	f0, a0, 4
    6983:	090103        	lsi	f0, a1, 36
    6986:	010002        	l8ui	a0, a0, 1
    6989:	090103        	lsi	f0, a1, 36
    698c:	010002        	l8ui	a0, a0, 1
    698f:	090103        	lsi	f0, a1, 36
    6992:	010003        	lsi	f0, a0, 4
    6995:	090103        	lsi	f0, a1, 36
    6998:	010002        	l8ui	a0, a0, 1
    699b:	090103        	lsi	f0, a1, 36
    699e:	010002        	l8ui	a0, a0, 1
    69a1:	090103        	lsi	f0, a1, 36
    69a4:	010002        	l8ui	a0, a0, 1
    69a7:	090103        	lsi	f0, a1, 36
    69aa:	010002        	l8ui	a0, a0, 1
    69ad:	090103        	lsi	f0, a1, 36
    69b0:	010002        	l8ui	a0, a0, 1
    69b3:	090103        	lsi	f0, a1, 36
    69b6:	010002        	l8ui	a0, a0, 1
    69b9:	090103        	lsi	f0, a1, 36
    69bc:	010002        	l8ui	a0, a0, 1
    69bf:	090103        	lsi	f0, a1, 36
    69c2:	010002        	l8ui	a0, a0, 1
    69c5:	090103        	lsi	f0, a1, 36
    69c8:	010002        	l8ui	a0, a0, 1
    69cb:	090103        	lsi	f0, a1, 36
    69ce:	010002        	l8ui	a0, a0, 1
    69d1:	090103        	lsi	f0, a1, 36
    69d4:	010002        	l8ui	a0, a0, 1
    69d7:	090103        	lsi	f0, a1, 36
    69da:	010002        	l8ui	a0, a0, 1
    69dd:	090103        	lsi	f0, a1, 36
    69e0:	010002        	l8ui	a0, a0, 1
    69e3:	090103        	lsi	f0, a1, 36
    69e6:	010002        	l8ui	a0, a0, 1
    69e9:	090203        	lsi	f0, a2, 36
    69ec:	010003        	lsi	f0, a0, 4
    69ef:	090103        	lsi	f0, a1, 36
    69f2:	010002        	l8ui	a0, a0, 1
    69f5:	090103        	lsi	f0, a1, 36
    69f8:	010002        	l8ui	a0, a0, 1
    69fb:	090103        	lsi	f0, a1, 36
    69fe:	010002        	l8ui	a0, a0, 1
    6a01:	090103        	lsi	f0, a1, 36
    6a04:	010002        	l8ui	a0, a0, 1
    6a07:	090103        	lsi	f0, a1, 36
    6a0a:	010002        	l8ui	a0, a0, 1
    6a0d:	090103        	lsi	f0, a1, 36
    6a10:	010002        	l8ui	a0, a0, 1
    6a13:	090203        	lsi	f0, a2, 36
    6a16:	010002        	l8ui	a0, a0, 1
    6a19:	090103        	lsi	f0, a1, 36
    6a1c:	010002        	l8ui	a0, a0, 1
    6a1f:	090103        	lsi	f0, a1, 36
    6a22:	010002        	l8ui	a0, a0, 1
    6a25:	090103        	lsi	f0, a1, 36
    6a28:	010006        	j	6e2c <EXCVADDR+0x6d3e>
    6a2b:	090803        	lsi	f0, a8, 36
    6a2e:	010002        	l8ui	a0, a0, 1
    6a31:	090103        	lsi	f0, a1, 36
    6a34:	010003        	lsi	f0, a0, 4
    6a37:	090103        	lsi	f0, a1, 36
    6a3a:	010003        	lsi	f0, a0, 4
    6a3d:	090803        	lsi	f0, a8, 36
    6a40:	010002        	l8ui	a0, a0, 1
    6a43:	090103        	lsi	f0, a1, 36
    6a46:	010003        	lsi	f0, a0, 4
    6a49:	090103        	lsi	f0, a1, 36
    6a4c:	010003        	lsi	f0, a0, 4
    6a4f:	090803        	lsi	f0, a8, 36
    6a52:	010002        	l8ui	a0, a0, 1
    6a55:	090103        	lsi	f0, a1, 36
    6a58:	010003        	lsi	f0, a0, 4
    6a5b:	090103        	lsi	f0, a1, 36
    6a5e:	010003        	lsi	f0, a0, 4
    6a61:	090803        	lsi	f0, a8, 36
    6a64:	0e          	.byte 0xe
    6a65:	030100        	rsr.lend	a0
    6a68:	030901        	l32r	a0, fffc768c <_etext+0xbff439f8>
    6a6b:	030100        	rsr.lend	a0
    6a6e:	020901        	l32r	a0, fffc7294 <_etext+0xbff43600>
    6a71:	030100        	rsr.lend	a0
    6a74:	020901        	l32r	a0, fffc7298 <_etext+0xbff43604>
    6a77:	030100        	rsr.lend	a0
    6a7a:	030901        	l32r	a0, fffc76a0 <_etext+0xbff43a0c>
    6a7d:	030100        	rsr.lend	a0
    6a80:	030901        	l32r	a0, fffc76a4 <_etext+0xbff43a10>
    6a83:	030100        	rsr.lend	a0
    6a86:	020901        	l32r	a0, fffc72ac <_etext+0xbff43618>
    6a89:	030100        	rsr.lend	a0
    6a8c:	020901        	l32r	a0, fffc72b0 <_etext+0xbff4361c>
    6a8f:	030100        	rsr.lend	a0
    6a92:	030901        	l32r	a0, fffc76b8 <_etext+0xbff43a24>
    6a95:	030100        	rsr.lend	a0
    6a98:	020901        	l32r	a0, fffc72bc <_etext+0xbff43628>
    6a9b:	030100        	rsr.lend	a0
    6a9e:	020901        	l32r	a0, fffc72c4 <_etext+0xbff43630>
    6aa1:	030100        	rsr.lend	a0
    6aa4:	020901        	l32r	a0, fffc72c8 <_etext+0xbff43634>
    6aa7:	030100        	rsr.lend	a0
    6aaa:	030901        	l32r	a0, fffc76d0 <_etext+0xbff43a3c>
    6aad:	030100        	rsr.lend	a0
    6ab0:	020901        	l32r	a0, fffc72d4 <_etext+0xbff43640>
    6ab3:	030100        	rsr.lend	a0
    6ab6:	020901        	l32r	a0, fffc72dc <_etext+0xbff43648>
    6ab9:	030100        	rsr.lend	a0
    6abc:	020901        	l32r	a0, fffc72e0 <_etext+0xbff4364c>
    6abf:	030100        	rsr.lend	a0
    6ac2:	0908      	l32i.n	a0, a9, 0
    6ac4:	0009      	s32i.n	a0, a0, 0
    6ac6:	010301        	l32r	a0, fffc6ed4 <_etext+0xbff43240>
    6ac9:	0309      	s32i.n	a0, a3, 0
    6acb:	030100        	rsr.lend	a0
    6ace:	020901        	l32r	a0, fffc72f4 <_etext+0xbff43660>
    6ad1:	030100        	rsr.lend	a0
    6ad4:	020901        	l32r	a0, fffc72f8 <_etext+0xbff43664>
    6ad7:	030100        	rsr.lend	a0
    6ada:	030901        	l32r	a0, fffc7700 <_etext+0xbff43a6c>
    6add:	030100        	rsr.lend	a0
    6ae0:	020901        	l32r	a0, fffc7304 <_etext+0xbff43670>
    6ae3:	030100        	rsr.lend	a0
    6ae6:	030901        	l32r	a0, fffc770c <_etext+0xbff43a78>
    6ae9:	030100        	rsr.lend	a0
    6aec:	030901        	l32r	a0, fffc7710 <_etext+0xbff43a7c>
    6aef:	030100        	rsr.lend	a0
    6af2:	020901        	l32r	a0, fffc7318 <_etext+0xbff43684>
    6af5:	030100        	rsr.lend	a0
    6af8:	020901        	l32r	a0, fffc731c <_etext+0xbff43688>
    6afb:	030100        	rsr.lend	a0
    6afe:	020901        	l32r	a0, fffc7324 <_etext+0xbff43690>
    6b01:	030100        	rsr.lend	a0
    6b04:	020901        	l32r	a0, fffc7328 <_etext+0xbff43694>
    6b07:	030100        	rsr.lend	a0
    6b0a:	030901        	l32r	a0, fffc7730 <_etext+0xbff43a9c>
    6b0d:	030100        	rsr.lend	a0
    6b10:	030901        	l32r	a0, fffc7734 <_etext+0xbff43aa0>
    6b13:	030100        	rsr.lend	a0
    6b16:	020902        	l8ui	a0, a9, 2
    6b19:	030100        	rsr.lend	a0
    6b1c:	020901        	l32r	a0, fffc7340 <_etext+0xbff436ac>
    6b1f:	030100        	rsr.lend	a0
    6b22:	030901        	l32r	a0, fffc7748 <_etext+0xbff43ab4>
    6b25:	030100        	rsr.lend	a0
    6b28:	020902        	l8ui	a0, a9, 2
    6b2b:	030100        	rsr.lend	a0
    6b2e:	020901        	l32r	a0, fffc7354 <_etext+0xbff436c0>
    6b31:	030100        	rsr.lend	a0
    6b34:	020901        	l32r	a0, fffc7358 <_etext+0xbff436c4>
    6b37:	030100        	rsr.lend	a0
    6b3a:	0908      	l32i.n	a0, a9, 0
    6b3c:	010003        	lsi	f0, a0, 4
    6b3f:	090103        	lsi	f0, a1, 36
    6b42:	010003        	lsi	f0, a0, 4
    6b45:	090103        	lsi	f0, a1, 36
    6b48:	010002        	l8ui	a0, a0, 1
    6b4b:	090103        	lsi	f0, a1, 36
    6b4e:	010003        	lsi	f0, a0, 4
    6b51:	090103        	lsi	f0, a1, 36
    6b54:	010002        	l8ui	a0, a0, 1
    6b57:	090103        	lsi	f0, a1, 36
    6b5a:	010003        	lsi	f0, a0, 4
    6b5d:	090103        	lsi	f0, a1, 36
    6b60:	010002        	l8ui	a0, a0, 1
    6b63:	090103        	lsi	f0, a1, 36
    6b66:	010003        	lsi	f0, a0, 4
    6b69:	090103        	lsi	f0, a1, 36
    6b6c:	010003        	lsi	f0, a0, 4
    6b6f:	090103        	lsi	f0, a1, 36
    6b72:	010002        	l8ui	a0, a0, 1
    6b75:	090103        	lsi	f0, a1, 36
    6b78:	010002        	l8ui	a0, a0, 1
    6b7b:	090103        	lsi	f0, a1, 36
    6b7e:	010002        	l8ui	a0, a0, 1
    6b81:	090103        	lsi	f0, a1, 36
    6b84:	010002        	l8ui	a0, a0, 1
    6b87:	090103        	lsi	f0, a1, 36
    6b8a:	010003        	lsi	f0, a0, 4
    6b8d:	090203        	lsi	f0, a2, 36
    6b90:	010002        	l8ui	a0, a0, 1
    6b93:	090103        	lsi	f0, a1, 36
    6b96:	010002        	l8ui	a0, a0, 1
    6b99:	090203        	lsi	f0, a2, 36
    6b9c:	010002        	l8ui	a0, a0, 1
    6b9f:	090103        	lsi	f0, a1, 36
    6ba2:	010002        	l8ui	a0, a0, 1
    6ba5:	090103        	lsi	f0, a1, 36
    6ba8:	010003        	lsi	f0, a0, 4
    6bab:	090103        	lsi	f0, a1, 36
    6bae:	010003        	lsi	f0, a0, 4
    6bb1:	090103        	lsi	f0, a1, 36
    6bb4:	010002        	l8ui	a0, a0, 1
    6bb7:	090103        	lsi	f0, a1, 36
    6bba:	010002        	l8ui	a0, a0, 1
    6bbd:	090103        	lsi	f0, a1, 36
    6bc0:	010003        	lsi	f0, a0, 4
    6bc3:	090103        	lsi	f0, a1, 36
    6bc6:	010002        	l8ui	a0, a0, 1
    6bc9:	090103        	lsi	f0, a1, 36
    6bcc:	010002        	l8ui	a0, a0, 1
    6bcf:	090103        	lsi	f0, a1, 36
    6bd2:	010003        	lsi	f0, a0, 4
    6bd5:	090103        	lsi	f0, a1, 36
    6bd8:	010002        	l8ui	a0, a0, 1
    6bdb:	090203        	lsi	f0, a2, 36
    6bde:	010003        	lsi	f0, a0, 4
    6be1:	090103        	lsi	f0, a1, 36
    6be4:	010003        	lsi	f0, a0, 4
    6be7:	090103        	lsi	f0, a1, 36
    6bea:	010003        	lsi	f0, a0, 4
    6bed:	090503        	lsi	f0, a5, 36
    6bf0:	001d      	mov.n	a1, a0
    6bf2:	010301        	l32r	a0, fffc7000 <_etext+0xbff4336c>
    6bf5:	0309      	s32i.n	a0, a3, 0
    6bf7:	030100        	rsr.lend	a0
    6bfa:	030901        	l32r	a0, fffc7820 <_etext+0xbff43b8c>
    6bfd:	030100        	rsr.lend	a0
    6c00:	030901        	l32r	a0, fffc7824 <_etext+0xbff43b90>
    6c03:	030100        	rsr.lend	a0
    6c06:	020901        	l32r	a0, fffc742c <_etext+0xbff43798>
    6c09:	030100        	rsr.lend	a0
    6c0c:	020901        	l32r	a0, fffc7430 <_etext+0xbff4379c>
    6c0f:	030100        	rsr.lend	a0
    6c12:	020901        	l32r	a0, fffc7438 <_etext+0xbff437a4>
    6c15:	030100        	rsr.lend	a0
    6c18:	030901        	l32r	a0, fffc783c <_etext+0xbff43ba8>
    6c1b:	030100        	rsr.lend	a0
    6c1e:	030901        	l32r	a0, fffc7844 <_etext+0xbff43bb0>
    6c21:	030100        	rsr.lend	a0
    6c24:	020901        	l32r	a0, fffc7448 <_etext+0xbff437b4>
    6c27:	030100        	rsr.lend	a0
    6c2a:	030901        	l32r	a0, fffc7850 <_etext+0xbff43bbc>
    6c2d:	030100        	rsr.lend	a0
    6c30:	020901        	l32r	a0, fffc7454 <_etext+0xbff437c0>
    6c33:	030100        	rsr.lend	a0
    6c36:	020901        	l32r	a0, fffc745c <_etext+0xbff437c8>
    6c39:	030100        	rsr.lend	a0
    6c3c:	020901        	l32r	a0, fffc7460 <_etext+0xbff437cc>
    6c3f:	030100        	rsr.lend	a0
    6c42:	030901        	l32r	a0, fffc7868 <_etext+0xbff43bd4>
    6c45:	030100        	rsr.lend	a0
    6c48:	030901        	l32r	a0, fffc786c <_etext+0xbff43bd8>
    6c4b:	030100        	rsr.lend	a0
    6c4e:	020901        	l32r	a0, fffc7474 <_etext+0xbff437e0>
    6c51:	030100        	rsr.lend	a0
    6c54:	030901        	l32r	a0, fffc7878 <_etext+0xbff43be4>
    6c57:	030100        	rsr.lend	a0
    6c5a:	020901        	l32r	a0, fffc7480 <_etext+0xbff437ec>
    6c5d:	030100        	rsr.lend	a0
    6c60:	020901        	l32r	a0, fffc7484 <_etext+0xbff437f0>
    6c63:	030100        	rsr.lend	a0
    6c66:	030901        	l32r	a0, fffc788c <_etext+0xbff43bf8>
    6c69:	030100        	rsr.lend	a0
    6c6c:	020901        	l32r	a0, fffc7490 <_etext+0xbff437fc>
    6c6f:	030100        	rsr.lend	a0
    6c72:	020901        	l32r	a0, fffc7498 <_etext+0xbff43804>
    6c75:	030100        	rsr.lend	a0
    6c78:	030901        	l32r	a0, fffc789c <_etext+0xbff43c08>
    6c7b:	030100        	rsr.lend	a0
    6c7e:	020901        	l32r	a0, fffc74a4 <_etext+0xbff43810>
    6c81:	030100        	rsr.lend	a0
    6c84:	020901        	l32r	a0, fffc74a8 <_etext+0xbff43814>
    6c87:	030100        	rsr.lend	a0
    6c8a:	030901        	l32r	a0, fffc78b0 <_etext+0xbff43c1c>
    6c8d:	030100        	rsr.lend	a0
    6c90:	020901        	l32r	a0, fffc74b4 <_etext+0xbff43820>
    6c93:	030100        	rsr.lend	a0
    6c96:	020901        	l32r	a0, fffc74bc <_etext+0xbff43828>
    6c99:	030100        	rsr.lend	a0
    6c9c:	0908      	l32i.n	a0, a9, 0
    6c9e:	000c      	movi.n	a0, 0
    6ca0:	010301        	l32r	a0, fffc70ac <_etext+0xbff43418>
    6ca3:	0309      	s32i.n	a0, a3, 0
    6ca5:	030100        	rsr.lend	a0
    6ca8:	030901        	l32r	a0, fffc78cc <_etext+0xbff43c38>
    6cab:	030100        	rsr.lend	a0
    6cae:	030901        	l32r	a0, fffc78d4 <_etext+0xbff43c40>
    6cb1:	030100        	rsr.lend	a0
    6cb4:	020901        	l32r	a0, fffc74d8 <_etext+0xbff43844>
    6cb7:	030100        	rsr.lend	a0
    6cba:	020901        	l32r	a0, fffc74e0 <_etext+0xbff4384c>
    6cbd:	030100        	rsr.lend	a0
    6cc0:	020901        	l32r	a0, fffc74e4 <_etext+0xbff43850>
    6cc3:	030100        	rsr.lend	a0
    6cc6:	030901        	l32r	a0, fffc78ec <_etext+0xbff43c58>
    6cc9:	030100        	rsr.lend	a0
    6ccc:	030901        	l32r	a0, fffc78f0 <_etext+0xbff43c5c>
    6ccf:	030100        	rsr.lend	a0
    6cd2:	030901        	l32r	a0, fffc78f8 <_etext+0xbff43c64>
    6cd5:	030100        	rsr.lend	a0
    6cd8:	030901        	l32r	a0, fffc78fc <_etext+0xbff43c68>
    6cdb:	030100        	rsr.lend	a0
    6cde:	020901        	l32r	a0, fffc7504 <_etext+0xbff43870>
    6ce1:	030100        	rsr.lend	a0
    6ce4:	030901        	l32r	a0, fffc7908 <_etext+0xbff43c74>
    6ce7:	030100        	rsr.lend	a0
    6cea:	020901        	l32r	a0, fffc7510 <_etext+0xbff4387c>
    6ced:	030100        	rsr.lend	a0
    6cf0:	020901        	l32r	a0, fffc7514 <_etext+0xbff43880>
    6cf3:	030100        	rsr.lend	a0
    6cf6:	030901        	l32r	a0, fffc791c <_etext+0xbff43c88>
    6cf9:	030100        	rsr.lend	a0
    6cfc:	020901        	l32r	a0, fffc7520 <_etext+0xbff4388c>
    6cff:	030100        	rsr.lend	a0
    6d02:	020901        	l32r	a0, fffc7528 <_etext+0xbff43894>
    6d05:	030100        	rsr.lend	a0
    6d08:	0908      	l32i.n	a0, a9, 0
    6d0a:	010005        	call0	7d0c <EXCVADDR+0x7c1e>
    6d0d:	090103        	lsi	f0, a1, 36
    6d10:	010003        	lsi	f0, a0, 4
    6d13:	090103        	lsi	f0, a1, 36
    6d16:	010003        	lsi	f0, a0, 4
    6d19:	090103        	lsi	f0, a1, 36
    6d1c:	010003        	lsi	f0, a0, 4
    6d1f:	090103        	lsi	f0, a1, 36
    6d22:	010002        	l8ui	a0, a0, 1
    6d25:	090103        	lsi	f0, a1, 36
    6d28:	010002        	l8ui	a0, a0, 1
    6d2b:	090103        	lsi	f0, a1, 36
    6d2e:	010002        	l8ui	a0, a0, 1
    6d31:	090103        	lsi	f0, a1, 36
    6d34:	010003        	lsi	f0, a0, 4
    6d37:	090103        	lsi	f0, a1, 36
    6d3a:	010003        	lsi	f0, a0, 4
    6d3d:	090103        	lsi	f0, a1, 36
    6d40:	010003        	lsi	f0, a0, 4
    6d43:	090103        	lsi	f0, a1, 36
    6d46:	010003        	lsi	f0, a0, 4
    6d49:	090103        	lsi	f0, a1, 36
    6d4c:	010002        	l8ui	a0, a0, 1
    6d4f:	090103        	lsi	f0, a1, 36
    6d52:	010003        	lsi	f0, a0, 4
    6d55:	090103        	lsi	f0, a1, 36
    6d58:	010002        	l8ui	a0, a0, 1
    6d5b:	090103        	lsi	f0, a1, 36
    6d5e:	010002        	l8ui	a0, a0, 1
    6d61:	090103        	lsi	f0, a1, 36
    6d64:	010003        	lsi	f0, a0, 4
    6d67:	090103        	lsi	f0, a1, 36
    6d6a:	010002        	l8ui	a0, a0, 1
    6d6d:	090103        	lsi	f0, a1, 36
    6d70:	010002        	l8ui	a0, a0, 1
    6d73:	090603        	lsi	f0, a6, 36
    6d76:	010005        	call0	7d78 <EXCVADDR+0x7c8a>
    6d79:	090103        	lsi	f0, a1, 36
    6d7c:	010003        	lsi	f0, a0, 4
    6d7f:	090103        	lsi	f0, a1, 36
    6d82:	010002        	l8ui	a0, a0, 1
    6d85:	090103        	lsi	f0, a1, 36
    6d88:	010002        	l8ui	a0, a0, 1
    6d8b:	090103        	lsi	f0, a1, 36
    6d8e:	010002        	l8ui	a0, a0, 1
    6d91:	090103        	lsi	f0, a1, 36
    6d94:	010003        	lsi	f0, a0, 4
    6d97:	090103        	lsi	f0, a1, 36
    6d9a:	010002        	l8ui	a0, a0, 1
    6d9d:	090103        	lsi	f0, a1, 36
    6da0:	010002        	l8ui	a0, a0, 1
    6da3:	090103        	lsi	f0, a1, 36
    6da6:	010003        	lsi	f0, a0, 4
    6da9:	090103        	lsi	f0, a1, 36
    6dac:	010003        	lsi	f0, a0, 4
    6daf:	090103        	lsi	f0, a1, 36
    6db2:	010003        	lsi	f0, a0, 4
    6db5:	090103        	lsi	f0, a1, 36
    6db8:	010003        	lsi	f0, a0, 4
    6dbb:	090203        	lsi	f0, a2, 36
    6dbe:	0008      	l32i.n	a0, a0, 0
    6dc0:	010301        	l32r	a0, fffc71cc <_etext+0xbff43538>
    6dc3:	0209      	s32i.n	a0, a2, 0
    6dc5:	030100        	rsr.lend	a0
    6dc8:	020901        	l32r	a0, fffc75ec <_etext+0xbff43958>
    6dcb:	030100        	rsr.lend	a0
    6dce:	030901        	l32r	a0, fffc79f4 <_etext+0xbff43d60>
    6dd1:	030100        	rsr.lend	a0
    6dd4:	060901        	l32r	a0, fffc85f8 <_etext+0xbff44964>
    6dd7:	030100        	rsr.lend	a0
    6dda:	030901        	l32r	a0, fffc7a00 <_etext+0xbff43d6c>
    6ddd:	030100        	rsr.lend	a0
    6de0:	020901        	l32r	a0, fffc7604 <_etext+0xbff43970>
    6de3:	030100        	rsr.lend	a0
    6de6:	060901        	l32r	a0, fffc860c <_etext+0xbff44978>
    6de9:	030100        	rsr.lend	a0
    6dec:	030901        	l32r	a0, fffc7a10 <_etext+0xbff43d7c>
    6def:	030100        	rsr.lend	a0
    6df2:	030901        	l32r	a0, fffc7a18 <_etext+0xbff43d84>
    6df5:	030100        	rsr.lend	a0
    6df8:	060901        	l32r	a0, fffc861c <_etext+0xbff44988>
    6dfb:	030100        	rsr.lend	a0
    6dfe:	060901        	l32r	a0, fffc8624 <_etext+0xbff44990>
    6e01:	030100        	rsr.lend	a0
    6e04:	060901        	l32r	a0, fffc8628 <_etext+0xbff44994>
    6e07:	030100        	rsr.lend	a0
    6e0a:	030903        	lsi	f0, a9, 12
    6e0d:	030100        	rsr.lend	a0
    6e10:	0908      	l32i.n	a0, a9, 0
    6e12:	0009      	s32i.n	a0, a0, 0
    6e14:	010301        	l32r	a0, fffc7220 <_etext+0xbff4358c>
    6e17:	0309      	s32i.n	a0, a3, 0
    6e19:	030100        	rsr.lend	a0
    6e1c:	030901        	l32r	a0, fffc7a40 <_etext+0xbff43dac>
    6e1f:	030100        	rsr.lend	a0
    6e22:	030901        	l32r	a0, fffc7a48 <_etext+0xbff43db4>
    6e25:	030100        	rsr.lend	a0
    6e28:	030901        	l32r	a0, fffc7a4c <_etext+0xbff43db8>
    6e2b:	030100        	rsr.lend	a0
    6e2e:	030901        	l32r	a0, fffc7a54 <_etext+0xbff43dc0>
    6e31:	030100        	rsr.lend	a0
    6e34:	020901        	l32r	a0, fffc7658 <_etext+0xbff439c4>
    6e37:	030100        	rsr.lend	a0
    6e3a:	030901        	l32r	a0, fffc7a60 <_etext+0xbff43dcc>
    6e3d:	030100        	rsr.lend	a0
    6e40:	020901        	l32r	a0, fffc7664 <_etext+0xbff439d0>
    6e43:	030100        	rsr.lend	a0
    6e46:	020901        	l32r	a0, fffc766c <_etext+0xbff439d8>
    6e49:	030100        	rsr.lend	a0
    6e4c:	020901        	l32r	a0, fffc7670 <_etext+0xbff439dc>
    6e4f:	030100        	rsr.lend	a0
    6e52:	020901        	l32r	a0, fffc7678 <_etext+0xbff439e4>
    6e55:	030100        	rsr.lend	a0
    6e58:	020901        	l32r	a0, fffc767c <_etext+0xbff439e8>
    6e5b:	030100        	rsr.lend	a0
    6e5e:	020901        	l32r	a0, fffc7684 <_etext+0xbff439f0>
    6e61:	030100        	rsr.lend	a0
    6e64:	020901        	l32r	a0, fffc7688 <_etext+0xbff439f4>
    6e67:	030100        	rsr.lend	a0
    6e6a:	020901        	l32r	a0, fffc7690 <_etext+0xbff439fc>
    6e6d:	030100        	rsr.lend	a0
    6e70:	020901        	l32r	a0, fffc7694 <_etext+0xbff43a00>
    6e73:	030100        	rsr.lend	a0
    6e76:	020901        	l32r	a0, fffc769c <_etext+0xbff43a08>
    6e79:	030100        	rsr.lend	a0
    6e7c:	020901        	l32r	a0, fffc76a0 <_etext+0xbff43a0c>
    6e7f:	030100        	rsr.lend	a0
    6e82:	020901        	l32r	a0, fffc76a8 <_etext+0xbff43a14>
    6e85:	030100        	rsr.lend	a0
    6e88:	020901        	l32r	a0, fffc76ac <_etext+0xbff43a18>
    6e8b:	030100        	rsr.lend	a0
    6e8e:	020901        	l32r	a0, fffc76b4 <_etext+0xbff43a20>
    6e91:	030100        	rsr.lend	a0
    6e94:	020901        	l32r	a0, fffc76b8 <_etext+0xbff43a24>
    6e97:	030100        	rsr.lend	a0
    6e9a:	030901        	l32r	a0, fffc7ac0 <_etext+0xbff43e2c>
    6e9d:	030100        	rsr.lend	a0
    6ea0:	020901        	l32r	a0, fffc76c4 <_etext+0xbff43a30>
    6ea3:	030100        	rsr.lend	a0
    6ea6:	020901        	l32r	a0, fffc76cc <_etext+0xbff43a38>
    6ea9:	030100        	rsr.lend	a0
    6eac:	020901        	l32r	a0, fffc76d0 <_etext+0xbff43a3c>
    6eaf:	030100        	rsr.lend	a0
    6eb2:	020901        	l32r	a0, fffc76d8 <_etext+0xbff43a44>
    6eb5:	030100        	rsr.lend	a0
    6eb8:	020901        	l32r	a0, fffc76dc <_etext+0xbff43a48>
    6ebb:	030100        	rsr.lend	a0
    6ebe:	020901        	l32r	a0, fffc76e4 <_etext+0xbff43a50>
    6ec1:	030100        	rsr.lend	a0
    6ec4:	020901        	l32r	a0, fffc76e8 <_etext+0xbff43a54>
    6ec7:	030100        	rsr.lend	a0
    6eca:	020901        	l32r	a0, fffc76f0 <_etext+0xbff43a5c>
    6ecd:	030100        	rsr.lend	a0
    6ed0:	020901        	l32r	a0, fffc76f4 <_etext+0xbff43a60>
    6ed3:	030100        	rsr.lend	a0
    6ed6:	020901        	l32r	a0, fffc76fc <_etext+0xbff43a68>
    6ed9:	030100        	rsr.lend	a0
    6edc:	030901        	l32r	a0, fffc7b00 <_etext+0xbff43e6c>
    6edf:	030100        	rsr.lend	a0
    6ee2:	030901        	l32r	a0, fffc7b08 <_etext+0xbff43e74>
    6ee5:	030100        	rsr.lend	a0
    6ee8:	030901        	l32r	a0, fffc7b0c <_etext+0xbff43e78>
    6eeb:	030100        	rsr.lend	a0
    6eee:	030901        	l32r	a0, fffc7b14 <_etext+0xbff43e80>
    6ef1:	030100        	rsr.lend	a0
    6ef4:	030901        	l32r	a0, fffc7b18 <_etext+0xbff43e84>
    6ef7:	030100        	rsr.lend	a0
    6efa:	060901        	l32r	a0, fffc8720 <_etext+0xbff44a8c>
    6efd:	030100        	rsr.lend	a0
    6f00:	020901        	l32r	a0, fffc7724 <_etext+0xbff43a90>
    6f03:	030100        	rsr.lend	a0
    6f06:	020901        	l32r	a0, fffc772c <_etext+0xbff43a98>
    6f09:	030100        	rsr.lend	a0
    6f0c:	060901        	l32r	a0, fffc8730 <_etext+0xbff44a9c>
    6f0f:	030100        	rsr.lend	a0
    6f12:	060901        	l32r	a0, fffc8738 <_etext+0xbff44aa4>
    6f15:	090100        	l32e	a0, a1, -64
    6f18:	000002        	l8ui	a0, a0, 0
    6f1b:	000101        	l32r	a0, fffc6f20 <_etext+0xbff4328c>
    6f1e:	8c0205        	call0	fff92f40 <_etext+0xbff0f2ac>
    6f21:	083c      	movi.n	a8, 48
    6f23:	ba0340        	ceil.s	a0, f3, 4
    6f26:	030107        	bnone	a1, a0, 6f2d <EXCVADDR+0x6e3f>
    6f29:	030901        	l32r	a0, fffc7b50 <_etext+0xbff43ebc>
    6f2c:	030100        	rsr.lend	a0
    6f2f:	030901        	l32r	a0, fffc7b54 <_etext+0xbff43ec0>
    6f32:	090100        	l32e	a0, a1, -64
    6f35:	000002        	l8ui	a0, a0, 0
    6f38:	340101        	l32r	a0, fffd3f3c <_etext+0xbff502a8>
    6f3b:	000001        	l32r	a0, fffc6f3c <_etext+0xbff432a8>
    6f3e:	220002        	l8ui	a0, a0, 34
    6f41:	000000        	ill
    6f44:	fb0101        	l32r	a0, 5b48 <EXCVADDR+0x5a5a>
    6f47:	0e          	.byte 0xe
    6f48:	000d      	mov.n	a0, a0
    6f4a:	010101        	l32r	a0, fffc7350 <_etext+0xbff436bc>
    6f4d:	000001        	l32r	a0, fffc6f50 <_etext+0xbff432bc>
    6f50:	000100        	lsi	f0, a1, 0
    6f53:	690100        	lsi	f0, a1, 0x1a4
    6f56:	6e          	.byte 0x6e
    6f57:	7469      	s32i.n	a6, a4, 28
    6f59:	690000        	lsi	f0, a0, 0x1a4
    6f5c:	6e          	.byte 0x6e
    6f5d:	7469      	s32i.n	a6, a4, 28
    6f5f:	2e          	.byte 0x2e
    6f60:	010053        	lsi	f5, a0, 4
    6f63:	000000        	ill
    6f66:	020500        	andb	b0, b5, b0
    6f69:	0804e4        	lsi	f14, a4, 32
    6f6c:	320340        	orbc	b0, b3, b4
    6f6f:	0c0301        	l32r	a0, fffc9f7c <_etext+0xbff462e8>
    6f72:	1409      	s32i.n	a0, a4, 4
    6f74:	030100        	rsr.lend	a0
    6f77:	030901        	l32r	a0, fffc7b9c <_etext+0xbff43f08>
    6f7a:	030100        	rsr.lend	a0
    6f7d:	020901        	l32r	a0, fffc77a4 <_etext+0xbff43b10>
    6f80:	030100        	rsr.lend	a0
    6f83:	030901        	l32r	a0, fffc7ba8 <_etext+0xbff43f14>
    6f86:	030100        	rsr.lend	a0
    6f89:	030901        	l32r	a0, fffc7bb0 <_etext+0xbff43f1c>
    6f8c:	030100        	rsr.lend	a0
    6f8f:	030902        	l8ui	a0, a9, 3
    6f92:	030100        	rsr.lend	a0
    6f95:	030901        	l32r	a0, fffc7bbc <_etext+0xbff43f28>
    6f98:	030100        	rsr.lend	a0
    6f9b:	030904        	lsi	f0, a9, 12
    6f9e:	030100        	rsr.lend	a0
    6fa1:	030901        	l32r	a0, fffc7bc8 <_etext+0xbff43f34>
    6fa4:	030100        	rsr.lend	a0
    6fa7:	030901        	l32r	a0, fffc7bcc <_etext+0xbff43f38>
    6faa:	030100        	rsr.lend	a0
    6fad:	030901        	l32r	a0, fffc7bd4 <_etext+0xbff43f40>
    6fb0:	030100        	rsr.lend	a0
    6fb3:	020901        	l32r	a0, fffc77d8 <_etext+0xbff43b44>
    6fb6:	030100        	rsr.lend	a0
    6fb9:	030901        	l32r	a0, fffc7be0 <_etext+0xbff43f4c>
    6fbc:	030100        	rsr.lend	a0
    6fbf:	030901        	l32r	a0, fffc7be4 <_etext+0xbff43f50>
    6fc2:	030100        	rsr.lend	a0
    6fc5:	030901        	l32r	a0, fffc7bec <_etext+0xbff43f58>
    6fc8:	030100        	rsr.lend	a0
    6fcb:	020901        	l32r	a0, fffc77f0 <_etext+0xbff43b5c>
    6fce:	030100        	rsr.lend	a0
    6fd1:	020917        	bnone	a9, a1, 6fd7 <EXCVADDR+0x6ee9>
    6fd4:	030100        	rsr.lend	a0
    6fd7:	030901        	l32r	a0, fffc7bfc <_etext+0xbff43f68>
    6fda:	030100        	rsr.lend	a0
    6fdd:	030901        	l32r	a0, fffc7c04 <_etext+0xbff43f70>
    6fe0:	030100        	rsr.lend	a0
    6fe3:	030901        	l32r	a0, fffc7c08 <_etext+0xbff43f74>
    6fe6:	030100        	rsr.lend	a0
    6fe9:	020901        	l32r	a0, fffc7810 <_etext+0xbff43b7c>
    6fec:	030100        	rsr.lend	a0
    6fef:	030901        	l32r	a0, fffc7c14 <_etext+0xbff43f80>
    6ff2:	030100        	rsr.lend	a0
    6ff5:	030901        	l32r	a0, fffc7c1c <_etext+0xbff43f88>
    6ff8:	030100        	rsr.lend	a0
    6ffb:	030901        	l32r	a0, fffc7c20 <_etext+0xbff43f8c>
    6ffe:	030100        	rsr.lend	a0
    7001:	020901        	l32r	a0, fffc7828 <_etext+0xbff43b94>
    7004:	030100        	rsr.lend	a0
    7007:	030901        	l32r	a0, fffc7c2c <_etext+0xbff43f98>
    700a:	030100        	rsr.lend	a0
    700d:	020904        	lsi	f0, a9, 8
    7010:	030100        	rsr.lend	a0
    7013:	090b      	addi.n	a0, a9, -1
    7015:	000d      	mov.n	a0, a0
    7017:	010301        	l32r	a0, fffc7424 <_etext+0xbff43790>
    701a:	0309      	s32i.n	a0, a3, 0
    701c:	030100        	rsr.lend	a0
    701f:	020901        	l32r	a0, fffc7844 <_etext+0xbff43bb0>
    7022:	030100        	rsr.lend	a0
    7025:	030901        	l32r	a0, fffc7c4c <_etext+0xbff43fb8>
    7028:	030100        	rsr.lend	a0
    702b:	020901        	l32r	a0, fffc7850 <_etext+0xbff43bbc>
    702e:	030100        	rsr.lend	a0
    7031:	030901        	l32r	a0, fffc7c58 <_etext+0xbff43fc4>
    7034:	030100        	rsr.lend	a0
    7037:	020901        	l32r	a0, fffc785c <_etext+0xbff43bc8>
    703a:	030100        	rsr.lend	a0
    703d:	090b      	addi.n	a0, a9, -1
    703f:	010011        	l32r	a1, fffc7440 <_etext+0xbff437ac>
    7042:	090403        	lsi	f0, a4, 36
    7045:	010003        	lsi	f0, a0, 4
    7048:	090103        	lsi	f0, a1, 36
    704b:	010003        	lsi	f0, a0, 4
    704e:	090103        	lsi	f0, a1, 36
    7051:	010003        	lsi	f0, a0, 4
    7054:	090303        	lsi	f0, a3, 36
    7057:	010002        	l8ui	a0, a0, 1
    705a:	090103        	lsi	f0, a1, 36
    705d:	010003        	lsi	f0, a0, 4
    7060:	090103        	lsi	f0, a1, 36
    7063:	010002        	l8ui	a0, a0, 1
    7066:	090203        	lsi	f0, a2, 36
    7069:	010002        	l8ui	a0, a0, 1
    706c:	0209      	s32i.n	a0, a2, 0
    706e:	010000        	slli	a0, a0, 32
    7071:	018901        	l32r	a0, fffc7698 <_etext+0xbff43a04>
    7074:	020000        	andb	b0, b0, b0
    7077:	002900        	lsi	f0, a9, 0
    707a:	010000        	slli	a0, a0, 32
    707d:	0efb01        	l32r	a0, fffcac6c <_etext+0xbff46fd8>
    7080:	000d      	mov.n	a0, a0
    7082:	010101        	l32r	a0, fffc7488 <_etext+0xbff437f4>
    7085:	000001        	l32r	a0, fffc7088 <_etext+0xbff433f4>
    7088:	000100        	lsi	f0, a1, 0
    708b:	730100        	maxu	a0, a1, a0
    708e:	006372        	s32i	a7, a3, 0
    7091:	616d00        	lsi	f0, a13, 0x184
    7094:	5f6874        	lsi	f7, a8, 0x17c
    7097:	707573        	lsi	f7, a5, 0x1c0
    709a:	726f70        	lsi	f7, a15, 0x1c8
    709d:	532e74        	lsi	f7, a14, 0x14c
    70a0:	000100        	lsi	f0, a1, 0
    70a3:	000000        	ill
    70a6:	000205        	call0	70c8 <EXCVADDR+0x6fda>
    70a9:	400804        	lsi	f0, a8, 0x100
    70ac:	011403        	lsi	f0, a4, 4
    70af:	090103        	lsi	f0, a1, 36
    70b2:	010003        	lsi	f0, a0, 4
    70b5:	090103        	lsi	f0, a1, 36
    70b8:	010003        	lsi	f0, a0, 4
    70bb:	090103        	lsi	f0, a1, 36
    70be:	010003        	lsi	f0, a0, 4
    70c1:	090103        	lsi	f0, a1, 36
    70c4:	010003        	lsi	f0, a0, 4
    70c7:	090103        	lsi	f0, a1, 36
    70ca:	010003        	lsi	f0, a0, 4
    70cd:	090103        	lsi	f0, a1, 36
    70d0:	010003        	lsi	f0, a0, 4
    70d3:	090103        	lsi	f0, a1, 36
    70d6:	010003        	lsi	f0, a0, 4
    70d9:	090103        	lsi	f0, a1, 36
    70dc:	010003        	lsi	f0, a0, 4
    70df:	090103        	lsi	f0, a1, 36
    70e2:	010003        	lsi	f0, a0, 4
    70e5:	090103        	lsi	f0, a1, 36
    70e8:	010003        	lsi	f0, a0, 4
    70eb:	090103        	lsi	f0, a1, 36
    70ee:	010003        	lsi	f0, a0, 4
    70f1:	090103        	lsi	f0, a1, 36
    70f4:	010003        	lsi	f0, a0, 4
    70f7:	090103        	lsi	f0, a1, 36
    70fa:	010003        	lsi	f0, a0, 4
    70fd:	090103        	lsi	f0, a1, 36
    7100:	010003        	lsi	f0, a0, 4
    7103:	090103        	lsi	f0, a1, 36
    7106:	010003        	lsi	f0, a0, 4
    7109:	090103        	lsi	f0, a1, 36
    710c:	010003        	lsi	f0, a0, 4
    710f:	090103        	lsi	f0, a1, 36
    7112:	010003        	lsi	f0, a0, 4
    7115:	090103        	lsi	f0, a1, 36
    7118:	010003        	lsi	f0, a0, 4
    711b:	090103        	lsi	f0, a1, 36
    711e:	010003        	lsi	f0, a0, 4
    7121:	090103        	lsi	f0, a1, 36
    7124:	010003        	lsi	f0, a0, 4
    7127:	090103        	lsi	f0, a1, 36
    712a:	010003        	lsi	f0, a0, 4
    712d:	090103        	lsi	f0, a1, 36
    7130:	010003        	lsi	f0, a0, 4
    7133:	090103        	lsi	f0, a1, 36
    7136:	010003        	lsi	f0, a0, 4
    7139:	090103        	lsi	f0, a1, 36
    713c:	010003        	lsi	f0, a0, 4
    713f:	090103        	lsi	f0, a1, 36
    7142:	010003        	lsi	f0, a0, 4
    7145:	090503        	lsi	f0, a5, 36
    7148:	010005        	call0	814c <EXCVADDR+0x805e>
    714b:	090103        	lsi	f0, a1, 36
    714e:	010003        	lsi	f0, a0, 4
    7151:	090103        	lsi	f0, a1, 36
    7154:	010003        	lsi	f0, a0, 4
    7157:	090103        	lsi	f0, a1, 36
    715a:	010003        	lsi	f0, a0, 4
    715d:	090103        	lsi	f0, a1, 36
    7160:	010003        	lsi	f0, a0, 4
    7163:	090103        	lsi	f0, a1, 36
    7166:	010003        	lsi	f0, a0, 4
    7169:	090103        	lsi	f0, a1, 36
    716c:	010003        	lsi	f0, a0, 4
    716f:	090103        	lsi	f0, a1, 36
    7172:	010003        	lsi	f0, a0, 4
    7175:	090103        	lsi	f0, a1, 36
    7178:	010003        	lsi	f0, a0, 4
    717b:	090103        	lsi	f0, a1, 36
    717e:	010003        	lsi	f0, a0, 4
    7181:	090103        	lsi	f0, a1, 36
    7184:	010003        	lsi	f0, a0, 4
    7187:	090103        	lsi	f0, a1, 36
    718a:	010003        	lsi	f0, a0, 4
    718d:	090103        	lsi	f0, a1, 36
    7190:	010003        	lsi	f0, a0, 4
    7193:	090103        	lsi	f0, a1, 36
    7196:	010003        	lsi	f0, a0, 4
    7199:	090103        	lsi	f0, a1, 36
    719c:	010003        	lsi	f0, a0, 4
    719f:	090103        	lsi	f0, a1, 36
    71a2:	010003        	lsi	f0, a0, 4
    71a5:	090103        	lsi	f0, a1, 36
    71a8:	010003        	lsi	f0, a0, 4
    71ab:	090103        	lsi	f0, a1, 36
    71ae:	010003        	lsi	f0, a0, 4
    71b1:	090103        	lsi	f0, a1, 36
    71b4:	010003        	lsi	f0, a0, 4
    71b7:	090103        	lsi	f0, a1, 36
    71ba:	010003        	lsi	f0, a0, 4
    71bd:	090103        	lsi	f0, a1, 36
    71c0:	010003        	lsi	f0, a0, 4
    71c3:	090103        	lsi	f0, a1, 36
    71c6:	010003        	lsi	f0, a0, 4
    71c9:	090103        	lsi	f0, a1, 36
    71cc:	010003        	lsi	f0, a0, 4
    71cf:	090103        	lsi	f0, a1, 36
    71d2:	010003        	lsi	f0, a0, 4
    71d5:	090103        	lsi	f0, a1, 36
    71d8:	010003        	lsi	f0, a0, 4
    71db:	090103        	lsi	f0, a1, 36
    71de:	010003        	lsi	f0, a0, 4
    71e1:	090103        	lsi	f0, a1, 36
    71e4:	010003        	lsi	f0, a0, 4
    71e7:	090103        	lsi	f0, a1, 36
    71ea:	010003        	lsi	f0, a0, 4
    71ed:	090103        	lsi	f0, a1, 36
    71f0:	010003        	lsi	f0, a0, 4
    71f3:	090103        	lsi	f0, a1, 36
    71f6:	010003        	lsi	f0, a0, 4
    71f9:	0209      	s32i.n	a0, a2, 0
    71fb:	010000        	slli	a0, a0, 32
    71fe:	01          	.byte 0x1

Disassembly of section .debug_info:

00000000 <.debug_info>:
   0:	1e          	.byte 0x1e
   1:	000000        	ill
   4:	000002        	l8ui	a0, a0, 0
   7:	000000        	ill
   a:	000104        	lsi	f0, a1, 0
	...
  15:	000000        	ill
  18:	000d      	mov.n	a0, a0
  1a:	3a0000        	lsi	f0, a0, 232
  1d:	000000        	ill
  20:	1e8001        	l32r	a0, fffc7a20 <_etext+0xbff43d8c>
  23:	000000        	ill
  26:	120002        	l8ui	a0, a0, 18
  29:	000000        	ill
  2c:	910104        	lsi	f0, a1, 0x244
  2f:	000001        	l32r	a0, fffc0030 <_etext+0xbff3c39c>
  32:	000020        	lsi	f2, a0, 0
  35:	004800        	break	8, 0
  38:	0d0000        	lsi	f0, a0, 52
  3b:	000000        	ill
  3e:	003a      	add.n	a0, a0, a3
  40:	010000        	slli	a0, a0, 32
  43:	001e80        	movsp	a8, a14
  46:	020000        	andb	b0, b0, b0
  49:	002400        	lsi	f0, a4, 0
  4c:	040000        	extui	a0, a0, 0, 1
  4f:	0eb201        	l32r	a0, fffc3b18 <_etext+0xbff3fe84>
  52:	400000        	ssr	a0
  55:	000000        	ill
  58:	000055        	call4	60 <XT_STK_LCOUNT>
  5b:	000d00        	lsi	f0, a13, 0
  5e:	3a0000        	lsi	f0, a0, 232
  61:	000000        	ill
  64:	1e8001        	l32r	a0, fffc7a64 <_etext+0xbff43dd0>
  67:	000000        	ill
  6a:	360002        	l8ui	a0, a0, 54
  6d:	000000        	ill
  70:	3f0104        	muls.ad.hh	a1, m2
  73:	000015        	call4	74 <XtExcFrameSize+0x4>
  76:	000060        	lsi	f6, a0, 0
  79:	006500        	rsil	a0, 5
  7c:	0d0000        	lsi	f0, a0, 52
  7f:	000000        	ill
  82:	003a      	add.n	a0, a0, a3
  84:	010000        	slli	a0, a0, 32
  87:	001e80        	movsp	a8, a14
  8a:	020000        	andb	b0, b0, b0
  8d:	004800        	break	8, 0
  90:	040000        	extui	a0, a0, 0, 1
  93:	239801        	l32r	a0, fffc8ef4 <_etext+0xbff45260>
  96:	800000        	add	a0, a0, a0
  99:	000000        	ill
  9c:	7e          	.byte 0x7e
  9d:	000000        	ill
  a0:	000d      	mov.n	a0, a0
  a2:	3a0000        	lsi	f0, a0, 232
  a5:	000000        	ill
  a8:	1e8001        	l32r	a0, fffc7aa8 <_etext+0xbff43e14>
  ab:	000000        	ill
  ae:	5a0002        	l8ui	a0, a0, 90
  b1:	000000        	ill
  b4:	070104        	lsi	f0, a1, 28
  b7:	2e          	.byte 0x2e
  b8:	a00000        	addx4	a0, a0, a0
  bb:	000000        	ill
  be:	008b      	addi.n	a0, a0, 8
  c0:	0d0000        	lsi	f0, a0, 52
  c3:	000000        	ill
  c6:	003a      	add.n	a0, a0, a3
  c8:	010000        	slli	a0, a0, 32
  cb:	001e80        	movsp	a8, a14
  ce:	020000        	andb	b0, b0, b0
  d1:	006c00        	rsil	a0, 12
  d4:	040000        	extui	a0, a0, 0, 1
  d7:	3aca01        	l32r	a0, fffcec00 <_etext+0xbff4af6c>
  da:	c00000        	sub	a0, a0, a0
  dd:	000000        	ill
  e0:	009b      	addi.n	a0, a0, 9
  e2:	0d0000        	lsi	f0, a0, 52
  e5:	000000        	ill
  e8:	003a      	add.n	a0, a0, a3
  ea:	010000        	slli	a0, a0, 32
  ed:	001e80        	movsp	a8, a14
  f0:	020000        	andb	b0, b0, b0
  f3:	007e00        	waiti	14
  f6:	040000        	extui	a0, a0, 0, 1
  f9:	405201        	l32r	a0, fffd0244 <_etext+0xbff4c5b0>
  fc:	e00000        	subx4	a0, a0, a0
  ff:	000000        	ill
 102:	ae          	.byte 0xae
 103:	000000        	ill
 106:	000d      	mov.n	a0, a0
 108:	3a0000        	lsi	f0, a0, 232
 10b:	000000        	ill
 10e:	1e8001        	l32r	a0, fffc7b10 <_etext+0xbff43e7c>
 111:	000000        	ill
 114:	900002        	l8ui	a0, a0, 144
 117:	000000        	ill
 11a:	ec0104        	lsi	f0, a1, 0x3b0
 11d:	000045        	call0	124 <EXCVADDR+0x36>
 120:	000100        	lsi	f0, a1, 0
 123:	00c100        	lsi	f0, a1, 0
 126:	0d0000        	lsi	f0, a0, 52
 129:	000000        	ill
 12c:	003a      	add.n	a0, a0, a3
 12e:	010000        	slli	a0, a0, 32
 131:	001e80        	movsp	a8, a14
 134:	020000        	andb	b0, b0, b0
 137:	00a200        	any8	b0, b0:b1:b2:b3:b4:b5:b6:b7
 13a:	040000        	extui	a0, a0, 0, 1
 13d:	4b9301        	l32r	a0, fffd2f8c <_etext+0xbff4f2f8>
 140:	200000        	or	a0, a0, a0
 143:	000001        	l32r	a0, fffc0144 <_etext+0xbff3c4b0>
 146:	0000d5        	call4	154 <EXCVADDR+0x66>
 149:	000d00        	lsi	f0, a13, 0
 14c:	3a0000        	lsi	f0, a0, 232
 14f:	000000        	ill
 152:	1e8001        	l32r	a0, fffc7b54 <_etext+0xbff43ec0>
 155:	000000        	ill
 158:	b40002        	l8ui	a0, a0, 180
 15b:	000000        	ill
 15e:	1f0104        	lsi	f0, a1, 124
 161:	000050        	lsi	f5, a0, 0
 164:	000140        	lsi	f4, a1, 0
 167:	00e200        	lsi	f0, a2, 0
 16a:	ee0000        	f64iter	a0, a0, a0, 2, 1
 16d:	000000        	ill
 170:	003a      	add.n	a0, a0, a3
 172:	010000        	slli	a0, a0, 32
 175:	001e80        	movsp	a8, a14
 178:	020000        	andb	b0, b0, b0
 17b:	00c600        	lsi	f0, a6, 0
 17e:	040000        	extui	a0, a0, 0, 1
 181:	5d2c01        	l32r	a0, fffd7634 <_etext+0xbff539a0>
 184:	600000        	neg	a0, a0
 187:	000001        	l32r	a0, fffc0188 <_etext+0xbff3c4f4>
 18a:	011a      	add.n	a0, a1, a1
 18c:	ee0000        	f64iter	a0, a0, a0, 2, 1
 18f:	000000        	ill
 192:	003a      	add.n	a0, a0, a3
 194:	010000        	slli	a0, a0, 32
 197:	002280        	lsi	f8, a2, 0
 19a:	020000        	andb	b0, b0, b0
 19d:	00d800        	lsi	f0, a8, 0
 1a0:	040000        	extui	a0, a0, 0, 1
 1a3:	6f3a01        	l32r	a0, fffdbe8c <_etext+0xbff581f8>
 1a6:	e40000        	extui	a0, a0, 0, 15
 1a9:	400804        	lsi	f0, a8, 0x100
 1ac:	080580        	lsx	f0, a5, a8
 1af:	012940        	slli	a2, a9, 28
 1b2:	ee0000        	f64iter	a0, a0, a0, 2, 1
 1b5:	000000        	ill
 1b8:	003a      	add.n	a0, a0, a3
 1ba:	010000        	slli	a0, a0, 32
 1bd:	002280        	lsi	f8, a2, 0
 1c0:	020000        	andb	b0, b0, b0
 1c3:	00ec00        	lsi	f0, a12, 0
 1c6:	040000        	extui	a0, a0, 0, 1
 1c9:	707201        	l32r	a0, fffdc394 <_etext+0xbff58700>
 1cc:	000000        	ill
 1cf:	400804        	lsi	f0, a8, 0x100
 1d2:	04a9      	s32i.n	a10, a4, 0
 1d4:	4008      	l32i.n	a0, a0, 16
 1d6:	000135        	call12	1e8 <EXCVADDR+0xfa>
 1d9:	00ee00        	lsi	f0, a14, 0
 1dc:	3a0000        	lsi	f0, a0, 232
 1df:	000000        	ill
 1e2:	01          	.byte 0x1
 1e3:	80          	.byte 0x80

Disassembly of section .debug_abbrev:

00000000 <.debug_abbrev>:
   0:	001101        	l32r	a0, fffc0044 <_etext+0xbff3c3b0>
   3:	550610        	extui	a0, a1, 22, 6
   6:	0e0306        	j	3816 <EXCVADDR+0x3728>
   9:	0e1b      	addi.n	a0, a14, 1
   b:	130e25        	call8	130ec <EXCVADDR+0x12ffe>
   e:	000005        	call0	10 <XT_STK_A1>
  11:	110100        	slli	a0, a1, 16
  14:	061000        	lsi	f0, a0, 24
  17:	030655        	call4	307c <EXCVADDR+0x2f8e>
  1a:	0e          	.byte 0xe
  1b:	0e1b      	addi.n	a0, a14, 1
  1d:	130e25        	call8	13100 <EXCVADDR+0x13012>
  20:	000005        	call0	24 <XT_STK_A6>
  23:	110100        	slli	a0, a1, 16
  26:	061000        	lsi	f0, a0, 24
  29:	030655        	call4	3090 <EXCVADDR+0x2fa2>
  2c:	0e          	.byte 0xe
  2d:	0e1b      	addi.n	a0, a14, 1
  2f:	130e25        	call8	13110 <EXCVADDR+0x13022>
  32:	000005        	call0	34 <XT_STK_A10>
  35:	110100        	slli	a0, a1, 16
  38:	061000        	lsi	f0, a0, 24
  3b:	030655        	call4	30a0 <EXCVADDR+0x2fb2>
  3e:	0e          	.byte 0xe
  3f:	0e1b      	addi.n	a0, a14, 1
  41:	130e25        	call8	13124 <EXCVADDR+0x13036>
  44:	000005        	call0	48 <WINDOWBASE>
  47:	110100        	slli	a0, a1, 16
  4a:	061000        	lsi	f0, a0, 24
  4d:	030655        	call4	30b4 <EXCVADDR+0x2fc6>
  50:	0e          	.byte 0xe
  51:	0e1b      	addi.n	a0, a14, 1
  53:	130e25        	call8	13134 <EXCVADDR+0x13046>
  56:	000005        	call0	58 <XT_STK_LBEG>
  59:	110100        	slli	a0, a1, 16
  5c:	061000        	lsi	f0, a0, 24
  5f:	030655        	call4	30c4 <EXCVADDR+0x2fd6>
  62:	0e          	.byte 0xe
  63:	0e1b      	addi.n	a0, a14, 1
  65:	130e25        	call8	13148 <EXCVADDR+0x1305a>
  68:	000005        	call0	6c <XT_STK_TMP2>
  6b:	110100        	slli	a0, a1, 16
  6e:	061000        	lsi	f0, a0, 24
  71:	030655        	call4	30d8 <EXCVADDR+0x2fea>
  74:	0e          	.byte 0xe
  75:	0e1b      	addi.n	a0, a14, 1
  77:	130e25        	call8	13158 <EXCVADDR+0x1306a>
  7a:	000005        	call0	7c <XtExcFrameSize+0xc>
  7d:	110100        	slli	a0, a1, 16
  80:	061000        	lsi	f0, a0, 24
  83:	030655        	call4	30e8 <EXCVADDR+0x2ffa>
  86:	0e          	.byte 0xe
  87:	0e1b      	addi.n	a0, a14, 1
  89:	130e25        	call8	1316c <EXCVADDR+0x1307e>
  8c:	000005        	call0	90 <XtExcFrameSize+0x20>
  8f:	110100        	slli	a0, a1, 16
  92:	061000        	lsi	f0, a0, 24
  95:	030655        	call4	30fc <EXCVADDR+0x300e>
  98:	0e          	.byte 0xe
  99:	0e1b      	addi.n	a0, a14, 1
  9b:	130e25        	call8	1317c <EXCVADDR+0x1308e>
  9e:	000005        	call0	a0 <XtExcFrameSize+0x30>
  a1:	110100        	slli	a0, a1, 16
  a4:	061000        	lsi	f0, a0, 24
  a7:	030655        	call4	310c <EXCVADDR+0x301e>
  aa:	0e          	.byte 0xe
  ab:	0e1b      	addi.n	a0, a14, 1
  ad:	130e25        	call8	13190 <EXCVADDR+0x130a2>
  b0:	000005        	call0	b4 <EPC_1+0x3>
  b3:	110100        	slli	a0, a1, 16
  b6:	061000        	lsi	f0, a0, 24
  b9:	030655        	call4	3120 <EXCVADDR+0x3032>
  bc:	0e          	.byte 0xe
  bd:	0e1b      	addi.n	a0, a14, 1
  bf:	130e25        	call8	131a0 <EXCVADDR+0x130b2>
  c2:	000005        	call0	c4 <DEPC+0x4>
  c5:	110100        	slli	a0, a1, 16
  c8:	061000        	lsi	f0, a0, 24
  cb:	030655        	call4	3130 <EXCVADDR+0x3042>
  ce:	0e          	.byte 0xe
  cf:	0e1b      	addi.n	a0, a14, 1
  d1:	130e25        	call8	131b4 <EXCVADDR+0x130c6>
  d4:	000005        	call0	d8 <EXCSAVE_7+0x1>
  d7:	110100        	slli	a0, a1, 16
  da:	061000        	lsi	f0, a0, 24
  dd:	120111        	l32r	a1, fffc48e4 <_etext+0xbff40c50>
  e0:	0e0301        	l32r	a0, fffc38ec <_etext+0xbff3fc58>
  e3:	0e1b      	addi.n	a0, a14, 1
  e5:	130e25        	call8	131c8 <EXCVADDR+0x130da>
  e8:	000005        	call0	ec <EXCCAUSE+0x4>
  eb:	110100        	slli	a0, a1, 16
  ee:	061000        	lsi	f0, a0, 24
  f1:	120111        	l32r	a1, fffc48f8 <_etext+0xbff40c64>
  f4:	0e0301        	l32r	a0, fffc3900 <_etext+0xbff3fc6c>
  f7:	0e1b      	addi.n	a0, a14, 1
  f9:	130e25        	call8	131dc <EXCVADDR+0x130ee>
  fc:	000005        	call0	100 <EXCVADDR+0x12>
	...

Disassembly of section .debug_aranges:

00000000 <.debug_aranges>:
   0:	000024        	lsi	f2, a0, 0
   3:	000200        	lsi	f0, a2, 0
   6:	000000        	ill
   9:	000400        	lsi	f0, a4, 0
   c:	000000        	ill
   f:	058000        	extui	a8, a0, 16, 1
  12:	4008      	l32i.n	a0, a0, 16
  14:	0038      	l32i.n	a3, a0, 0
  16:	100000        	and	a0, a0, a0
  19:	083b      	addi.n	a0, a8, 3
  1b:	009c40        	all4	b4, b12:b13:b14:b15
	...
  26:	240000        	extui	a0, a0, 0, 3
  29:	000000        	ill
  2c:	220002        	l8ui	a0, a0, 34
  2f:	000000        	ill
  32:	000004        	lsi	f0, a0, 0
  35:	000000        	ill
  38:	05b8      	l32i.n	a11, a5, 0
  3a:	4008      	l32i.n	a0, a0, 16
  3c:	0948      	l32i.n	a4, a9, 0
  3e:	ac0000        	lsi	f0, a0, 0x2b0
  41:	083b      	addi.n	a0, a8, 3
  43:	001840        	movsp	a4, a8
	...
  4e:	240000        	extui	a0, a0, 0, 3
  51:	000000        	ill
  54:	440002        	l8ui	a0, a0, 68
  57:	000000        	ill
  5a:	000004        	lsi	f0, a0, 0
  5d:	000000        	ill
  60:	080f00        	lsx	f0, a15, a0
  63:	031840        	lsi	f4, a8, 12
  66:	c40000        	extui	a0, a0, 0, 13
  69:	083b      	addi.n	a0, a8, 3
  6b:	001840        	movsp	a4, a8
	...
  76:	240000        	extui	a0, a0, 0, 3
  79:	000000        	ill
  7c:	660002        	l8ui	a0, a0, 102
  7f:	000000        	ill
  82:	000004        	lsi	f0, a0, 0
  85:	000000        	ill
  88:	1218      	l32i.n	a1, a2, 4
  8a:	4008      	l32i.n	a0, a0, 16
  8c:	065c      	movi.n	a6, 80
  8e:	dc0000        	lsi	f0, a0, 0x370
  91:	083b      	addi.n	a0, a8, 3
  93:	001840        	movsp	a4, a8
	...
  9e:	240000        	extui	a0, a0, 0, 3
  a1:	000000        	ill
  a4:	880002        	l8ui	a0, a0, 136
  a7:	000000        	ill
  aa:	000004        	lsi	f0, a0, 0
  ad:	000000        	ill
  b0:	081874        	lsi	f7, a8, 32
  b3:	051440        	extui	a1, a4, 20, 1
  b6:	f40000        	extui	a0, a0, 0, 16
  b9:	083b      	addi.n	a0, a8, 3
  bb:	001840        	movsp	a4, a8
	...
  c6:	240000        	extui	a0, a0, 0, 3
  c9:	000000        	ill
  cc:	aa0002        	l8ui	a0, a0, 170
  cf:	000000        	ill
  d2:	000004        	lsi	f0, a0, 0
  d5:	000000        	ill
  d8:	1d88      	l32i.n	a8, a13, 4
  da:	4008      	l32i.n	a0, a0, 16
  dc:	0648      	l32i.n	a4, a6, 0
  de:	0c0000        	lsi	f0, a0, 48
  e1:	083c      	movi.n	a8, 48
  e3:	001840        	movsp	a4, a8
	...
  ee:	240000        	extui	a0, a0, 0, 3
  f1:	000000        	ill
  f4:	cc0002        	l8ui	a0, a0, 204
  f7:	000000        	ill
  fa:	000004        	lsi	f0, a0, 0
  fd:	000000        	ill
 100:	0823d0        	lsx	f2, a3, a13
 103:	02d040        	andb	b13, b0, b4
 106:	240000        	extui	a0, a0, 0, 3
 109:	083c      	movi.n	a8, 48
 10b:	001840        	movsp	a4, a8
	...
 116:	240000        	extui	a0, a0, 0, 3
 119:	000000        	ill
 11c:	ee0002        	l8ui	a0, a0, 238
 11f:	000000        	ill
 122:	000004        	lsi	f0, a0, 0
 125:	000000        	ill
 128:	0826a0        	lsx	f2, a6, a10
 12b:	027c40        	andb	b7, b12, b4
 12e:	3c0000        	lsi	f0, a0, 240
 131:	083c      	movi.n	a8, 48
 133:	001840        	movsp	a4, a8
	...
 13e:	240000        	extui	a0, a0, 0, 3
 141:	000000        	ill
 144:	100002        	l8ui	a0, a0, 16
 147:	000001        	l32r	a0, fffc0148 <_etext+0xbff3c4b4>
 14a:	000004        	lsi	f0, a0, 0
 14d:	000000        	ill
 150:	291c      	movi.n	a9, 18
 152:	4008      	l32i.n	a0, a0, 16
 154:	02e8      	l32i.n	a14, a2, 0
 156:	540000        	extui	a0, a0, 0, 6
 159:	083c      	movi.n	a8, 48
 15b:	001840        	movsp	a4, a8
	...
 166:	240000        	extui	a0, a0, 0, 3
 169:	000000        	ill
 16c:	320002        	l8ui	a0, a0, 50
 16f:	000001        	l32r	a0, fffc0170 <_etext+0xbff3c4dc>
 172:	000004        	lsi	f0, a0, 0
 175:	000000        	ill
 178:	082c04        	mula.dd.ll.ldinc	m2, a12, m0, m2
 17b:	024040        	andb	b4, b0, b4
 17e:	6c0000        	lsi	f0, a0, 0x1b0
 181:	083c      	movi.n	a8, 48
 183:	001040        	movsp	a4, a0
	...
 18e:	240000        	extui	a0, a0, 0, 3
 191:	000000        	ill
 194:	540002        	l8ui	a0, a0, 84
 197:	000001        	l32r	a0, fffc0198 <_etext+0xbff3c504>
 19a:	000004        	lsi	f0, a0, 0
 19d:	000000        	ill
 1a0:	082e44        	mula.dd.ll.ldinc	m2, a14, m0, m3
 1a3:	058440        	extui	a8, a4, 20, 1
 1a6:	7c0000        	lsi	f0, a0, 0x1f0
 1a9:	083c      	movi.n	a8, 48
 1ab:	001040        	movsp	a4, a0
	...
 1b6:	240000        	extui	a0, a0, 0, 3
 1b9:	000000        	ill
 1bc:	760002        	l8ui	a0, a0, 118
 1bf:	000001        	l32r	a0, fffc01c0 <_etext+0xbff3c52c>
 1c2:	000004        	lsi	f0, a0, 0
 1c5:	000000        	ill
 1c8:	33c8      	l32i.n	a12, a3, 12
 1ca:	4008      	l32i.n	a0, a0, 16
 1cc:	0748      	l32i.n	a4, a7, 0
 1ce:	8c0000        	lsi	f0, a0, 0x230
 1d1:	083c      	movi.n	a8, 48
 1d3:	000840        	lsi	f4, a8, 0
	...
 1de:	1c0000        	lsi	f0, a0, 112
 1e1:	000000        	ill
 1e4:	980002        	l8ui	a0, a0, 152
 1e7:	000001        	l32r	a0, fffc01e8 <_etext+0xbff3c554>
 1ea:	000004        	lsi	f0, a0, 0
 1ed:	000000        	ill
 1f0:	0804e4        	lsi	f14, a4, 32
 1f3:	009c40        	all4	b4, b12:b13:b14:b15
	...
 1fe:	1c0000        	lsi	f0, a0, 112
 201:	000000        	ill
 204:	be0002        	l8ui	a0, a0, 190
 207:	000001        	l32r	a0, fffc0208 <_etext+0xbff3c574>
 20a:	000004        	lsi	f0, a0, 0
 20d:	000000        	ill
 210:	080400        	lsx	f0, a4, a0
 213:	00a940        	any8	b4, b8:b9:b10:b11:b12:b13:b14:b15
	...

Disassembly of section .debug_str:

00000000 <.debug_str>:
   0:	697562        	lsi	f6, a5, 0x1a4
   3:	646c      	movi.n	a4, -26
   5:	2f          	.byte 0x2f
   6:	614d      	lsi	f4, a1, 4
   8:	6e69      	s32i.n	a6, a14, 24
   a:	2e          	.byte 0x2e
   b:	2f0053        	lsi	f5, a0, 188
   e:	657355        	call4	65744 <EXCVADDR+0x65656>
  11:	2f7372        	lsi	f7, a3, 188
  14:	727574        	lsi	f7, a5, 0x1c8
  17:	317567        	bbci	a5, 22, 4c <XT_STK_SAR>
  1a:	2f          	.byte 0x2f
  1b:	766544        	lsi	f4, a5, 0x1d8
  1e:	2f          	.byte 0x2f
  1f:	707365        	call8	70754 <EXCVADDR+0x70666>
  22:	2d3233        	lsi	f3, a2, 180
  25:	6f          	.byte 0x6f
  26:	726562        	s32i	a6, a5, 0x1c8
  29:	6f          	.byte 0x6f
  2a:	6e          	.byte 0x6e
  2b:	632d      	lsi	f2, a3, 12
  2d:	6f          	.byte 0x6f
  2e:	706d      	lsi	f6, a0, 0
  30:	6c69      	s32i.n	a6, a12, 24
  32:	2f7265        	call8	2f758 <EXCVADDR+0x2f66a>
  35:	736554        	lsi	f5, a5, 0x1cc
  38:	470074        	lsi	f7, a0, 0x11c
  3b:	4e          	.byte 0x4e
  3c:	412055        	call4	41244 <EXCVADDR+0x41156>
  3f:	322053        	lsi	f5, a0, 200
  42:	2e          	.byte 0x2e
  43:	2e3133        	lsi	f3, a1, 184
  46:	620031        	l32r	a3, fffd8848 <_etext+0xbff54bb4>
  49:	6c6975        	call12	6c6e0 <EXCVADDR+0x6c5f2>
  4c:	432f64        	lsi	f6, a15, 0x10c
  4f:	657361        	l32r	a6, fffd961c <_etext+0xbff55988>
  52:	2e          	.byte 0x2e
  53:	620053        	lsi	f5, a0, 0x188
  56:	6c6975        	call12	6c6ec <EXCVADDR+0x6c5fe>
  59:	422f64        	lsi	f6, a15, 0x108
  5c:	7469      	s32i.n	a6, a4, 28
  5e:	6e7546        	j	1ba37 <EXCVADDR+0x1b949>
  61:	532e63        	lsi	f6, a14, 0x14c
  64:	756200        	extui	a6, a0, 18, 8
  67:	6c69      	s32i.n	a6, a12, 24
  69:	412f64        	lsi	f6, a15, 0x104
  6c:	617272        	lsi	f7, a2, 0x184
  6f:	4179      	s32i.n	a7, a1, 16
  71:	697373        	lsi	f7, a3, 0x1a4
  74:	6d6e67        	bbci	a14, 6, e5 <EXCSAVE_7+0xe>
  77:	746e65        	call8	7475c <EXCVADDR+0x7466e>
  7a:	532e73        	lsi	f7, a14, 0x14c
  7d:	756200        	extui	a6, a0, 18, 8
  80:	6c69      	s32i.n	a6, a12, 24
  82:	422f64        	lsi	f6, a15, 0x108
  85:	7479      	s32i.n	a7, a4, 28
  87:	532e65        	call8	5336c <EXCVADDR+0x5327e>
  8a:	756200        	extui	a6, a0, 18, 8
  8d:	6c69      	s32i.n	a6, a12, 24
  8f:	442f64        	lsi	f6, a15, 0x110
  92:	466665        	call8	466f8 <EXCVADDR+0x4660a>
  95:	636e75        	call12	6377c <EXCVADDR+0x6368e>
  98:	2e          	.byte 0x2e
  99:	620053        	lsi	f5, a0, 0x188
  9c:	6c6975        	call12	6c734 <EXCVADDR+0x6c646>
  9f:	532f64        	lsi	f6, a15, 0x14c
  a2:	6d69      	s32i.n	a6, a13, 24
  a4:	656c70        	extui	a6, a7, 28, 7
  a7:	616552        	s32i	a5, a5, 0x184
  aa:	2e6c      	movi.n	a14, -30
  ac:	620053        	lsi	f5, a0, 0x188
  af:	6c6975        	call12	6c744 <EXCVADDR+0x6c656>
  b2:	532f64        	lsi	f6, a15, 0x14c
  b5:	6d69      	s32i.n	a6, a13, 24
  b7:	656c70        	extui	a6, a7, 28, 7
  ba:	614d      	lsi	f4, a1, 4
  bc:	2e6874        	lsi	f7, a8, 184
  bf:	620053        	lsi	f5, a0, 0x188
  c2:	6c6975        	call12	6c758 <EXCVADDR+0x6c66a>
  c5:	412f64        	lsi	f6, a15, 0x104
  c8:	697373        	lsi	f7, a3, 0x1a4
  cb:	6d6e67        	bbci	a14, 6, 13c <EXCVADDR+0x4e>
  ce:	746e65        	call8	747b4 <EXCVADDR+0x746c6>
  d1:	532e73        	lsi	f7, a14, 0x14c
  d4:	756200        	extui	a6, a0, 18, 8
  d7:	6c69      	s32i.n	a6, a12, 24
  d9:	542f64        	lsi	f6, a15, 0x150
  dc:	747365        	call8	74814 <EXCVADDR+0x74726>
  df:	2e          	.byte 0x2e
  e0:	620053        	lsi	f5, a0, 0x188
  e3:	6c6975        	call12	6c778 <EXCVADDR+0x6c68a>
  e6:	4f2f64        	lsi	f6, a15, 0x13c
  e9:	2e7475        	call12	2e830 <EXCVADDR+0x2e742>
  ec:	2f0053        	lsi	f5, a0, 188
  ef:	657355        	call4	65824 <EXCVADDR+0x65736>
  f2:	2f7372        	lsi	f7, a3, 188
  f5:	727574        	lsi	f7, a5, 0x1c8
  f8:	317567        	bbci	a5, 22, 12d <EXCVADDR+0x3f>
  fb:	2f          	.byte 0x2f
  fc:	766544        	lsi	f4, a5, 0x1d8
  ff:	2f          	.byte 0x2f
 100:	707365        	call8	70838 <EXCVADDR+0x7074a>
 103:	2d3233        	lsi	f3, a2, 180
 106:	6f          	.byte 0x6f
 107:	726562        	s32i	a6, a5, 0x1c8
 10a:	6f          	.byte 0x6f
 10b:	6e          	.byte 0x6e
 10c:	632d      	lsi	f2, a3, 12
 10e:	6f          	.byte 0x6f
 10f:	706d      	lsi	f6, a0, 0
 111:	6c69      	s32i.n	a6, a12, 24
 113:	2f7265        	call8	2f838 <EXCVADDR+0x2f74a>
 116:	696c      	movi.n	a9, -26
 118:	620062        	l8ui	a6, a0, 98
 11b:	6c6975        	call12	6c7b0 <EXCVADDR+0x6c6c2>
 11e:	4b2f64        	mula.da.hh.ldinc	m2, a15, m0, a6
 121:	6e7265        	call8	6e848 <EXCVADDR+0x6e75a>
 124:	2e6c65        	call8	2e7ec <EXCVADDR+0x2e6fe>
 127:	690053        	lsi	f5, a0, 0x1a4
 12a:	6e          	.byte 0x6e
 12b:	7469      	s32i.n	a6, a4, 28
 12d:	2f          	.byte 0x2f
 12e:	6e69      	s32i.n	a6, a14, 24
 130:	7469      	s32i.n	a6, a4, 28
 132:	2e          	.byte 0x2e
 133:	730053        	lsi	f5, a0, 0x1cc
 136:	2f6372        	s32i	a7, a3, 188
 139:	616d      	lsi	f6, a1, 4
 13b:	5f6874        	lsi	f7, a8, 0x17c
 13e:	707573        	lsi	f7, a5, 0x1c0
 141:	726f70        	lsi	f7, a15, 0x1c8
 144:	532e74        	lsi	f7, a14, 0x14c
	...

Disassembly of section .debug_ranges:

00000000 <.debug_ranges>:
   0:	ff          	.byte 0xff
   1:	ff          	.byte 0xff
   2:	ff          	.byte 0xff
   3:	ff          	.byte 0xff
   4:	000000        	ill
   7:	058000        	extui	a8, a0, 16, 1
   a:	4008      	l32i.n	a0, a0, 16
   c:	05b8      	l32i.n	a11, a5, 0
   e:	4008      	l32i.n	a0, a0, 16
  10:	083b10        	lsx	f3, a11, a1
  13:	3bac40        	ueq.s	b10, f12, f4
  16:	4008      	l32i.n	a0, a0, 16
	...
  20:	ff          	.byte 0xff
  21:	ff          	.byte 0xff
  22:	ff          	.byte 0xff
  23:	ff          	.byte 0xff
  24:	000000        	ill
  27:	05b800        	extui	a11, a0, 24, 1
  2a:	4008      	l32i.n	a0, a0, 16
  2c:	080f00        	lsx	f0, a15, a0
  2f:	3bac40        	ueq.s	b10, f12, f4
  32:	4008      	l32i.n	a0, a0, 16
  34:	083bc4        	lsi	f12, a11, 32
  37:	000040        	lsi	f4, a0, 0
  3a:	000000        	ill
  3d:	000000        	ill
  40:	ff          	.byte 0xff
  41:	ff          	.byte 0xff
  42:	ff          	.byte 0xff
  43:	ff          	.byte 0xff
  44:	000000        	ill
  47:	0f0000        	f64cmph	a0, a0, a0, 0
  4a:	4008      	l32i.n	a0, a0, 16
  4c:	1218      	l32i.n	a1, a2, 4
  4e:	4008      	l32i.n	a0, a0, 16
  50:	083bc4        	lsi	f12, a11, 32
  53:	3bdc40        	ueq.s	b13, f12, f4
  56:	4008      	l32i.n	a0, a0, 16
	...
  60:	ff          	.byte 0xff
  61:	ff          	.byte 0xff
  62:	ff          	.byte 0xff
  63:	ff          	.byte 0xff
  64:	000000        	ill
  67:	121800        	andbc	b1, b8, b0
  6a:	4008      	l32i.n	a0, a0, 16
  6c:	081874        	lsi	f7, a8, 32
  6f:	3bdc40        	ueq.s	b13, f12, f4
  72:	4008      	l32i.n	a0, a0, 16
  74:	083bf4        	lsi	f15, a11, 32
  77:	000040        	lsi	f4, a0, 0
  7a:	000000        	ill
  7d:	000000        	ill
  80:	ff          	.byte 0xff
  81:	ff          	.byte 0xff
  82:	ff          	.byte 0xff
  83:	ff          	.byte 0xff
  84:	000000        	ill
  87:	187400        	lsxp	f7, a4, a0
  8a:	4008      	l32i.n	a0, a0, 16
  8c:	1d88      	l32i.n	a8, a13, 4
  8e:	4008      	l32i.n	a0, a0, 16
  90:	083bf4        	lsi	f15, a11, 32
  93:	3c0c40        	lsi	f4, a12, 240
  96:	4008      	l32i.n	a0, a0, 16
	...
  a0:	ff          	.byte 0xff
  a1:	ff          	.byte 0xff
  a2:	ff          	.byte 0xff
  a3:	ff          	.byte 0xff
  a4:	000000        	ill
  a7:	1d8800        	lsi	f0, a8, 116
  aa:	4008      	l32i.n	a0, a0, 16
  ac:	0823d0        	lsx	f2, a3, a13
  af:	3c0c40        	lsi	f4, a12, 240
  b2:	4008      	l32i.n	a0, a0, 16
  b4:	083c24        	lsi	f2, a12, 32
  b7:	000040        	lsi	f4, a0, 0
  ba:	000000        	ill
  bd:	000000        	ill
  c0:	ff          	.byte 0xff
  c1:	ff          	.byte 0xff
  c2:	ff          	.byte 0xff
  c3:	ff          	.byte 0xff
  c4:	000000        	ill
  c7:	23d000        	sext	a13, a0, 7
  ca:	4008      	l32i.n	a0, a0, 16
  cc:	0826a0        	lsx	f2, a6, a10
  cf:	3c2440        	lsi	f4, a4, 240
  d2:	4008      	l32i.n	a0, a0, 16
  d4:	3c3c      	movi.n	a12, 51
  d6:	4008      	l32i.n	a0, a0, 16
	...
  e0:	ff          	.byte 0xff
  e1:	ff          	.byte 0xff
  e2:	ff          	.byte 0xff
  e3:	ff          	.byte 0xff
  e4:	000000        	ill
  e7:	26a000        	lsi	f0, a0, 152
  ea:	4008      	l32i.n	a0, a0, 16
  ec:	291c      	movi.n	a9, 18
  ee:	4008      	l32i.n	a0, a0, 16
  f0:	3c3c      	movi.n	a12, 51
  f2:	4008      	l32i.n	a0, a0, 16
  f4:	083c54        	lsi	f5, a12, 32
  f7:	000040        	lsi	f4, a0, 0
  fa:	000000        	ill
  fd:	000000        	ill
 100:	ff          	.byte 0xff
 101:	ff          	.byte 0xff
 102:	ff          	.byte 0xff
 103:	ff          	.byte 0xff
 104:	000000        	ill
 107:	291c00        	lsi	f0, a12, 164
 10a:	4008      	l32i.n	a0, a0, 16
 10c:	082c04        	mula.dd.ll.ldinc	m2, a12, m0, m2
 10f:	3c5440        	lsi	f4, a4, 240
 112:	4008      	l32i.n	a0, a0, 16
 114:	3c6c      	movi.n	a12, -29
 116:	4008      	l32i.n	a0, a0, 16
	...
 120:	ff          	.byte 0xff
 121:	ff          	.byte 0xff
 122:	ff          	.byte 0xff
 123:	ff          	.byte 0xff
 124:	000000        	ill
 127:	2c0400        	lsi	f0, a4, 176
 12a:	4008      	l32i.n	a0, a0, 16
 12c:	082e44        	mula.dd.ll.ldinc	m2, a14, m0, m3
 12f:	3c6c40        	lsi	f4, a12, 240
 132:	4008      	l32i.n	a0, a0, 16
 134:	3c7c      	movi.n	a12, -13
 136:	4008      	l32i.n	a0, a0, 16
	...
 140:	ff          	.byte 0xff
 141:	ff          	.byte 0xff
 142:	ff          	.byte 0xff
 143:	ff          	.byte 0xff
 144:	000000        	ill
 147:	2e4400        	f64norm	a4, a4, a0, 0
 14a:	4008      	l32i.n	a0, a0, 16
 14c:	33c8      	l32i.n	a12, a3, 12
 14e:	4008      	l32i.n	a0, a0, 16
 150:	3c7c      	movi.n	a12, -13
 152:	4008      	l32i.n	a0, a0, 16
 154:	3c8c      	beqz.n	a12, 15b <EXCVADDR+0x6d>
 156:	4008      	l32i.n	a0, a0, 16
	...
 160:	ff          	.byte 0xff
 161:	ff          	.byte 0xff
 162:	ff          	.byte 0xff
 163:	ff          	.byte 0xff
 164:	000000        	ill
 167:	33c800        	clamps	a12, a8, 7
 16a:	4008      	l32i.n	a0, a0, 16
 16c:	083b10        	lsx	f3, a11, a1
 16f:	3c8c40        	lsi	f4, a12, 240
 172:	4008      	l32i.n	a0, a0, 16
 174:	083c94        	lsi	f9, a12, 32
 177:	000040        	lsi	f4, a0, 0
 17a:	000000        	ill
 17d:	000000        	ill
